
sim_O2/my_program:     file format elf32-littleriscv


Disassembly of section .text:

00010094 <exit>:
   10094:	1141                	addi	sp,sp,-16
   10096:	4581                	li	a1,0
   10098:	c422                	sw	s0,8(sp)
   1009a:	c606                	sw	ra,12(sp)
   1009c:	842a                	mv	s0,a0
   1009e:	577000ef          	jal	10e14 <__call_exitprocs>
   100a2:	f201a783          	lw	a5,-224(gp) # 1b730 <__stdio_exit_handler>
   100a6:	c391                	beqz	a5,100aa <exit+0x16>
   100a8:	9782                	jalr	a5
   100aa:	8522                	mv	a0,s0
   100ac:	213070ef          	jal	17abe <_exit>

000100b0 <main>:
   100b0:	1141                	addi	sp,sp,-16
   100b2:	c606                	sw	ra,12(sp)
   100b4:	286d                	jal	1016e <sha256_test>
   100b6:	cd09                	beqz	a0,100d0 <main+0x20>
   100b8:	65e9                	lui	a1,0x1a
   100ba:	1c058593          	addi	a1,a1,448 # 1a1c0 <__clzsi2+0xa0>
   100be:	6569                	lui	a0,0x1a
   100c0:	1d450513          	addi	a0,a0,468 # 1a1d4 <__clzsi2+0xb4>
   100c4:	11d000ef          	jal	109e0 <printf>
   100c8:	40b2                	lw	ra,12(sp)
   100ca:	4501                	li	a0,0
   100cc:	0141                	addi	sp,sp,16
   100ce:	8082                	ret
   100d0:	65e9                	lui	a1,0x1a
   100d2:	1cc58593          	addi	a1,a1,460 # 1a1cc <__clzsi2+0xac>
   100d6:	b7e5                	j	100be <main+0xe>

000100d8 <register_fini>:
   100d8:	00000793          	li	a5,0
   100dc:	c791                	beqz	a5,100e8 <register_fini+0x10>
   100de:	6551                	lui	a0,0x14
   100e0:	c3050513          	addi	a0,a0,-976 # 13c30 <__libc_fini_array>
   100e4:	5ff0006f          	j	10ee2 <atexit>
   100e8:	8082                	ret

000100ea <_start>:
   100ea:	0000b197          	auipc	gp,0xb
   100ee:	72618193          	addi	gp,gp,1830 # 1b810 <__global_pointer$>
   100f2:	f2018513          	addi	a0,gp,-224 # 1b730 <__stdio_exit_handler>
   100f6:	24c18613          	addi	a2,gp,588 # 1ba5c <__BSS_END__>
   100fa:	8e09                	sub	a2,a2,a0
   100fc:	4581                	li	a1,0
   100fe:	40b000ef          	jal	10d08 <memset>
   10102:	00001517          	auipc	a0,0x1
   10106:	de050513          	addi	a0,a0,-544 # 10ee2 <atexit>
   1010a:	c519                	beqz	a0,10118 <_start+0x2e>
   1010c:	00004517          	auipc	a0,0x4
   10110:	b2450513          	addi	a0,a0,-1244 # 13c30 <__libc_fini_array>
   10114:	5cf000ef          	jal	10ee2 <atexit>
   10118:	387000ef          	jal	10c9e <__libc_init_array>
   1011c:	4502                	lw	a0,0(sp)
   1011e:	004c                	addi	a1,sp,4
   10120:	4601                	li	a2,0
   10122:	3779                	jal	100b0 <main>
   10124:	bf85                	j	10094 <exit>

00010126 <__do_global_dtors_aux>:
   10126:	1141                	addi	sp,sp,-16
   10128:	c422                	sw	s0,8(sp)
   1012a:	f401c783          	lbu	a5,-192(gp) # 1b750 <completed.1>
   1012e:	c606                	sw	ra,12(sp)
   10130:	ef91                	bnez	a5,1014c <__do_global_dtors_aux+0x26>
   10132:	00000793          	li	a5,0
   10136:	cb81                	beqz	a5,10146 <__do_global_dtors_aux+0x20>
   10138:	656d                	lui	a0,0x1b
   1013a:	00050513          	mv	a0,a0
   1013e:	00000097          	auipc	ra,0x0
   10142:	000000e7          	jalr	zero # 0 <exit-0x10094>
   10146:	4785                	li	a5,1
   10148:	f4f18023          	sb	a5,-192(gp) # 1b750 <completed.1>
   1014c:	40b2                	lw	ra,12(sp)
   1014e:	4422                	lw	s0,8(sp)
   10150:	0141                	addi	sp,sp,16
   10152:	8082                	ret

00010154 <frame_dummy>:
   10154:	00000793          	li	a5,0
   10158:	cb91                	beqz	a5,1016c <frame_dummy+0x18>
   1015a:	656d                	lui	a0,0x1b
   1015c:	f4418593          	addi	a1,gp,-188 # 1b754 <object.0>
   10160:	00050513          	mv	a0,a0
   10164:	00000317          	auipc	t1,0x0
   10168:	00000067          	jr	zero # 0 <exit-0x10094>
   1016c:	8082                	ret

0001016e <sha256_test>:
   1016e:	00636737          	lui	a4,0x636
   10172:	67e9                	lui	a5,0x1a
   10174:	7169                	addi	sp,sp,-304
   10176:	26170713          	addi	a4,a4,609 # 636261 <__BSS_END__+0x61a805>
   1017a:	16078793          	addi	a5,a5,352 # 1a160 <__clzsi2+0x40>
   1017e:	c03a                	sw	a4,0(sp)
   10180:	12112623          	sw	ra,300(sp)
   10184:	12812423          	sw	s0,296(sp)
   10188:	12912223          	sw	s1,292(sp)
   1018c:	13212023          	sw	s2,288(sp)
   10190:	11312e23          	sw	s3,284(sp)
   10194:	10d0                	addi	a2,sp,100
   10196:	03078713          	addi	a4,a5,48
   1019a:	0007a803          	lw	a6,0(a5)
   1019e:	43c8                	lw	a0,4(a5)
   101a0:	478c                	lw	a1,8(a5)
   101a2:	47d4                	lw	a3,12(a5)
   101a4:	01062023          	sw	a6,0(a2)
   101a8:	c248                	sw	a0,4(a2)
   101aa:	c60c                	sw	a1,8(a2)
   101ac:	c654                	sw	a3,12(a2)
   101ae:	07c1                	addi	a5,a5,16
   101b0:	0641                	addi	a2,a2,16
   101b2:	fee794e3          	bne	a5,a4,1019a <sha256_test+0x2c>
   101b6:	66e9                	lui	a3,0x1a
   101b8:	6769                	lui	a4,0x1a
   101ba:	35868693          	addi	a3,a3,856 # 1a358 <__clzsi2+0x238>
   101be:	19c70713          	addi	a4,a4,412 # 1a19c <__clzsi2+0x7c>
   101c2:	0007a983          	lw	s3,0(a5)
   101c6:	0047a903          	lw	s2,4(a5)
   101ca:	0087c483          	lbu	s1,8(a5)
   101ce:	0006a083          	lw	ra,0(a3)
   101d2:	0086a383          	lw	t2,8(a3)
   101d6:	00c6a283          	lw	t0,12(a3)
   101da:	0106af83          	lw	t6,16(a3)
   101de:	0146af03          	lw	t5,20(a3)
   101e2:	0186ae83          	lw	t4,24(a3)
   101e6:	01c6ae03          	lw	t3,28(a3)
   101ea:	00072303          	lw	t1,0(a4)
   101ee:	42c0                	lw	s0,4(a3)
   101f0:	4348                	lw	a0,4(a4)
   101f2:	00c72883          	lw	a7,12(a4)
   101f6:	01072803          	lw	a6,16(a4)
   101fa:	4f14                	lw	a3,24(a4)
   101fc:	4f5c                	lw	a5,28(a4)
   101fe:	4b4c                	lw	a1,20(a4)
   10200:	4718                	lw	a4,8(a4)
   10202:	01362023          	sw	s3,0(a2)
   10206:	01262223          	sw	s2,4(a2)
   1020a:	00960423          	sb	s1,8(a2)
   1020e:	c206                	sw	ra,4(sp)
   10210:	c61e                	sw	t2,12(sp)
   10212:	c816                	sw	t0,16(sp)
   10214:	ca7e                	sw	t6,20(sp)
   10216:	cc7a                	sw	t5,24(sp)
   10218:	ce76                	sw	t4,28(sp)
   1021a:	d072                	sw	t3,32(sp)
   1021c:	d21a                	sw	t1,36(sp)
   1021e:	c422                	sw	s0,8(sp)
   10220:	d42a                	sw	a0,40(sp)
   10222:	1108                	addi	a0,sp,160
   10224:	d63a                	sw	a4,44(sp)
   10226:	d846                	sw	a7,48(sp)
   10228:	da42                	sw	a6,52(sp)
   1022a:	de36                	sw	a3,60(sp)
   1022c:	c0be                	sw	a5,64(sp)
   1022e:	dc2e                	sw	a1,56(sp)
   10230:	2c71                	jal	104cc <sha256_init>
   10232:	850a                	mv	a0,sp
   10234:	37d000ef          	jal	10db0 <strlen>
   10238:	862a                	mv	a2,a0
   1023a:	858a                	mv	a1,sp
   1023c:	1108                	addi	a0,sp,160
   1023e:	2cdd                	jal	10534 <sha256_update>
   10240:	00cc                	addi	a1,sp,68
   10242:	1108                	addi	a0,sp,160
   10244:	2ea9                	jal	1059e <sha256_final>
   10246:	02000613          	li	a2,32
   1024a:	00cc                	addi	a1,sp,68
   1024c:	0048                	addi	a0,sp,4
   1024e:	097000ef          	jal	10ae4 <memcmp>
   10252:	842a                	mv	s0,a0
   10254:	1108                	addi	a0,sp,160
   10256:	2c9d                	jal	104cc <sha256_init>
   10258:	10c8                	addi	a0,sp,100
   1025a:	357000ef          	jal	10db0 <strlen>
   1025e:	862a                	mv	a2,a0
   10260:	10cc                	addi	a1,sp,100
   10262:	1108                	addi	a0,sp,160
   10264:	2cc1                	jal	10534 <sha256_update>
   10266:	1108                	addi	a0,sp,160
   10268:	00cc                	addi	a1,sp,68
   1026a:	2e15                	jal	1059e <sha256_final>
   1026c:	4501                	li	a0,0
   1026e:	e809                	bnez	s0,10280 <sha256_test+0x112>
   10270:	02000613          	li	a2,32
   10274:	00cc                	addi	a1,sp,68
   10276:	1048                	addi	a0,sp,36
   10278:	06d000ef          	jal	10ae4 <memcmp>
   1027c:	00153513          	seqz	a0,a0
   10280:	12c12083          	lw	ra,300(sp)
   10284:	12812403          	lw	s0,296(sp)
   10288:	12412483          	lw	s1,292(sp)
   1028c:	12012903          	lw	s2,288(sp)
   10290:	11c12983          	lw	s3,284(sp)
   10294:	6155                	addi	sp,sp,304
   10296:	8082                	ret

00010298 <sha256_transform>:
   10298:	714d                	addi	sp,sp,-336
   1029a:	14912423          	sw	s1,328(sp)
   1029e:	1004                	addi	s1,sp,32
   102a0:	13612a23          	sw	s6,308(sp)
   102a4:	14812623          	sw	s0,332(sp)
   102a8:	15212223          	sw	s2,324(sp)
   102ac:	15312023          	sw	s3,320(sp)
   102b0:	13412e23          	sw	s4,316(sp)
   102b4:	13512c23          	sw	s5,312(sp)
   102b8:	13712823          	sw	s7,304(sp)
   102bc:	13812623          	sw	s8,300(sp)
   102c0:	13912423          	sw	s9,296(sp)
   102c4:	13a12223          	sw	s10,292(sp)
   102c8:	13b12023          	sw	s11,288(sp)
   102cc:	8b2a                	mv	s6,a0
   102ce:	06010813          	addi	a6,sp,96
   102d2:	8726                	mv	a4,s1
   102d4:	0005c783          	lbu	a5,0(a1)
   102d8:	0015c603          	lbu	a2,1(a1)
   102dc:	0035c503          	lbu	a0,3(a1)
   102e0:	0025c683          	lbu	a3,2(a1)
   102e4:	07e2                	slli	a5,a5,0x18
   102e6:	0642                	slli	a2,a2,0x10
   102e8:	8fd1                	or	a5,a5,a2
   102ea:	8fc9                	or	a5,a5,a0
   102ec:	06a2                	slli	a3,a3,0x8
   102ee:	8fd5                	or	a5,a5,a3
   102f0:	c31c                	sw	a5,0(a4)
   102f2:	0711                	addi	a4,a4,4
   102f4:	0591                	addi	a1,a1,4
   102f6:	fd071fe3          	bne	a4,a6,102d4 <sha256_transform+0x3c>
   102fa:	4796                	lw	a5,68(sp)
   102fc:	4fa6                	lw	t6,72(sp)
   102fe:	4f36                	lw	t5,76(sp)
   10300:	4ec6                	lw	t4,80(sp)
   10302:	4e56                	lw	t3,84(sp)
   10304:	45e6                	lw	a1,88(sp)
   10306:	4376                	lw	t1,92(sp)
   10308:	5602                	lw	a2,32(sp)
   1030a:	1048                	addi	a0,sp,36
   1030c:	0c448393          	addi	t2,s1,196
   10310:	88be                	mv	a7,a5
   10312:	82b2                	mv	t0,a2
   10314:	4110                	lw	a2,0(a0)
   10316:	00f59793          	slli	a5,a1,0xf
   1031a:	0115da13          	srli	s4,a1,0x11
   1031e:	00d59813          	slli	a6,a1,0xd
   10322:	0135d993          	srli	s3,a1,0x13
   10326:	01265413          	srli	s0,a2,0x12
   1032a:	00765713          	srli	a4,a2,0x7
   1032e:	01961913          	slli	s2,a2,0x19
   10332:	00e61693          	slli	a3,a2,0xe
   10336:	8ec1                	or	a3,a3,s0
   10338:	0147e7b3          	or	a5,a5,s4
   1033c:	01386833          	or	a6,a6,s3
   10340:	01276733          	or	a4,a4,s2
   10344:	00a5d413          	srli	s0,a1,0xa
   10348:	8f35                	xor	a4,a4,a3
   1034a:	0107c7b3          	xor	a5,a5,a6
   1034e:	00365693          	srli	a3,a2,0x3
   10352:	8f35                	xor	a4,a4,a3
   10354:	8fa1                	xor	a5,a5,s0
   10356:	97ba                	add	a5,a5,a4
   10358:	97c6                	add	a5,a5,a7
   1035a:	871a                	mv	a4,t1
   1035c:	00578333          	add	t1,a5,t0
   10360:	02652e23          	sw	t1,60(a0) # 1b03c <_impure_data+0x1c>
   10364:	0511                	addi	a0,a0,4
   10366:	88fe                	mv	a7,t6
   10368:	8ffa                	mv	t6,t5
   1036a:	8f76                	mv	t5,t4
   1036c:	8ef2                	mv	t4,t3
   1036e:	8e2e                	mv	t3,a1
   10370:	85ba                	mv	a1,a4
   10372:	fa7510e3          	bne	a0,t2,10312 <sha256_transform+0x7a>
   10376:	050b2d03          	lw	s10,80(s6)
   1037a:	054b2c83          	lw	s9,84(s6)
   1037e:	058b2c03          	lw	s8,88(s6)
   10382:	05cb2b83          	lw	s7,92(s6)
   10386:	064b2e03          	lw	t3,100(s6)
   1038a:	060b2403          	lw	s0,96(s6)
   1038e:	068b2383          	lw	t2,104(s6)
   10392:	06cb2d83          	lw	s11,108(s6)
   10396:	6ee9                	lui	t4,0x1a
   10398:	378e8e93          	addi	t4,t4,888 # 1a378 <k>
   1039c:	100e8a93          	addi	s5,t4,256
   103a0:	87ee                	mv	a5,s11
   103a2:	891e                	mv	s2,t2
   103a4:	89f2                	mv	s3,t3
   103a6:	8622                	mv	a2,s0
   103a8:	8a5e                	mv	s4,s7
   103aa:	8f62                	mv	t5,s8
   103ac:	8fe6                	mv	t6,s9
   103ae:	886a                	mv	a6,s10
   103b0:	c66a                	sw	s10,12(sp)
   103b2:	c866                	sw	s9,16(sp)
   103b4:	ca62                	sw	s8,20(sp)
   103b6:	cc5e                	sw	s7,24(sp)
   103b8:	ce72                	sw	t3,28(sp)
   103ba:	a039                	j	103c8 <sha256_transform+0x130>
   103bc:	894e                	mv	s2,s3
   103be:	8f7e                	mv	t5,t6
   103c0:	89b2                	mv	s3,a2
   103c2:	8fc2                	mv	t6,a6
   103c4:	862e                	mv	a2,a1
   103c6:	883a                	mv	a6,a4
   103c8:	01a61693          	slli	a3,a2,0x1a
   103cc:	01561713          	slli	a4,a2,0x15
   103d0:	00665593          	srli	a1,a2,0x6
   103d4:	00b65513          	srli	a0,a2,0xb
   103d8:	8d59                	or	a0,a0,a4
   103da:	01965893          	srli	a7,a2,0x19
   103de:	8dd5                	or	a1,a1,a3
   103e0:	00761d13          	slli	s10,a2,0x7
   103e4:	011d6d33          	or	s10,s10,a7
   103e8:	8da9                	xor	a1,a1,a0
   103ea:	01a5c5b3          	xor	a1,a1,s10
   103ee:	0004ae03          	lw	t3,0(s1)
   103f2:	000ead03          	lw	s10,0(t4)
   103f6:	01381c13          	slli	s8,a6,0x13
   103fa:	fff64713          	not	a4,a2
   103fe:	00285c93          	srli	s9,a6,0x2
   10402:	01e81313          	slli	t1,a6,0x1e
   10406:	00d85693          	srli	a3,a6,0xd
   1040a:	0186e6b3          	or	a3,a3,s8
   1040e:	01367bb3          	and	s7,a2,s3
   10412:	01efc533          	xor	a0,t6,t5
   10416:	01277733          	and	a4,a4,s2
   1041a:	00a81893          	slli	a7,a6,0xa
   1041e:	01685293          	srli	t0,a6,0x16
   10422:	9d72                	add	s10,s10,t3
   10424:	006ce333          	or	t1,s9,t1
   10428:	9d2e                	add	s10,s10,a1
   1042a:	01effc33          	and	s8,t6,t5
   1042e:	01057533          	and	a0,a0,a6
   10432:	01774733          	xor	a4,a4,s7
   10436:	00d346b3          	xor	a3,t1,a3
   1043a:	0058e8b3          	or	a7,a7,t0
   1043e:	976a                	add	a4,a4,s10
   10440:	0116c6b3          	xor	a3,a3,a7
   10444:	01854533          	xor	a0,a0,s8
   10448:	973e                	add	a4,a4,a5
   1044a:	96aa                	add	a3,a3,a0
   1044c:	0e91                	addi	t4,t4,4
   1044e:	014705b3          	add	a1,a4,s4
   10452:	87ca                	mv	a5,s2
   10454:	9736                	add	a4,a4,a3
   10456:	8a7a                	mv	s4,t5
   10458:	0491                	addi	s1,s1,4
   1045a:	f75e91e3          	bne	t4,s5,103bc <sha256_transform+0x124>
   1045e:	4d32                	lw	s10,12(sp)
   10460:	4cc2                	lw	s9,16(sp)
   10462:	4c52                	lw	s8,20(sp)
   10464:	4be2                	lw	s7,24(sp)
   10466:	4e72                	lw	t3,28(sp)
   10468:	942e                	add	s0,s0,a1
   1046a:	068b2023          	sw	s0,96(s6)
   1046e:	14c12403          	lw	s0,332(sp)
   10472:	9dca                	add	s11,s11,s2
   10474:	9d3a                	add	s10,s10,a4
   10476:	9cc2                	add	s9,s9,a6
   10478:	9c7e                	add	s8,s8,t6
   1047a:	9bfa                	add	s7,s7,t5
   1047c:	93ce                	add	t2,t2,s3
   1047e:	9e32                	add	t3,t3,a2
   10480:	05ab2823          	sw	s10,80(s6)
   10484:	059b2a23          	sw	s9,84(s6)
   10488:	058b2c23          	sw	s8,88(s6)
   1048c:	057b2e23          	sw	s7,92(s6)
   10490:	07bb2623          	sw	s11,108(s6)
   10494:	07cb2223          	sw	t3,100(s6)
   10498:	067b2423          	sw	t2,104(s6)
   1049c:	14812483          	lw	s1,328(sp)
   104a0:	14412903          	lw	s2,324(sp)
   104a4:	14012983          	lw	s3,320(sp)
   104a8:	13c12a03          	lw	s4,316(sp)
   104ac:	13812a83          	lw	s5,312(sp)
   104b0:	13412b03          	lw	s6,308(sp)
   104b4:	13012b83          	lw	s7,304(sp)
   104b8:	12c12c03          	lw	s8,300(sp)
   104bc:	12812c83          	lw	s9,296(sp)
   104c0:	12412d03          	lw	s10,292(sp)
   104c4:	12012d83          	lw	s11,288(sp)
   104c8:	6171                	addi	sp,sp,336
   104ca:	8082                	ret

000104cc <sha256_init>:
   104cc:	6a09e337          	lui	t1,0x6a09e
   104d0:	bb67b8b7          	lui	a7,0xbb67b
   104d4:	3c6ef837          	lui	a6,0x3c6ef
   104d8:	a54ff5b7          	lui	a1,0xa54ff
   104dc:	510e5637          	lui	a2,0x510e5
   104e0:	9b0576b7          	lui	a3,0x9b057
   104e4:	1f83e737          	lui	a4,0x1f83e
   104e8:	5be0d7b7          	lui	a5,0x5be0d
   104ec:	66730313          	addi	t1,t1,1639 # 6a09e667 <__BSS_END__+0x6a082c0b>
   104f0:	e8588893          	addi	a7,a7,-379 # bb67ae85 <__BSS_END__+0xbb65f429>
   104f4:	37280813          	addi	a6,a6,882 # 3c6ef372 <__BSS_END__+0x3c6d3916>
   104f8:	53a58593          	addi	a1,a1,1338 # a54ff53a <__BSS_END__+0xa54e3ade>
   104fc:	27f60613          	addi	a2,a2,639 # 510e527f <__BSS_END__+0x510c9823>
   10500:	88c68693          	addi	a3,a3,-1908 # 9b05688c <__BSS_END__+0x9b03ae30>
   10504:	9ab70713          	addi	a4,a4,-1621 # 1f83d9ab <__BSS_END__+0x1f821f4f>
   10508:	d1978793          	addi	a5,a5,-743 # 5be0cd19 <__BSS_END__+0x5bdf12bd>
   1050c:	4e01                	li	t3,0
   1050e:	4e81                	li	t4,0
   10510:	04052023          	sw	zero,64(a0)
   10514:	05c52423          	sw	t3,72(a0)
   10518:	05d52623          	sw	t4,76(a0)
   1051c:	04652823          	sw	t1,80(a0)
   10520:	05152a23          	sw	a7,84(a0)
   10524:	05052c23          	sw	a6,88(a0)
   10528:	cd6c                	sw	a1,92(a0)
   1052a:	d130                	sw	a2,96(a0)
   1052c:	d174                	sw	a3,100(a0)
   1052e:	d538                	sw	a4,104(a0)
   10530:	d57c                	sw	a5,108(a0)
   10532:	8082                	ret

00010534 <sha256_update>:
   10534:	c625                	beqz	a2,1059c <sha256_update+0x68>
   10536:	1101                	addi	sp,sp,-32
   10538:	cc22                	sw	s0,24(sp)
   1053a:	ca26                	sw	s1,20(sp)
   1053c:	c84a                	sw	s2,16(sp)
   1053e:	c64e                	sw	s3,12(sp)
   10540:	ce06                	sw	ra,28(sp)
   10542:	842a                	mv	s0,a0
   10544:	84ae                	mv	s1,a1
   10546:	00c58933          	add	s2,a1,a2
   1054a:	04000993          	li	s3,64
   1054e:	a021                	j	10556 <sha256_update+0x22>
   10550:	0485                	addi	s1,s1,1
   10552:	03248e63          	beq	s1,s2,1058e <sha256_update+0x5a>
   10556:	403c                	lw	a5,64(s0)
   10558:	0004c683          	lbu	a3,0(s1)
   1055c:	00f40733          	add	a4,s0,a5
   10560:	00d70023          	sb	a3,0(a4)
   10564:	0785                	addi	a5,a5,1
   10566:	c03c                	sw	a5,64(s0)
   10568:	ff3794e3          	bne	a5,s3,10550 <sha256_update+0x1c>
   1056c:	85a2                	mv	a1,s0
   1056e:	8522                	mv	a0,s0
   10570:	3325                	jal	10298 <sha256_transform>
   10572:	443c                	lw	a5,72(s0)
   10574:	4474                	lw	a3,76(s0)
   10576:	04042023          	sw	zero,64(s0)
   1057a:	20078713          	addi	a4,a5,512
   1057e:	00f737b3          	sltu	a5,a4,a5
   10582:	97b6                	add	a5,a5,a3
   10584:	c438                	sw	a4,72(s0)
   10586:	c47c                	sw	a5,76(s0)
   10588:	0485                	addi	s1,s1,1
   1058a:	fd2496e3          	bne	s1,s2,10556 <sha256_update+0x22>
   1058e:	40f2                	lw	ra,28(sp)
   10590:	4462                	lw	s0,24(sp)
   10592:	44d2                	lw	s1,20(sp)
   10594:	4942                	lw	s2,16(sp)
   10596:	49b2                	lw	s3,12(sp)
   10598:	6105                	addi	sp,sp,32
   1059a:	8082                	ret
   1059c:	8082                	ret

0001059e <sha256_final>:
   1059e:	1141                	addi	sp,sp,-16
   105a0:	c04a                	sw	s2,0(sp)
   105a2:	04052903          	lw	s2,64(a0)
   105a6:	c422                	sw	s0,8(sp)
   105a8:	842a                	mv	s0,a0
   105aa:	c226                	sw	s1,4(sp)
   105ac:	c606                	sw	ra,12(sp)
   105ae:	012407b3          	add	a5,s0,s2
   105b2:	f8000713          	li	a4,-128
   105b6:	03700613          	li	a2,55
   105ba:	00e78023          	sb	a4,0(a5)
   105be:	84ae                	mv	s1,a1
   105c0:	00190513          	addi	a0,s2,1
   105c4:	0f266a63          	bltu	a2,s2,106b8 <sha256_final+0x11a>
   105c8:	03800793          	li	a5,56
   105cc:	00f50863          	beq	a0,a5,105dc <sha256_final+0x3e>
   105d0:	41260633          	sub	a2,a2,s2
   105d4:	4581                	li	a1,0
   105d6:	9522                	add	a0,a0,s0
   105d8:	730000ef          	jal	10d08 <memset>
   105dc:	4430                	lw	a2,72(s0)
   105de:	447c                	lw	a5,76(s0)
   105e0:	090e                	slli	s2,s2,0x3
   105e2:	964a                	add	a2,a2,s2
   105e4:	01263933          	sltu	s2,a2,s2
   105e8:	97ca                	add	a5,a5,s2
   105ea:	0107d813          	srli	a6,a5,0x10
   105ee:	01065713          	srli	a4,a2,0x10
   105f2:	0087d513          	srli	a0,a5,0x8
   105f6:	00865593          	srli	a1,a2,0x8
   105fa:	0ff87813          	zext.b	a6,a6
   105fe:	0ff77713          	zext.b	a4,a4
   10602:	0187d693          	srli	a3,a5,0x18
   10606:	0822                	slli	a6,a6,0x8
   10608:	01865893          	srli	a7,a2,0x18
   1060c:	0ff57513          	zext.b	a0,a0
   10610:	0722                	slli	a4,a4,0x8
   10612:	0ff5f593          	zext.b	a1,a1
   10616:	0542                	slli	a0,a0,0x10
   10618:	0106e6b3          	or	a3,a3,a6
   1061c:	05c2                	slli	a1,a1,0x10
   1061e:	01176733          	or	a4,a4,a7
   10622:	01000837          	lui	a6,0x1000
   10626:	187d                	addi	a6,a6,-1 # ffffff <__BSS_END__+0xfe45a3>
   10628:	8ec9                	or	a3,a3,a0
   1062a:	8f4d                	or	a4,a4,a1
   1062c:	01879513          	slli	a0,a5,0x18
   10630:	01861593          	slli	a1,a2,0x18
   10634:	0106f6b3          	and	a3,a3,a6
   10638:	01077733          	and	a4,a4,a6
   1063c:	8ec9                	or	a3,a3,a0
   1063e:	8f4d                	or	a4,a4,a1
   10640:	c47c                	sw	a5,76(s0)
   10642:	dc14                	sw	a3,56(s0)
   10644:	85a2                	mv	a1,s0
   10646:	c430                	sw	a2,72(s0)
   10648:	dc58                	sw	a4,60(s0)
   1064a:	8522                	mv	a0,s0
   1064c:	31b1                	jal	10298 <sha256_transform>
   1064e:	85a6                	mv	a1,s1
   10650:	47e1                	li	a5,24
   10652:	56e1                	li	a3,-8
   10654:	4838                	lw	a4,80(s0)
   10656:	0585                	addi	a1,a1,1
   10658:	00f75733          	srl	a4,a4,a5
   1065c:	fee58fa3          	sb	a4,-1(a1)
   10660:	4878                	lw	a4,84(s0)
   10662:	00f75733          	srl	a4,a4,a5
   10666:	00e581a3          	sb	a4,3(a1)
   1066a:	4c38                	lw	a4,88(s0)
   1066c:	00f75733          	srl	a4,a4,a5
   10670:	00e583a3          	sb	a4,7(a1)
   10674:	4c78                	lw	a4,92(s0)
   10676:	00f75733          	srl	a4,a4,a5
   1067a:	00e585a3          	sb	a4,11(a1)
   1067e:	5038                	lw	a4,96(s0)
   10680:	00f75733          	srl	a4,a4,a5
   10684:	00e587a3          	sb	a4,15(a1)
   10688:	5078                	lw	a4,100(s0)
   1068a:	00f75733          	srl	a4,a4,a5
   1068e:	00e589a3          	sb	a4,19(a1)
   10692:	5438                	lw	a4,104(s0)
   10694:	00f75733          	srl	a4,a4,a5
   10698:	00e58ba3          	sb	a4,23(a1)
   1069c:	5478                	lw	a4,108(s0)
   1069e:	00f75733          	srl	a4,a4,a5
   106a2:	00e58da3          	sb	a4,27(a1)
   106a6:	17e1                	addi	a5,a5,-8
   106a8:	fad796e3          	bne	a5,a3,10654 <sha256_final+0xb6>
   106ac:	40b2                	lw	ra,12(sp)
   106ae:	4422                	lw	s0,8(sp)
   106b0:	4492                	lw	s1,4(sp)
   106b2:	4902                	lw	s2,0(sp)
   106b4:	0141                	addi	sp,sp,16
   106b6:	8082                	ret
   106b8:	03f00613          	li	a2,63
   106bc:	00a66763          	bltu	a2,a0,106ca <sha256_final+0x12c>
   106c0:	41260633          	sub	a2,a2,s2
   106c4:	4581                	li	a1,0
   106c6:	9522                	add	a0,a0,s0
   106c8:	2581                	jal	10d08 <memset>
   106ca:	85a2                	mv	a1,s0
   106cc:	8522                	mv	a0,s0
   106ce:	36e9                	jal	10298 <sha256_transform>
   106d0:	03800613          	li	a2,56
   106d4:	4581                	li	a1,0
   106d6:	8522                	mv	a0,s0
   106d8:	2d05                	jal	10d08 <memset>
   106da:	b709                	j	105dc <sha256_final+0x3e>

000106dc <__fp_lock>:
   106dc:	4501                	li	a0,0
   106de:	8082                	ret

000106e0 <stdio_exit_handler>:
   106e0:	666d                	lui	a2,0x1b
   106e2:	65cd                	lui	a1,0x13
   106e4:	656d                	lui	a0,0x1b
   106e6:	01060613          	addi	a2,a2,16 # 1b010 <__sglue>
   106ea:	3f658593          	addi	a1,a1,1014 # 133f6 <_fclose_r>
   106ee:	02050513          	addi	a0,a0,32 # 1b020 <_impure_data>
   106f2:	aca9                	j	1094c <_fwalk_sglue>

000106f4 <cleanup_stdio>:
   106f4:	414c                	lw	a1,4(a0)
   106f6:	1141                	addi	sp,sp,-16
   106f8:	c422                	sw	s0,8(sp)
   106fa:	c606                	sw	ra,12(sp)
   106fc:	f5c18793          	addi	a5,gp,-164 # 1b76c <__sf>
   10700:	842a                	mv	s0,a0
   10702:	00f58463          	beq	a1,a5,1070a <cleanup_stdio+0x16>
   10706:	4f1020ef          	jal	133f6 <_fclose_r>
   1070a:	440c                	lw	a1,8(s0)
   1070c:	fc418793          	addi	a5,gp,-60 # 1b7d4 <__sf+0x68>
   10710:	00f58563          	beq	a1,a5,1071a <cleanup_stdio+0x26>
   10714:	8522                	mv	a0,s0
   10716:	4e1020ef          	jal	133f6 <_fclose_r>
   1071a:	444c                	lw	a1,12(s0)
   1071c:	02c18793          	addi	a5,gp,44 # 1b83c <__global_pointer$+0x2c>
   10720:	00f58863          	beq	a1,a5,10730 <cleanup_stdio+0x3c>
   10724:	8522                	mv	a0,s0
   10726:	4422                	lw	s0,8(sp)
   10728:	40b2                	lw	ra,12(sp)
   1072a:	0141                	addi	sp,sp,16
   1072c:	4cb0206f          	j	133f6 <_fclose_r>
   10730:	40b2                	lw	ra,12(sp)
   10732:	4422                	lw	s0,8(sp)
   10734:	0141                	addi	sp,sp,16
   10736:	8082                	ret

00010738 <__fp_unlock>:
   10738:	4501                	li	a0,0
   1073a:	8082                	ret

0001073c <global_stdio_init.part.0>:
   1073c:	1101                	addi	sp,sp,-32
   1073e:	67c1                	lui	a5,0x10
   10740:	cc22                	sw	s0,24(sp)
   10742:	6e078793          	addi	a5,a5,1760 # 106e0 <stdio_exit_handler>
   10746:	f5c18413          	addi	s0,gp,-164 # 1b76c <__sf>
   1074a:	ce06                	sw	ra,28(sp)
   1074c:	ca26                	sw	s1,20(sp)
   1074e:	c84a                	sw	s2,16(sp)
   10750:	c64e                	sw	s3,12(sp)
   10752:	c452                	sw	s4,8(sp)
   10754:	f2f1a023          	sw	a5,-224(gp) # 1b730 <__stdio_exit_handler>
   10758:	4621                	li	a2,8
   1075a:	4791                	li	a5,4
   1075c:	4581                	li	a1,0
   1075e:	fb818513          	addi	a0,gp,-72 # 1b7c8 <__sf+0x5c>
   10762:	c45c                	sw	a5,12(s0)
   10764:	00042023          	sw	zero,0(s0)
   10768:	00042223          	sw	zero,4(s0)
   1076c:	00042423          	sw	zero,8(s0)
   10770:	06042223          	sw	zero,100(s0)
   10774:	00042823          	sw	zero,16(s0)
   10778:	00042a23          	sw	zero,20(s0)
   1077c:	00042c23          	sw	zero,24(s0)
   10780:	2361                	jal	10d08 <memset>
   10782:	67c1                	lui	a5,0x10
   10784:	6a45                	lui	s4,0x11
   10786:	69c5                	lui	s3,0x11
   10788:	6945                	lui	s2,0x11
   1078a:	64c5                	lui	s1,0x11
   1078c:	a0ca0a13          	addi	s4,s4,-1524 # 10a0c <__sread>
   10790:	a4698993          	addi	s3,s3,-1466 # 10a46 <__swrite>
   10794:	a9690913          	addi	s2,s2,-1386 # 10a96 <__sseek>
   10798:	ade48493          	addi	s1,s1,-1314 # 10ade <__sclose>
   1079c:	07a5                	addi	a5,a5,9 # 10009 <exit-0x8b>
   1079e:	4621                	li	a2,8
   107a0:	4581                	li	a1,0
   107a2:	02018513          	addi	a0,gp,32 # 1b830 <__global_pointer$+0x20>
   107a6:	03442023          	sw	s4,32(s0)
   107aa:	03342223          	sw	s3,36(s0)
   107ae:	03242423          	sw	s2,40(s0)
   107b2:	d444                	sw	s1,44(s0)
   107b4:	d87c                	sw	a5,116(s0)
   107b6:	cc40                	sw	s0,28(s0)
   107b8:	06042423          	sw	zero,104(s0)
   107bc:	06042623          	sw	zero,108(s0)
   107c0:	06042823          	sw	zero,112(s0)
   107c4:	0c042623          	sw	zero,204(s0)
   107c8:	06042c23          	sw	zero,120(s0)
   107cc:	06042e23          	sw	zero,124(s0)
   107d0:	08042023          	sw	zero,128(s0)
   107d4:	2b15                	jal	10d08 <memset>
   107d6:	000207b7          	lui	a5,0x20
   107da:	07c9                	addi	a5,a5,18 # 20012 <__BSS_END__+0x45b6>
   107dc:	fc418713          	addi	a4,gp,-60 # 1b7d4 <__sf+0x68>
   107e0:	4621                	li	a2,8
   107e2:	4581                	li	a1,0
   107e4:	08818513          	addi	a0,gp,136 # 1b898 <__global_pointer$+0x88>
   107e8:	09442423          	sw	s4,136(s0)
   107ec:	09342623          	sw	s3,140(s0)
   107f0:	09242823          	sw	s2,144(s0)
   107f4:	08942a23          	sw	s1,148(s0)
   107f8:	0cf42e23          	sw	a5,220(s0)
   107fc:	08e42223          	sw	a4,132(s0)
   10800:	0c042823          	sw	zero,208(s0)
   10804:	0c042a23          	sw	zero,212(s0)
   10808:	0c042c23          	sw	zero,216(s0)
   1080c:	12042a23          	sw	zero,308(s0)
   10810:	0e042023          	sw	zero,224(s0)
   10814:	0e042223          	sw	zero,228(s0)
   10818:	0e042423          	sw	zero,232(s0)
   1081c:	21f5                	jal	10d08 <memset>
   1081e:	02c18793          	addi	a5,gp,44 # 1b83c <__global_pointer$+0x2c>
   10822:	0f442823          	sw	s4,240(s0)
   10826:	0f342a23          	sw	s3,244(s0)
   1082a:	0f242c23          	sw	s2,248(s0)
   1082e:	0e942e23          	sw	s1,252(s0)
   10832:	40f2                	lw	ra,28(sp)
   10834:	0ef42623          	sw	a5,236(s0)
   10838:	4462                	lw	s0,24(sp)
   1083a:	44d2                	lw	s1,20(sp)
   1083c:	4942                	lw	s2,16(sp)
   1083e:	49b2                	lw	s3,12(sp)
   10840:	4a22                	lw	s4,8(sp)
   10842:	6105                	addi	sp,sp,32
   10844:	8082                	ret

00010846 <__sfp>:
   10846:	f201a783          	lw	a5,-224(gp) # 1b730 <__stdio_exit_handler>
   1084a:	1101                	addi	sp,sp,-32
   1084c:	c64e                	sw	s3,12(sp)
   1084e:	ce06                	sw	ra,28(sp)
   10850:	cc22                	sw	s0,24(sp)
   10852:	ca26                	sw	s1,20(sp)
   10854:	c84a                	sw	s2,16(sp)
   10856:	89aa                	mv	s3,a0
   10858:	c7cd                	beqz	a5,10902 <__sfp+0xbc>
   1085a:	696d                	lui	s2,0x1b
   1085c:	01090913          	addi	s2,s2,16 # 1b010 <__sglue>
   10860:	54fd                	li	s1,-1
   10862:	00492783          	lw	a5,4(s2)
   10866:	00892403          	lw	s0,8(s2)
   1086a:	17fd                	addi	a5,a5,-1
   1086c:	0007d763          	bgez	a5,1087a <__sfp+0x34>
   10870:	a8b9                	j	108ce <__sfp+0x88>
   10872:	06840413          	addi	s0,s0,104
   10876:	04978c63          	beq	a5,s1,108ce <__sfp+0x88>
   1087a:	00c41703          	lh	a4,12(s0)
   1087e:	17fd                	addi	a5,a5,-1
   10880:	fb6d                	bnez	a4,10872 <__sfp+0x2c>
   10882:	77c1                	lui	a5,0xffff0
   10884:	0785                	addi	a5,a5,1 # ffff0001 <__BSS_END__+0xfffd45a5>
   10886:	c45c                	sw	a5,12(s0)
   10888:	06042223          	sw	zero,100(s0)
   1088c:	00042023          	sw	zero,0(s0)
   10890:	00042423          	sw	zero,8(s0)
   10894:	00042223          	sw	zero,4(s0)
   10898:	00042823          	sw	zero,16(s0)
   1089c:	00042a23          	sw	zero,20(s0)
   108a0:	00042c23          	sw	zero,24(s0)
   108a4:	4621                	li	a2,8
   108a6:	4581                	li	a1,0
   108a8:	05c40513          	addi	a0,s0,92
   108ac:	29b1                	jal	10d08 <memset>
   108ae:	02042823          	sw	zero,48(s0)
   108b2:	02042a23          	sw	zero,52(s0)
   108b6:	04042223          	sw	zero,68(s0)
   108ba:	04042423          	sw	zero,72(s0)
   108be:	40f2                	lw	ra,28(sp)
   108c0:	8522                	mv	a0,s0
   108c2:	4462                	lw	s0,24(sp)
   108c4:	44d2                	lw	s1,20(sp)
   108c6:	4942                	lw	s2,16(sp)
   108c8:	49b2                	lw	s3,12(sp)
   108ca:	6105                	addi	sp,sp,32
   108cc:	8082                	ret
   108ce:	00092403          	lw	s0,0(s2)
   108d2:	c019                	beqz	s0,108d8 <__sfp+0x92>
   108d4:	8922                	mv	s2,s0
   108d6:	b771                	j	10862 <__sfp+0x1c>
   108d8:	1ac00593          	li	a1,428
   108dc:	854e                	mv	a0,s3
   108de:	0ff000ef          	jal	111dc <_malloc_r>
   108e2:	842a                	mv	s0,a0
   108e4:	c10d                	beqz	a0,10906 <__sfp+0xc0>
   108e6:	0531                	addi	a0,a0,12
   108e8:	4791                	li	a5,4
   108ea:	00042023          	sw	zero,0(s0)
   108ee:	c05c                	sw	a5,4(s0)
   108f0:	c408                	sw	a0,8(s0)
   108f2:	1a000613          	li	a2,416
   108f6:	4581                	li	a1,0
   108f8:	2901                	jal	10d08 <memset>
   108fa:	00892023          	sw	s0,0(s2)
   108fe:	8922                	mv	s2,s0
   10900:	b78d                	j	10862 <__sfp+0x1c>
   10902:	3d2d                	jal	1073c <global_stdio_init.part.0>
   10904:	bf99                	j	1085a <__sfp+0x14>
   10906:	00092023          	sw	zero,0(s2)
   1090a:	47b1                	li	a5,12
   1090c:	00f9a023          	sw	a5,0(s3)
   10910:	b77d                	j	108be <__sfp+0x78>

00010912 <__sinit>:
   10912:	595c                	lw	a5,52(a0)
   10914:	c391                	beqz	a5,10918 <__sinit+0x6>
   10916:	8082                	ret
   10918:	f201a703          	lw	a4,-224(gp) # 1b730 <__stdio_exit_handler>
   1091c:	67c1                	lui	a5,0x10
   1091e:	6f478793          	addi	a5,a5,1780 # 106f4 <cleanup_stdio>
   10922:	d95c                	sw	a5,52(a0)
   10924:	fb6d                	bnez	a4,10916 <__sinit+0x4>
   10926:	bd19                	j	1073c <global_stdio_init.part.0>

00010928 <__sfp_lock_acquire>:
   10928:	8082                	ret

0001092a <__sfp_lock_release>:
   1092a:	8082                	ret

0001092c <__fp_lock_all>:
   1092c:	666d                	lui	a2,0x1b
   1092e:	65c1                	lui	a1,0x10
   10930:	01060613          	addi	a2,a2,16 # 1b010 <__sglue>
   10934:	6dc58593          	addi	a1,a1,1756 # 106dc <__fp_lock>
   10938:	4501                	li	a0,0
   1093a:	a809                	j	1094c <_fwalk_sglue>

0001093c <__fp_unlock_all>:
   1093c:	666d                	lui	a2,0x1b
   1093e:	65c1                	lui	a1,0x10
   10940:	01060613          	addi	a2,a2,16 # 1b010 <__sglue>
   10944:	73858593          	addi	a1,a1,1848 # 10738 <__fp_unlock>
   10948:	4501                	li	a0,0
   1094a:	a009                	j	1094c <_fwalk_sglue>

0001094c <_fwalk_sglue>:
   1094c:	7179                	addi	sp,sp,-48
   1094e:	d04a                	sw	s2,32(sp)
   10950:	ce4e                	sw	s3,28(sp)
   10952:	cc52                	sw	s4,24(sp)
   10954:	ca56                	sw	s5,20(sp)
   10956:	c85a                	sw	s6,16(sp)
   10958:	c65e                	sw	s7,12(sp)
   1095a:	d606                	sw	ra,44(sp)
   1095c:	d422                	sw	s0,40(sp)
   1095e:	d226                	sw	s1,36(sp)
   10960:	8b2a                	mv	s6,a0
   10962:	8bae                	mv	s7,a1
   10964:	8ab2                	mv	s5,a2
   10966:	4a01                	li	s4,0
   10968:	4985                	li	s3,1
   1096a:	597d                	li	s2,-1
   1096c:	004aa483          	lw	s1,4(s5)
   10970:	008aa403          	lw	s0,8(s5)
   10974:	14fd                	addi	s1,s1,-1
   10976:	0204c463          	bltz	s1,1099e <_fwalk_sglue+0x52>
   1097a:	00c45783          	lhu	a5,12(s0)
   1097e:	00f9fb63          	bgeu	s3,a5,10994 <_fwalk_sglue+0x48>
   10982:	00e41783          	lh	a5,14(s0)
   10986:	85a2                	mv	a1,s0
   10988:	855a                	mv	a0,s6
   1098a:	01278563          	beq	a5,s2,10994 <_fwalk_sglue+0x48>
   1098e:	9b82                	jalr	s7
   10990:	00aa6a33          	or	s4,s4,a0
   10994:	14fd                	addi	s1,s1,-1
   10996:	06840413          	addi	s0,s0,104
   1099a:	ff2490e3          	bne	s1,s2,1097a <_fwalk_sglue+0x2e>
   1099e:	000aaa83          	lw	s5,0(s5)
   109a2:	fc0a95e3          	bnez	s5,1096c <_fwalk_sglue+0x20>
   109a6:	50b2                	lw	ra,44(sp)
   109a8:	5422                	lw	s0,40(sp)
   109aa:	5492                	lw	s1,36(sp)
   109ac:	5902                	lw	s2,32(sp)
   109ae:	49f2                	lw	s3,28(sp)
   109b0:	4ad2                	lw	s5,20(sp)
   109b2:	4b42                	lw	s6,16(sp)
   109b4:	4bb2                	lw	s7,12(sp)
   109b6:	8552                	mv	a0,s4
   109b8:	4a62                	lw	s4,24(sp)
   109ba:	6145                	addi	sp,sp,48
   109bc:	8082                	ret

000109be <_printf_r>:
   109be:	7139                	addi	sp,sp,-64
   109c0:	d432                	sw	a2,40(sp)
   109c2:	d636                	sw	a3,44(sp)
   109c4:	d83a                	sw	a4,48(sp)
   109c6:	da3e                	sw	a5,52(sp)
   109c8:	dc42                	sw	a6,56(sp)
   109ca:	de46                	sw	a7,60(sp)
   109cc:	862e                	mv	a2,a1
   109ce:	450c                	lw	a1,8(a0)
   109d0:	1034                	addi	a3,sp,40
   109d2:	ce06                	sw	ra,28(sp)
   109d4:	c636                	sw	a3,12(sp)
   109d6:	5af000ef          	jal	11784 <_vfprintf_r>
   109da:	40f2                	lw	ra,28(sp)
   109dc:	6121                	addi	sp,sp,64
   109de:	8082                	ret

000109e0 <printf>:
   109e0:	f141a303          	lw	t1,-236(gp) # 1b724 <_impure_ptr>
   109e4:	7139                	addi	sp,sp,-64
   109e6:	d432                	sw	a2,40(sp)
   109e8:	d636                	sw	a3,44(sp)
   109ea:	d22e                	sw	a1,36(sp)
   109ec:	d83a                	sw	a4,48(sp)
   109ee:	da3e                	sw	a5,52(sp)
   109f0:	dc42                	sw	a6,56(sp)
   109f2:	de46                	sw	a7,60(sp)
   109f4:	00832583          	lw	a1,8(t1)
   109f8:	1054                	addi	a3,sp,36
   109fa:	862a                	mv	a2,a0
   109fc:	851a                	mv	a0,t1
   109fe:	ce06                	sw	ra,28(sp)
   10a00:	c636                	sw	a3,12(sp)
   10a02:	583000ef          	jal	11784 <_vfprintf_r>
   10a06:	40f2                	lw	ra,28(sp)
   10a08:	6121                	addi	sp,sp,64
   10a0a:	8082                	ret

00010a0c <__sread>:
   10a0c:	1141                	addi	sp,sp,-16
   10a0e:	c422                	sw	s0,8(sp)
   10a10:	842e                	mv	s0,a1
   10a12:	00e59583          	lh	a1,14(a1)
   10a16:	c606                	sw	ra,12(sp)
   10a18:	2439                	jal	10c26 <_read_r>
   10a1a:	00054963          	bltz	a0,10a2c <__sread+0x20>
   10a1e:	483c                	lw	a5,80(s0)
   10a20:	40b2                	lw	ra,12(sp)
   10a22:	97aa                	add	a5,a5,a0
   10a24:	c83c                	sw	a5,80(s0)
   10a26:	4422                	lw	s0,8(sp)
   10a28:	0141                	addi	sp,sp,16
   10a2a:	8082                	ret
   10a2c:	00c45783          	lhu	a5,12(s0)
   10a30:	777d                	lui	a4,0xfffff
   10a32:	177d                	addi	a4,a4,-1 # ffffefff <__BSS_END__+0xfffe35a3>
   10a34:	8ff9                	and	a5,a5,a4
   10a36:	40b2                	lw	ra,12(sp)
   10a38:	00f41623          	sh	a5,12(s0)
   10a3c:	4422                	lw	s0,8(sp)
   10a3e:	0141                	addi	sp,sp,16
   10a40:	8082                	ret

00010a42 <__seofread>:
   10a42:	4501                	li	a0,0
   10a44:	8082                	ret

00010a46 <__swrite>:
   10a46:	00c59783          	lh	a5,12(a1)
   10a4a:	1101                	addi	sp,sp,-32
   10a4c:	cc22                	sw	s0,24(sp)
   10a4e:	ca26                	sw	s1,20(sp)
   10a50:	c84a                	sw	s2,16(sp)
   10a52:	c64e                	sw	s3,12(sp)
   10a54:	ce06                	sw	ra,28(sp)
   10a56:	1007f713          	andi	a4,a5,256
   10a5a:	842e                	mv	s0,a1
   10a5c:	84aa                	mv	s1,a0
   10a5e:	8932                	mv	s2,a2
   10a60:	89b6                	mv	s3,a3
   10a62:	e315                	bnez	a4,10a86 <__swrite+0x40>
   10a64:	777d                	lui	a4,0xfffff
   10a66:	177d                	addi	a4,a4,-1 # ffffefff <__BSS_END__+0xfffe35a3>
   10a68:	8ff9                	and	a5,a5,a4
   10a6a:	00e41583          	lh	a1,14(s0)
   10a6e:	00f41623          	sh	a5,12(s0)
   10a72:	4462                	lw	s0,24(sp)
   10a74:	40f2                	lw	ra,28(sp)
   10a76:	86ce                	mv	a3,s3
   10a78:	864a                	mv	a2,s2
   10a7a:	49b2                	lw	s3,12(sp)
   10a7c:	4942                	lw	s2,16(sp)
   10a7e:	8526                	mv	a0,s1
   10a80:	44d2                	lw	s1,20(sp)
   10a82:	6105                	addi	sp,sp,32
   10a84:	aaf9                	j	10c62 <_write_r>
   10a86:	00e59583          	lh	a1,14(a1)
   10a8a:	4689                	li	a3,2
   10a8c:	4601                	li	a2,0
   10a8e:	2ab1                	jal	10bea <_lseek_r>
   10a90:	00c41783          	lh	a5,12(s0)
   10a94:	bfc1                	j	10a64 <__swrite+0x1e>

00010a96 <__sseek>:
   10a96:	1141                	addi	sp,sp,-16
   10a98:	c422                	sw	s0,8(sp)
   10a9a:	842e                	mv	s0,a1
   10a9c:	00e59583          	lh	a1,14(a1)
   10aa0:	c606                	sw	ra,12(sp)
   10aa2:	22a1                	jal	10bea <_lseek_r>
   10aa4:	57fd                	li	a5,-1
   10aa6:	00f50f63          	beq	a0,a5,10ac4 <__sseek+0x2e>
   10aaa:	00c45783          	lhu	a5,12(s0)
   10aae:	6705                	lui	a4,0x1
   10ab0:	40b2                	lw	ra,12(sp)
   10ab2:	8fd9                	or	a5,a5,a4
   10ab4:	07c2                	slli	a5,a5,0x10
   10ab6:	87c1                	srai	a5,a5,0x10
   10ab8:	c828                	sw	a0,80(s0)
   10aba:	00f41623          	sh	a5,12(s0)
   10abe:	4422                	lw	s0,8(sp)
   10ac0:	0141                	addi	sp,sp,16
   10ac2:	8082                	ret
   10ac4:	00c45783          	lhu	a5,12(s0)
   10ac8:	777d                	lui	a4,0xfffff
   10aca:	177d                	addi	a4,a4,-1 # ffffefff <__BSS_END__+0xfffe35a3>
   10acc:	8ff9                	and	a5,a5,a4
   10ace:	07c2                	slli	a5,a5,0x10
   10ad0:	87c1                	srai	a5,a5,0x10
   10ad2:	40b2                	lw	ra,12(sp)
   10ad4:	00f41623          	sh	a5,12(s0)
   10ad8:	4422                	lw	s0,8(sp)
   10ada:	0141                	addi	sp,sp,16
   10adc:	8082                	ret

00010ade <__sclose>:
   10ade:	00e59583          	lh	a1,14(a1)
   10ae2:	a899                	j	10b38 <_close_r>

00010ae4 <memcmp>:
   10ae4:	478d                	li	a5,3
   10ae6:	02c7f463          	bgeu	a5,a2,10b0e <memcmp+0x2a>
   10aea:	00a5e7b3          	or	a5,a1,a0
   10aee:	8b8d                	andi	a5,a5,3
   10af0:	ef81                	bnez	a5,10b08 <memcmp+0x24>
   10af2:	468d                	li	a3,3
   10af4:	a031                	j	10b00 <memcmp+0x1c>
   10af6:	1671                	addi	a2,a2,-4
   10af8:	0511                	addi	a0,a0,4
   10afa:	0591                	addi	a1,a1,4
   10afc:	00c6f963          	bgeu	a3,a2,10b0e <memcmp+0x2a>
   10b00:	4118                	lw	a4,0(a0)
   10b02:	419c                	lw	a5,0(a1)
   10b04:	fef709e3          	beq	a4,a5,10af6 <memcmp+0x12>
   10b08:	fff60693          	addi	a3,a2,-1
   10b0c:	a021                	j	10b14 <memcmp+0x30>
   10b0e:	fff60693          	addi	a3,a2,-1
   10b12:	c20d                	beqz	a2,10b34 <memcmp+0x50>
   10b14:	0685                	addi	a3,a3,1
   10b16:	96aa                	add	a3,a3,a0
   10b18:	a019                	j	10b1e <memcmp+0x3a>
   10b1a:	00a68d63          	beq	a3,a0,10b34 <memcmp+0x50>
   10b1e:	00054783          	lbu	a5,0(a0)
   10b22:	0005c703          	lbu	a4,0(a1)
   10b26:	0505                	addi	a0,a0,1
   10b28:	0585                	addi	a1,a1,1
   10b2a:	fee788e3          	beq	a5,a4,10b1a <memcmp+0x36>
   10b2e:	40e78533          	sub	a0,a5,a4
   10b32:	8082                	ret
   10b34:	4501                	li	a0,0
   10b36:	8082                	ret

00010b38 <_close_r>:
   10b38:	1141                	addi	sp,sp,-16
   10b3a:	c422                	sw	s0,8(sp)
   10b3c:	c226                	sw	s1,4(sp)
   10b3e:	842a                	mv	s0,a0
   10b40:	852e                	mv	a0,a1
   10b42:	c606                	sw	ra,12(sp)
   10b44:	f201a223          	sw	zero,-220(gp) # 1b734 <errno>
   10b48:	74b060ef          	jal	17a92 <_close>
   10b4c:	57fd                	li	a5,-1
   10b4e:	00f50763          	beq	a0,a5,10b5c <_close_r+0x24>
   10b52:	40b2                	lw	ra,12(sp)
   10b54:	4422                	lw	s0,8(sp)
   10b56:	4492                	lw	s1,4(sp)
   10b58:	0141                	addi	sp,sp,16
   10b5a:	8082                	ret
   10b5c:	f241a783          	lw	a5,-220(gp) # 1b734 <errno>
   10b60:	dbed                	beqz	a5,10b52 <_close_r+0x1a>
   10b62:	40b2                	lw	ra,12(sp)
   10b64:	c01c                	sw	a5,0(s0)
   10b66:	4422                	lw	s0,8(sp)
   10b68:	4492                	lw	s1,4(sp)
   10b6a:	0141                	addi	sp,sp,16
   10b6c:	8082                	ret

00010b6e <_reclaim_reent>:
   10b6e:	f141a783          	lw	a5,-236(gp) # 1b724 <_impure_ptr>
   10b72:	06a78b63          	beq	a5,a0,10be8 <_reclaim_reent+0x7a>
   10b76:	416c                	lw	a1,68(a0)
   10b78:	1101                	addi	sp,sp,-32
   10b7a:	ca26                	sw	s1,20(sp)
   10b7c:	ce06                	sw	ra,28(sp)
   10b7e:	cc22                	sw	s0,24(sp)
   10b80:	84aa                	mv	s1,a0
   10b82:	c59d                	beqz	a1,10bb0 <_reclaim_reent+0x42>
   10b84:	c84a                	sw	s2,16(sp)
   10b86:	c64e                	sw	s3,12(sp)
   10b88:	4901                	li	s2,0
   10b8a:	08000993          	li	s3,128
   10b8e:	012587b3          	add	a5,a1,s2
   10b92:	4380                	lw	s0,0(a5)
   10b94:	c419                	beqz	s0,10ba2 <_reclaim_reent+0x34>
   10b96:	85a2                	mv	a1,s0
   10b98:	4000                	lw	s0,0(s0)
   10b9a:	8526                	mv	a0,s1
   10b9c:	2939                	jal	10fba <_free_r>
   10b9e:	fc65                	bnez	s0,10b96 <_reclaim_reent+0x28>
   10ba0:	40ec                	lw	a1,68(s1)
   10ba2:	0911                	addi	s2,s2,4
   10ba4:	ff3915e3          	bne	s2,s3,10b8e <_reclaim_reent+0x20>
   10ba8:	8526                	mv	a0,s1
   10baa:	2901                	jal	10fba <_free_r>
   10bac:	4942                	lw	s2,16(sp)
   10bae:	49b2                	lw	s3,12(sp)
   10bb0:	5c8c                	lw	a1,56(s1)
   10bb2:	c199                	beqz	a1,10bb8 <_reclaim_reent+0x4a>
   10bb4:	8526                	mv	a0,s1
   10bb6:	2111                	jal	10fba <_free_r>
   10bb8:	40a0                	lw	s0,64(s1)
   10bba:	c411                	beqz	s0,10bc6 <_reclaim_reent+0x58>
   10bbc:	85a2                	mv	a1,s0
   10bbe:	4000                	lw	s0,0(s0)
   10bc0:	8526                	mv	a0,s1
   10bc2:	2ee5                	jal	10fba <_free_r>
   10bc4:	fc65                	bnez	s0,10bbc <_reclaim_reent+0x4e>
   10bc6:	44ec                	lw	a1,76(s1)
   10bc8:	c199                	beqz	a1,10bce <_reclaim_reent+0x60>
   10bca:	8526                	mv	a0,s1
   10bcc:	26fd                	jal	10fba <_free_r>
   10bce:	58dc                	lw	a5,52(s1)
   10bd0:	c799                	beqz	a5,10bde <_reclaim_reent+0x70>
   10bd2:	4462                	lw	s0,24(sp)
   10bd4:	40f2                	lw	ra,28(sp)
   10bd6:	8526                	mv	a0,s1
   10bd8:	44d2                	lw	s1,20(sp)
   10bda:	6105                	addi	sp,sp,32
   10bdc:	8782                	jr	a5
   10bde:	40f2                	lw	ra,28(sp)
   10be0:	4462                	lw	s0,24(sp)
   10be2:	44d2                	lw	s1,20(sp)
   10be4:	6105                	addi	sp,sp,32
   10be6:	8082                	ret
   10be8:	8082                	ret

00010bea <_lseek_r>:
   10bea:	1141                	addi	sp,sp,-16
   10bec:	872e                	mv	a4,a1
   10bee:	c422                	sw	s0,8(sp)
   10bf0:	c226                	sw	s1,4(sp)
   10bf2:	85b2                	mv	a1,a2
   10bf4:	842a                	mv	s0,a0
   10bf6:	8636                	mv	a2,a3
   10bf8:	853a                	mv	a0,a4
   10bfa:	c606                	sw	ra,12(sp)
   10bfc:	f201a223          	sw	zero,-220(gp) # 1b734 <errno>
   10c00:	757060ef          	jal	17b56 <_lseek>
   10c04:	57fd                	li	a5,-1
   10c06:	00f50763          	beq	a0,a5,10c14 <_lseek_r+0x2a>
   10c0a:	40b2                	lw	ra,12(sp)
   10c0c:	4422                	lw	s0,8(sp)
   10c0e:	4492                	lw	s1,4(sp)
   10c10:	0141                	addi	sp,sp,16
   10c12:	8082                	ret
   10c14:	f241a783          	lw	a5,-220(gp) # 1b734 <errno>
   10c18:	dbed                	beqz	a5,10c0a <_lseek_r+0x20>
   10c1a:	40b2                	lw	ra,12(sp)
   10c1c:	c01c                	sw	a5,0(s0)
   10c1e:	4422                	lw	s0,8(sp)
   10c20:	4492                	lw	s1,4(sp)
   10c22:	0141                	addi	sp,sp,16
   10c24:	8082                	ret

00010c26 <_read_r>:
   10c26:	1141                	addi	sp,sp,-16
   10c28:	872e                	mv	a4,a1
   10c2a:	c422                	sw	s0,8(sp)
   10c2c:	c226                	sw	s1,4(sp)
   10c2e:	85b2                	mv	a1,a2
   10c30:	842a                	mv	s0,a0
   10c32:	8636                	mv	a2,a3
   10c34:	853a                	mv	a0,a4
   10c36:	c606                	sw	ra,12(sp)
   10c38:	f201a223          	sw	zero,-220(gp) # 1b734 <errno>
   10c3c:	747060ef          	jal	17b82 <_read>
   10c40:	57fd                	li	a5,-1
   10c42:	00f50763          	beq	a0,a5,10c50 <_read_r+0x2a>
   10c46:	40b2                	lw	ra,12(sp)
   10c48:	4422                	lw	s0,8(sp)
   10c4a:	4492                	lw	s1,4(sp)
   10c4c:	0141                	addi	sp,sp,16
   10c4e:	8082                	ret
   10c50:	f241a783          	lw	a5,-220(gp) # 1b734 <errno>
   10c54:	dbed                	beqz	a5,10c46 <_read_r+0x20>
   10c56:	40b2                	lw	ra,12(sp)
   10c58:	c01c                	sw	a5,0(s0)
   10c5a:	4422                	lw	s0,8(sp)
   10c5c:	4492                	lw	s1,4(sp)
   10c5e:	0141                	addi	sp,sp,16
   10c60:	8082                	ret

00010c62 <_write_r>:
   10c62:	1141                	addi	sp,sp,-16
   10c64:	872e                	mv	a4,a1
   10c66:	c422                	sw	s0,8(sp)
   10c68:	c226                	sw	s1,4(sp)
   10c6a:	85b2                	mv	a1,a2
   10c6c:	842a                	mv	s0,a0
   10c6e:	8636                	mv	a2,a3
   10c70:	853a                	mv	a0,a4
   10c72:	c606                	sw	ra,12(sp)
   10c74:	f201a223          	sw	zero,-220(gp) # 1b734 <errno>
   10c78:	78b060ef          	jal	17c02 <_write>
   10c7c:	57fd                	li	a5,-1
   10c7e:	00f50763          	beq	a0,a5,10c8c <_write_r+0x2a>
   10c82:	40b2                	lw	ra,12(sp)
   10c84:	4422                	lw	s0,8(sp)
   10c86:	4492                	lw	s1,4(sp)
   10c88:	0141                	addi	sp,sp,16
   10c8a:	8082                	ret
   10c8c:	f241a783          	lw	a5,-220(gp) # 1b734 <errno>
   10c90:	dbed                	beqz	a5,10c82 <_write_r+0x20>
   10c92:	40b2                	lw	ra,12(sp)
   10c94:	c01c                	sw	a5,0(s0)
   10c96:	4422                	lw	s0,8(sp)
   10c98:	4492                	lw	s1,4(sp)
   10c9a:	0141                	addi	sp,sp,16
   10c9c:	8082                	ret

00010c9e <__libc_init_array>:
   10c9e:	1141                	addi	sp,sp,-16
   10ca0:	c422                	sw	s0,8(sp)
   10ca2:	67ed                	lui	a5,0x1b
   10ca4:	646d                	lui	s0,0x1b
   10ca6:	c04a                	sw	s2,0(sp)
   10ca8:	00478793          	addi	a5,a5,4 # 1b004 <__init_array_start>
   10cac:	00440713          	addi	a4,s0,4 # 1b004 <__init_array_start>
   10cb0:	c606                	sw	ra,12(sp)
   10cb2:	c226                	sw	s1,4(sp)
   10cb4:	40e78933          	sub	s2,a5,a4
   10cb8:	00e78d63          	beq	a5,a4,10cd2 <__libc_init_array+0x34>
   10cbc:	40295913          	srai	s2,s2,0x2
   10cc0:	00440413          	addi	s0,s0,4
   10cc4:	4481                	li	s1,0
   10cc6:	401c                	lw	a5,0(s0)
   10cc8:	0485                	addi	s1,s1,1
   10cca:	0411                	addi	s0,s0,4
   10ccc:	9782                	jalr	a5
   10cce:	ff24ece3          	bltu	s1,s2,10cc6 <__libc_init_array+0x28>
   10cd2:	646d                	lui	s0,0x1b
   10cd4:	67ed                	lui	a5,0x1b
   10cd6:	00c78793          	addi	a5,a5,12 # 1b00c <__do_global_dtors_aux_fini_array_entry>
   10cda:	00440713          	addi	a4,s0,4 # 1b004 <__init_array_start>
   10cde:	40e78933          	sub	s2,a5,a4
   10ce2:	40295913          	srai	s2,s2,0x2
   10ce6:	00e78b63          	beq	a5,a4,10cfc <__libc_init_array+0x5e>
   10cea:	00440413          	addi	s0,s0,4
   10cee:	4481                	li	s1,0
   10cf0:	401c                	lw	a5,0(s0)
   10cf2:	0485                	addi	s1,s1,1
   10cf4:	0411                	addi	s0,s0,4
   10cf6:	9782                	jalr	a5
   10cf8:	ff24ece3          	bltu	s1,s2,10cf0 <__libc_init_array+0x52>
   10cfc:	40b2                	lw	ra,12(sp)
   10cfe:	4422                	lw	s0,8(sp)
   10d00:	4492                	lw	s1,4(sp)
   10d02:	4902                	lw	s2,0(sp)
   10d04:	0141                	addi	sp,sp,16
   10d06:	8082                	ret

00010d08 <memset>:
   10d08:	433d                	li	t1,15
   10d0a:	872a                	mv	a4,a0
   10d0c:	02c37363          	bgeu	t1,a2,10d32 <memset+0x2a>
   10d10:	00f77793          	andi	a5,a4,15
   10d14:	efbd                	bnez	a5,10d92 <memset+0x8a>
   10d16:	e5ad                	bnez	a1,10d80 <memset+0x78>
   10d18:	ff067693          	andi	a3,a2,-16
   10d1c:	8a3d                	andi	a2,a2,15
   10d1e:	96ba                	add	a3,a3,a4
   10d20:	c30c                	sw	a1,0(a4)
   10d22:	c34c                	sw	a1,4(a4)
   10d24:	c70c                	sw	a1,8(a4)
   10d26:	c74c                	sw	a1,12(a4)
   10d28:	0741                	addi	a4,a4,16
   10d2a:	fed76be3          	bltu	a4,a3,10d20 <memset+0x18>
   10d2e:	e211                	bnez	a2,10d32 <memset+0x2a>
   10d30:	8082                	ret
   10d32:	40c306b3          	sub	a3,t1,a2
   10d36:	068a                	slli	a3,a3,0x2
   10d38:	00000297          	auipc	t0,0x0
   10d3c:	9696                	add	a3,a3,t0
   10d3e:	00a68067          	jr	10(a3)
   10d42:	00b70723          	sb	a1,14(a4)
   10d46:	00b706a3          	sb	a1,13(a4)
   10d4a:	00b70623          	sb	a1,12(a4)
   10d4e:	00b705a3          	sb	a1,11(a4)
   10d52:	00b70523          	sb	a1,10(a4)
   10d56:	00b704a3          	sb	a1,9(a4)
   10d5a:	00b70423          	sb	a1,8(a4)
   10d5e:	00b703a3          	sb	a1,7(a4)
   10d62:	00b70323          	sb	a1,6(a4)
   10d66:	00b702a3          	sb	a1,5(a4)
   10d6a:	00b70223          	sb	a1,4(a4)
   10d6e:	00b701a3          	sb	a1,3(a4)
   10d72:	00b70123          	sb	a1,2(a4)
   10d76:	00b700a3          	sb	a1,1(a4)
   10d7a:	00b70023          	sb	a1,0(a4)
   10d7e:	8082                	ret
   10d80:	0ff5f593          	zext.b	a1,a1
   10d84:	00859693          	slli	a3,a1,0x8
   10d88:	8dd5                	or	a1,a1,a3
   10d8a:	01059693          	slli	a3,a1,0x10
   10d8e:	8dd5                	or	a1,a1,a3
   10d90:	b761                	j	10d18 <memset+0x10>
   10d92:	00279693          	slli	a3,a5,0x2
   10d96:	00000297          	auipc	t0,0x0
   10d9a:	9696                	add	a3,a3,t0
   10d9c:	8286                	mv	t0,ra
   10d9e:	fa8680e7          	jalr	-88(a3)
   10da2:	8096                	mv	ra,t0
   10da4:	17c1                	addi	a5,a5,-16
   10da6:	8f1d                	sub	a4,a4,a5
   10da8:	963e                	add	a2,a2,a5
   10daa:	f8c374e3          	bgeu	t1,a2,10d32 <memset+0x2a>
   10dae:	b7a5                	j	10d16 <memset+0xe>

00010db0 <strlen>:
   10db0:	00357793          	andi	a5,a0,3
   10db4:	872a                	mv	a4,a0
   10db6:	ef9d                	bnez	a5,10df4 <strlen+0x44>
   10db8:	7f7f86b7          	lui	a3,0x7f7f8
   10dbc:	f7f68693          	addi	a3,a3,-129 # 7f7f7f7f <__BSS_END__+0x7f7dc523>
   10dc0:	55fd                	li	a1,-1
   10dc2:	4310                	lw	a2,0(a4)
   10dc4:	0711                	addi	a4,a4,4
   10dc6:	00d677b3          	and	a5,a2,a3
   10dca:	97b6                	add	a5,a5,a3
   10dcc:	8fd1                	or	a5,a5,a2
   10dce:	8fd5                	or	a5,a5,a3
   10dd0:	feb789e3          	beq	a5,a1,10dc2 <strlen+0x12>
   10dd4:	ffc74683          	lbu	a3,-4(a4)
   10dd8:	40a707b3          	sub	a5,a4,a0
   10ddc:	ca8d                	beqz	a3,10e0e <strlen+0x5e>
   10dde:	ffd74683          	lbu	a3,-3(a4)
   10de2:	c29d                	beqz	a3,10e08 <strlen+0x58>
   10de4:	ffe74503          	lbu	a0,-2(a4)
   10de8:	00a03533          	snez	a0,a0
   10dec:	953e                	add	a0,a0,a5
   10dee:	1579                	addi	a0,a0,-2
   10df0:	8082                	ret
   10df2:	d2f9                	beqz	a3,10db8 <strlen+0x8>
   10df4:	00074783          	lbu	a5,0(a4)
   10df8:	0705                	addi	a4,a4,1
   10dfa:	00377693          	andi	a3,a4,3
   10dfe:	fbf5                	bnez	a5,10df2 <strlen+0x42>
   10e00:	8f09                	sub	a4,a4,a0
   10e02:	fff70513          	addi	a0,a4,-1
   10e06:	8082                	ret
   10e08:	ffd78513          	addi	a0,a5,-3
   10e0c:	8082                	ret
   10e0e:	ffc78513          	addi	a0,a5,-4
   10e12:	8082                	ret

00010e14 <__call_exitprocs>:
   10e14:	7179                	addi	sp,sp,-48
   10e16:	cc52                	sw	s4,24(sp)
   10e18:	d04a                	sw	s2,32(sp)
   10e1a:	f281a903          	lw	s2,-216(gp) # 1b738 <__atexit>
   10e1e:	d606                	sw	ra,44(sp)
   10e20:	06090c63          	beqz	s2,10e98 <__call_exitprocs+0x84>
   10e24:	ce4e                	sw	s3,28(sp)
   10e26:	ca56                	sw	s5,20(sp)
   10e28:	c85a                	sw	s6,16(sp)
   10e2a:	c65e                	sw	s7,12(sp)
   10e2c:	d422                	sw	s0,40(sp)
   10e2e:	d226                	sw	s1,36(sp)
   10e30:	c462                	sw	s8,8(sp)
   10e32:	8b2a                	mv	s6,a0
   10e34:	8bae                	mv	s7,a1
   10e36:	59fd                	li	s3,-1
   10e38:	4a85                	li	s5,1
   10e3a:	00492483          	lw	s1,4(s2)
   10e3e:	fff48413          	addi	s0,s1,-1
   10e42:	04044463          	bltz	s0,10e8a <__call_exitprocs+0x76>
   10e46:	048a                	slli	s1,s1,0x2
   10e48:	94ca                	add	s1,s1,s2
   10e4a:	040b9c63          	bnez	s7,10ea2 <__call_exitprocs+0x8e>
   10e4e:	00492783          	lw	a5,4(s2)
   10e52:	40d4                	lw	a3,4(s1)
   10e54:	17fd                	addi	a5,a5,-1
   10e56:	08878063          	beq	a5,s0,10ed6 <__call_exitprocs+0xc2>
   10e5a:	0004a223          	sw	zero,4(s1)
   10e5e:	c295                	beqz	a3,10e82 <__call_exitprocs+0x6e>
   10e60:	18892783          	lw	a5,392(s2)
   10e64:	008a9733          	sll	a4,s5,s0
   10e68:	00492c03          	lw	s8,4(s2)
   10e6c:	8ff9                	and	a5,a5,a4
   10e6e:	e3b9                	bnez	a5,10eb4 <__call_exitprocs+0xa0>
   10e70:	9682                	jalr	a3
   10e72:	00492703          	lw	a4,4(s2)
   10e76:	f281a783          	lw	a5,-216(gp) # 1b738 <__atexit>
   10e7a:	05871b63          	bne	a4,s8,10ed0 <__call_exitprocs+0xbc>
   10e7e:	05279963          	bne	a5,s2,10ed0 <__call_exitprocs+0xbc>
   10e82:	147d                	addi	s0,s0,-1
   10e84:	14f1                	addi	s1,s1,-4
   10e86:	fd3412e3          	bne	s0,s3,10e4a <__call_exitprocs+0x36>
   10e8a:	5422                	lw	s0,40(sp)
   10e8c:	5492                	lw	s1,36(sp)
   10e8e:	49f2                	lw	s3,28(sp)
   10e90:	4ad2                	lw	s5,20(sp)
   10e92:	4b42                	lw	s6,16(sp)
   10e94:	4bb2                	lw	s7,12(sp)
   10e96:	4c22                	lw	s8,8(sp)
   10e98:	50b2                	lw	ra,44(sp)
   10e9a:	5902                	lw	s2,32(sp)
   10e9c:	4a62                	lw	s4,24(sp)
   10e9e:	6145                	addi	sp,sp,48
   10ea0:	8082                	ret
   10ea2:	1044a783          	lw	a5,260(s1)
   10ea6:	fb7784e3          	beq	a5,s7,10e4e <__call_exitprocs+0x3a>
   10eaa:	147d                	addi	s0,s0,-1
   10eac:	14f1                	addi	s1,s1,-4
   10eae:	ff341ae3          	bne	s0,s3,10ea2 <__call_exitprocs+0x8e>
   10eb2:	bfe1                	j	10e8a <__call_exitprocs+0x76>
   10eb4:	18c92783          	lw	a5,396(s2)
   10eb8:	0844a583          	lw	a1,132(s1)
   10ebc:	8f7d                	and	a4,a4,a5
   10ebe:	ef19                	bnez	a4,10edc <__call_exitprocs+0xc8>
   10ec0:	855a                	mv	a0,s6
   10ec2:	9682                	jalr	a3
   10ec4:	00492703          	lw	a4,4(s2)
   10ec8:	f281a783          	lw	a5,-216(gp) # 1b738 <__atexit>
   10ecc:	fb8709e3          	beq	a4,s8,10e7e <__call_exitprocs+0x6a>
   10ed0:	dfcd                	beqz	a5,10e8a <__call_exitprocs+0x76>
   10ed2:	893e                	mv	s2,a5
   10ed4:	b79d                	j	10e3a <__call_exitprocs+0x26>
   10ed6:	00892223          	sw	s0,4(s2)
   10eda:	b751                	j	10e5e <__call_exitprocs+0x4a>
   10edc:	852e                	mv	a0,a1
   10ede:	9682                	jalr	a3
   10ee0:	bf49                	j	10e72 <__call_exitprocs+0x5e>

00010ee2 <atexit>:
   10ee2:	85aa                	mv	a1,a0
   10ee4:	4681                	li	a3,0
   10ee6:	4601                	li	a2,0
   10ee8:	4501                	li	a0,0
   10eea:	07c0306f          	j	13f66 <__register_exitproc>

00010eee <_malloc_trim_r>:
   10eee:	1101                	addi	sp,sp,-32
   10ef0:	c64e                	sw	s3,12(sp)
   10ef2:	69ed                	lui	s3,0x1b
   10ef4:	cc22                	sw	s0,24(sp)
   10ef6:	ca26                	sw	s1,20(sp)
   10ef8:	c84a                	sw	s2,16(sp)
   10efa:	c452                	sw	s4,8(sp)
   10efc:	ce06                	sw	ra,28(sp)
   10efe:	8a2e                	mv	s4,a1
   10f00:	892a                	mv	s2,a0
   10f02:	14098993          	addi	s3,s3,320 # 1b140 <__malloc_av_>
   10f06:	07b000ef          	jal	11780 <__malloc_lock>
   10f0a:	0089a703          	lw	a4,8(s3)
   10f0e:	6785                	lui	a5,0x1
   10f10:	17bd                	addi	a5,a5,-17 # fef <exit-0xf0a5>
   10f12:	4344                	lw	s1,4(a4)
   10f14:	6705                	lui	a4,0x1
   10f16:	98f1                	andi	s1,s1,-4
   10f18:	00f48433          	add	s0,s1,a5
   10f1c:	41440433          	sub	s0,s0,s4
   10f20:	8031                	srli	s0,s0,0xc
   10f22:	147d                	addi	s0,s0,-1
   10f24:	0432                	slli	s0,s0,0xc
   10f26:	00e44b63          	blt	s0,a4,10f3c <_malloc_trim_r+0x4e>
   10f2a:	4581                	li	a1,0
   10f2c:	854a                	mv	a0,s2
   10f2e:	4cd020ef          	jal	13bfa <_sbrk_r>
   10f32:	0089a783          	lw	a5,8(s3)
   10f36:	97a6                	add	a5,a5,s1
   10f38:	00f50e63          	beq	a0,a5,10f54 <_malloc_trim_r+0x66>
   10f3c:	854a                	mv	a0,s2
   10f3e:	045000ef          	jal	11782 <__malloc_unlock>
   10f42:	40f2                	lw	ra,28(sp)
   10f44:	4462                	lw	s0,24(sp)
   10f46:	44d2                	lw	s1,20(sp)
   10f48:	4942                	lw	s2,16(sp)
   10f4a:	49b2                	lw	s3,12(sp)
   10f4c:	4a22                	lw	s4,8(sp)
   10f4e:	4501                	li	a0,0
   10f50:	6105                	addi	sp,sp,32
   10f52:	8082                	ret
   10f54:	408005b3          	neg	a1,s0
   10f58:	854a                	mv	a0,s2
   10f5a:	4a1020ef          	jal	13bfa <_sbrk_r>
   10f5e:	57fd                	li	a5,-1
   10f60:	02f50963          	beq	a0,a5,10f92 <_malloc_trim_r+0xa4>
   10f64:	09418793          	addi	a5,gp,148 # 1b8a4 <__malloc_current_mallinfo>
   10f68:	4398                	lw	a4,0(a5)
   10f6a:	0089a683          	lw	a3,8(s3)
   10f6e:	8c81                	sub	s1,s1,s0
   10f70:	0014e493          	ori	s1,s1,1
   10f74:	8f01                	sub	a4,a4,s0
   10f76:	854a                	mv	a0,s2
   10f78:	c2c4                	sw	s1,4(a3)
   10f7a:	c398                	sw	a4,0(a5)
   10f7c:	007000ef          	jal	11782 <__malloc_unlock>
   10f80:	40f2                	lw	ra,28(sp)
   10f82:	4462                	lw	s0,24(sp)
   10f84:	44d2                	lw	s1,20(sp)
   10f86:	4942                	lw	s2,16(sp)
   10f88:	49b2                	lw	s3,12(sp)
   10f8a:	4a22                	lw	s4,8(sp)
   10f8c:	4505                	li	a0,1
   10f8e:	6105                	addi	sp,sp,32
   10f90:	8082                	ret
   10f92:	4581                	li	a1,0
   10f94:	854a                	mv	a0,s2
   10f96:	465020ef          	jal	13bfa <_sbrk_r>
   10f9a:	0089a703          	lw	a4,8(s3)
   10f9e:	46bd                	li	a3,15
   10fa0:	40e507b3          	sub	a5,a0,a4
   10fa4:	f8f6dce3          	bge	a3,a5,10f3c <_malloc_trim_r+0x4e>
   10fa8:	f181a683          	lw	a3,-232(gp) # 1b728 <__malloc_sbrk_base>
   10fac:	0017e793          	ori	a5,a5,1
   10fb0:	c35c                	sw	a5,4(a4)
   10fb2:	8d15                	sub	a0,a0,a3
   10fb4:	08a1aa23          	sw	a0,148(gp) # 1b8a4 <__malloc_current_mallinfo>
   10fb8:	b751                	j	10f3c <_malloc_trim_r+0x4e>

00010fba <_free_r>:
   10fba:	10058a63          	beqz	a1,110ce <_free_r+0x114>
   10fbe:	1141                	addi	sp,sp,-16
   10fc0:	c422                	sw	s0,8(sp)
   10fc2:	c226                	sw	s1,4(sp)
   10fc4:	842e                	mv	s0,a1
   10fc6:	84aa                	mv	s1,a0
   10fc8:	c606                	sw	ra,12(sp)
   10fca:	7b6000ef          	jal	11780 <__malloc_lock>
   10fce:	ffc42503          	lw	a0,-4(s0)
   10fd2:	ff840713          	addi	a4,s0,-8
   10fd6:	65ed                	lui	a1,0x1b
   10fd8:	ffe57793          	andi	a5,a0,-2
   10fdc:	00f70633          	add	a2,a4,a5
   10fe0:	14058593          	addi	a1,a1,320 # 1b140 <__malloc_av_>
   10fe4:	4254                	lw	a3,4(a2)
   10fe6:	0085a803          	lw	a6,8(a1)
   10fea:	9af1                	andi	a3,a3,-4
   10fec:	12c80363          	beq	a6,a2,11112 <_free_r+0x158>
   10ff0:	c254                	sw	a3,4(a2)
   10ff2:	8905                	andi	a0,a0,1
   10ff4:	00d60833          	add	a6,a2,a3
   10ff8:	e935                	bnez	a0,1106c <_free_r+0xb2>
   10ffa:	ff842303          	lw	t1,-8(s0)
   10ffe:	00482803          	lw	a6,4(a6)
   11002:	656d                	lui	a0,0x1b
   11004:	40670733          	sub	a4,a4,t1
   11008:	00872883          	lw	a7,8(a4) # 1008 <exit-0xf08c>
   1100c:	14850513          	addi	a0,a0,328 # 1b148 <__malloc_av_+0x8>
   11010:	979a                	add	a5,a5,t1
   11012:	00187813          	andi	a6,a6,1
   11016:	0ea88163          	beq	a7,a0,110f8 <_free_r+0x13e>
   1101a:	00c72303          	lw	t1,12(a4)
   1101e:	0068a623          	sw	t1,12(a7)
   11022:	01132423          	sw	a7,8(t1)
   11026:	10080e63          	beqz	a6,11142 <_free_r+0x188>
   1102a:	0017e693          	ori	a3,a5,1
   1102e:	c354                	sw	a3,4(a4)
   11030:	c21c                	sw	a5,0(a2)
   11032:	1ff00693          	li	a3,511
   11036:	04f6e863          	bltu	a3,a5,11086 <_free_r+0xcc>
   1103a:	ff87f693          	andi	a3,a5,-8
   1103e:	06a1                	addi	a3,a3,8
   11040:	41c8                	lw	a0,4(a1)
   11042:	96ae                	add	a3,a3,a1
   11044:	4290                	lw	a2,0(a3)
   11046:	0057d813          	srli	a6,a5,0x5
   1104a:	4785                	li	a5,1
   1104c:	010797b3          	sll	a5,a5,a6
   11050:	8fc9                	or	a5,a5,a0
   11052:	ff868513          	addi	a0,a3,-8
   11056:	c748                	sw	a0,12(a4)
   11058:	c710                	sw	a2,8(a4)
   1105a:	c1dc                	sw	a5,4(a1)
   1105c:	c298                	sw	a4,0(a3)
   1105e:	c658                	sw	a4,12(a2)
   11060:	4422                	lw	s0,8(sp)
   11062:	40b2                	lw	ra,12(sp)
   11064:	8526                	mv	a0,s1
   11066:	4492                	lw	s1,4(sp)
   11068:	0141                	addi	sp,sp,16
   1106a:	af21                	j	11782 <__malloc_unlock>
   1106c:	00482503          	lw	a0,4(a6)
   11070:	8905                	andi	a0,a0,1
   11072:	cd39                	beqz	a0,110d0 <_free_r+0x116>
   11074:	0017e693          	ori	a3,a5,1
   11078:	fed42e23          	sw	a3,-4(s0)
   1107c:	c21c                	sw	a5,0(a2)
   1107e:	1ff00693          	li	a3,511
   11082:	faf6fce3          	bgeu	a3,a5,1103a <_free_r+0x80>
   11086:	0097d693          	srli	a3,a5,0x9
   1108a:	4611                	li	a2,4
   1108c:	0ad66d63          	bltu	a2,a3,11146 <_free_r+0x18c>
   11090:	0067d693          	srli	a3,a5,0x6
   11094:	03968513          	addi	a0,a3,57
   11098:	03868613          	addi	a2,a3,56
   1109c:	050e                	slli	a0,a0,0x3
   1109e:	952e                	add	a0,a0,a1
   110a0:	4114                	lw	a3,0(a0)
   110a2:	1561                	addi	a0,a0,-8
   110a4:	00d51663          	bne	a0,a3,110b0 <_free_r+0xf6>
   110a8:	a8f1                	j	11184 <_free_r+0x1ca>
   110aa:	4694                	lw	a3,8(a3)
   110ac:	00d50663          	beq	a0,a3,110b8 <_free_r+0xfe>
   110b0:	42d0                	lw	a2,4(a3)
   110b2:	9a71                	andi	a2,a2,-4
   110b4:	fec7ebe3          	bltu	a5,a2,110aa <_free_r+0xf0>
   110b8:	46c8                	lw	a0,12(a3)
   110ba:	c748                	sw	a0,12(a4)
   110bc:	c714                	sw	a3,8(a4)
   110be:	4422                	lw	s0,8(sp)
   110c0:	c518                	sw	a4,8(a0)
   110c2:	40b2                	lw	ra,12(sp)
   110c4:	8526                	mv	a0,s1
   110c6:	4492                	lw	s1,4(sp)
   110c8:	c6d8                	sw	a4,12(a3)
   110ca:	0141                	addi	sp,sp,16
   110cc:	ad5d                	j	11782 <__malloc_unlock>
   110ce:	8082                	ret
   110d0:	656d                	lui	a0,0x1b
   110d2:	97b6                	add	a5,a5,a3
   110d4:	14850513          	addi	a0,a0,328 # 1b148 <__malloc_av_+0x8>
   110d8:	4614                	lw	a3,8(a2)
   110da:	08a68b63          	beq	a3,a0,11170 <_free_r+0x1b6>
   110de:	00c62803          	lw	a6,12(a2)
   110e2:	0017e513          	ori	a0,a5,1
   110e6:	00f70633          	add	a2,a4,a5
   110ea:	0106a623          	sw	a6,12(a3)
   110ee:	00d82423          	sw	a3,8(a6)
   110f2:	c348                	sw	a0,4(a4)
   110f4:	c21c                	sw	a5,0(a2)
   110f6:	bf35                	j	11032 <_free_r+0x78>
   110f8:	0c081d63          	bnez	a6,111d2 <_free_r+0x218>
   110fc:	460c                	lw	a1,8(a2)
   110fe:	4650                	lw	a2,12(a2)
   11100:	96be                	add	a3,a3,a5
   11102:	0016e793          	ori	a5,a3,1
   11106:	c5d0                	sw	a2,12(a1)
   11108:	c60c                	sw	a1,8(a2)
   1110a:	c35c                	sw	a5,4(a4)
   1110c:	9736                	add	a4,a4,a3
   1110e:	c314                	sw	a3,0(a4)
   11110:	bf81                	j	11060 <_free_r+0xa6>
   11112:	8905                	andi	a0,a0,1
   11114:	96be                	add	a3,a3,a5
   11116:	e909                	bnez	a0,11128 <_free_r+0x16e>
   11118:	ff842503          	lw	a0,-8(s0)
   1111c:	8f09                	sub	a4,a4,a0
   1111e:	475c                	lw	a5,12(a4)
   11120:	4710                	lw	a2,8(a4)
   11122:	96aa                	add	a3,a3,a0
   11124:	c65c                	sw	a5,12(a2)
   11126:	c790                	sw	a2,8(a5)
   11128:	0016e613          	ori	a2,a3,1
   1112c:	f1c1a783          	lw	a5,-228(gp) # 1b72c <__malloc_trim_threshold>
   11130:	c350                	sw	a2,4(a4)
   11132:	c598                	sw	a4,8(a1)
   11134:	f2f6e6e3          	bltu	a3,a5,11060 <_free_r+0xa6>
   11138:	f341a583          	lw	a1,-204(gp) # 1b744 <__malloc_top_pad>
   1113c:	8526                	mv	a0,s1
   1113e:	3b45                	jal	10eee <_malloc_trim_r>
   11140:	b705                	j	11060 <_free_r+0xa6>
   11142:	97b6                	add	a5,a5,a3
   11144:	bf51                	j	110d8 <_free_r+0x11e>
   11146:	4651                	li	a2,20
   11148:	00d67e63          	bgeu	a2,a3,11164 <_free_r+0x1aa>
   1114c:	05400613          	li	a2,84
   11150:	04d66463          	bltu	a2,a3,11198 <_free_r+0x1de>
   11154:	00c7d693          	srli	a3,a5,0xc
   11158:	06f68513          	addi	a0,a3,111
   1115c:	06e68613          	addi	a2,a3,110
   11160:	050e                	slli	a0,a0,0x3
   11162:	bf35                	j	1109e <_free_r+0xe4>
   11164:	05c68513          	addi	a0,a3,92
   11168:	05b68613          	addi	a2,a3,91
   1116c:	050e                	slli	a0,a0,0x3
   1116e:	bf05                	j	1109e <_free_r+0xe4>
   11170:	c9d8                	sw	a4,20(a1)
   11172:	c998                	sw	a4,16(a1)
   11174:	0017e693          	ori	a3,a5,1
   11178:	c748                	sw	a0,12(a4)
   1117a:	c708                	sw	a0,8(a4)
   1117c:	c354                	sw	a3,4(a4)
   1117e:	973e                	add	a4,a4,a5
   11180:	c31c                	sw	a5,0(a4)
   11182:	bdf9                	j	11060 <_free_r+0xa6>
   11184:	0045a803          	lw	a6,4(a1)
   11188:	8609                	srai	a2,a2,0x2
   1118a:	4785                	li	a5,1
   1118c:	00c797b3          	sll	a5,a5,a2
   11190:	0107e7b3          	or	a5,a5,a6
   11194:	c1dc                	sw	a5,4(a1)
   11196:	b715                	j	110ba <_free_r+0x100>
   11198:	15400613          	li	a2,340
   1119c:	00d66a63          	bltu	a2,a3,111b0 <_free_r+0x1f6>
   111a0:	00f7d693          	srli	a3,a5,0xf
   111a4:	07868513          	addi	a0,a3,120
   111a8:	07768613          	addi	a2,a3,119
   111ac:	050e                	slli	a0,a0,0x3
   111ae:	bdc5                	j	1109e <_free_r+0xe4>
   111b0:	55400613          	li	a2,1364
   111b4:	00d66a63          	bltu	a2,a3,111c8 <_free_r+0x20e>
   111b8:	0127d693          	srli	a3,a5,0x12
   111bc:	07d68513          	addi	a0,a3,125
   111c0:	07c68613          	addi	a2,a3,124
   111c4:	050e                	slli	a0,a0,0x3
   111c6:	bde1                	j	1109e <_free_r+0xe4>
   111c8:	3f800513          	li	a0,1016
   111cc:	07e00613          	li	a2,126
   111d0:	b5f9                	j	1109e <_free_r+0xe4>
   111d2:	0017e693          	ori	a3,a5,1
   111d6:	c354                	sw	a3,4(a4)
   111d8:	c21c                	sw	a5,0(a2)
   111da:	b559                	j	11060 <_free_r+0xa6>

000111dc <_malloc_r>:
   111dc:	7179                	addi	sp,sp,-48
   111de:	ce4e                	sw	s3,28(sp)
   111e0:	d606                	sw	ra,44(sp)
   111e2:	d422                	sw	s0,40(sp)
   111e4:	d226                	sw	s1,36(sp)
   111e6:	d04a                	sw	s2,32(sp)
   111e8:	00b58793          	addi	a5,a1,11
   111ec:	4759                	li	a4,22
   111ee:	89aa                	mv	s3,a0
   111f0:	04f76863          	bltu	a4,a5,11240 <_malloc_r+0x64>
   111f4:	47c1                	li	a5,16
   111f6:	16b7e863          	bltu	a5,a1,11366 <_malloc_r+0x18a>
   111fa:	2359                	jal	11780 <__malloc_lock>
   111fc:	47e1                	li	a5,24
   111fe:	4589                	li	a1,2
   11200:	44c1                	li	s1,16
   11202:	696d                	lui	s2,0x1b
   11204:	14090913          	addi	s2,s2,320 # 1b140 <__malloc_av_>
   11208:	97ca                	add	a5,a5,s2
   1120a:	43c0                	lw	s0,4(a5)
   1120c:	ff878713          	addi	a4,a5,-8
   11210:	24e40d63          	beq	s0,a4,1146a <_malloc_r+0x28e>
   11214:	405c                	lw	a5,4(s0)
   11216:	4454                	lw	a3,12(s0)
   11218:	4410                	lw	a2,8(s0)
   1121a:	9bf1                	andi	a5,a5,-4
   1121c:	97a2                	add	a5,a5,s0
   1121e:	43d8                	lw	a4,4(a5)
   11220:	c654                	sw	a3,12(a2)
   11222:	c690                	sw	a2,8(a3)
   11224:	00176713          	ori	a4,a4,1
   11228:	854e                	mv	a0,s3
   1122a:	c3d8                	sw	a4,4(a5)
   1122c:	2b99                	jal	11782 <__malloc_unlock>
   1122e:	00840513          	addi	a0,s0,8
   11232:	50b2                	lw	ra,44(sp)
   11234:	5422                	lw	s0,40(sp)
   11236:	5492                	lw	s1,36(sp)
   11238:	5902                	lw	s2,32(sp)
   1123a:	49f2                	lw	s3,28(sp)
   1123c:	6145                	addi	sp,sp,48
   1123e:	8082                	ret
   11240:	ff87f493          	andi	s1,a5,-8
   11244:	1207c163          	bltz	a5,11366 <_malloc_r+0x18a>
   11248:	10b4ef63          	bltu	s1,a1,11366 <_malloc_r+0x18a>
   1124c:	2b15                	jal	11780 <__malloc_lock>
   1124e:	1f700793          	li	a5,503
   11252:	2c97fb63          	bgeu	a5,s1,11528 <_malloc_r+0x34c>
   11256:	0094d793          	srli	a5,s1,0x9
   1125a:	10078b63          	beqz	a5,11370 <_malloc_r+0x194>
   1125e:	4711                	li	a4,4
   11260:	24f76a63          	bltu	a4,a5,114b4 <_malloc_r+0x2d8>
   11264:	0064d793          	srli	a5,s1,0x6
   11268:	03978593          	addi	a1,a5,57
   1126c:	03878813          	addi	a6,a5,56
   11270:	00359613          	slli	a2,a1,0x3
   11274:	696d                	lui	s2,0x1b
   11276:	14090913          	addi	s2,s2,320 # 1b140 <__malloc_av_>
   1127a:	964a                	add	a2,a2,s2
   1127c:	4240                	lw	s0,4(a2)
   1127e:	1661                	addi	a2,a2,-8
   11280:	02860163          	beq	a2,s0,112a2 <_malloc_r+0xc6>
   11284:	453d                	li	a0,15
   11286:	a039                	j	11294 <_malloc_r+0xb8>
   11288:	4454                	lw	a3,12(s0)
   1128a:	1c075e63          	bgez	a4,11466 <_malloc_r+0x28a>
   1128e:	00d60a63          	beq	a2,a3,112a2 <_malloc_r+0xc6>
   11292:	8436                	mv	s0,a3
   11294:	405c                	lw	a5,4(s0)
   11296:	9bf1                	andi	a5,a5,-4
   11298:	40978733          	sub	a4,a5,s1
   1129c:	fee556e3          	bge	a0,a4,11288 <_malloc_r+0xac>
   112a0:	85c2                	mv	a1,a6
   112a2:	01092403          	lw	s0,16(s2)
   112a6:	686d                	lui	a6,0x1b
   112a8:	14880813          	addi	a6,a6,328 # 1b148 <__malloc_av_+0x8>
   112ac:	1b040a63          	beq	s0,a6,11460 <_malloc_r+0x284>
   112b0:	405c                	lw	a5,4(s0)
   112b2:	46bd                	li	a3,15
   112b4:	9bf1                	andi	a5,a5,-4
   112b6:	40978733          	sub	a4,a5,s1
   112ba:	26e6cc63          	blt	a3,a4,11532 <_malloc_r+0x356>
   112be:	01092a23          	sw	a6,20(s2)
   112c2:	01092823          	sw	a6,16(s2)
   112c6:	24075763          	bgez	a4,11514 <_malloc_r+0x338>
   112ca:	1ff00713          	li	a4,511
   112ce:	00492503          	lw	a0,4(s2)
   112d2:	1af76163          	bltu	a4,a5,11474 <_malloc_r+0x298>
   112d6:	ff87f713          	andi	a4,a5,-8
   112da:	0721                	addi	a4,a4,8
   112dc:	974a                	add	a4,a4,s2
   112de:	4314                	lw	a3,0(a4)
   112e0:	0057d613          	srli	a2,a5,0x5
   112e4:	4785                	li	a5,1
   112e6:	00c797b3          	sll	a5,a5,a2
   112ea:	8d5d                	or	a0,a0,a5
   112ec:	ff870793          	addi	a5,a4,-8
   112f0:	c45c                	sw	a5,12(s0)
   112f2:	c414                	sw	a3,8(s0)
   112f4:	00a92223          	sw	a0,4(s2)
   112f8:	c300                	sw	s0,0(a4)
   112fa:	c6c0                	sw	s0,12(a3)
   112fc:	4025d793          	srai	a5,a1,0x2
   11300:	4605                	li	a2,1
   11302:	00f61633          	sll	a2,a2,a5
   11306:	06c56c63          	bltu	a0,a2,1137e <_malloc_r+0x1a2>
   1130a:	00a677b3          	and	a5,a2,a0
   1130e:	ef81                	bnez	a5,11326 <_malloc_r+0x14a>
   11310:	0606                	slli	a2,a2,0x1
   11312:	99f1                	andi	a1,a1,-4
   11314:	00a677b3          	and	a5,a2,a0
   11318:	0591                	addi	a1,a1,4
   1131a:	e791                	bnez	a5,11326 <_malloc_r+0x14a>
   1131c:	0606                	slli	a2,a2,0x1
   1131e:	00a677b3          	and	a5,a2,a0
   11322:	0591                	addi	a1,a1,4
   11324:	dfe5                	beqz	a5,1131c <_malloc_r+0x140>
   11326:	48bd                	li	a7,15
   11328:	00359313          	slli	t1,a1,0x3
   1132c:	934a                	add	t1,t1,s2
   1132e:	851a                	mv	a0,t1
   11330:	455c                	lw	a5,12(a0)
   11332:	8e2e                	mv	t3,a1
   11334:	1af50063          	beq	a0,a5,114d4 <_malloc_r+0x2f8>
   11338:	43d8                	lw	a4,4(a5)
   1133a:	843e                	mv	s0,a5
   1133c:	47dc                	lw	a5,12(a5)
   1133e:	9b71                	andi	a4,a4,-4
   11340:	409706b3          	sub	a3,a4,s1
   11344:	18d8cf63          	blt	a7,a3,114e2 <_malloc_r+0x306>
   11348:	fe06c6e3          	bltz	a3,11334 <_malloc_r+0x158>
   1134c:	9722                	add	a4,a4,s0
   1134e:	4354                	lw	a3,4(a4)
   11350:	4410                	lw	a2,8(s0)
   11352:	854e                	mv	a0,s3
   11354:	0016e693          	ori	a3,a3,1
   11358:	c354                	sw	a3,4(a4)
   1135a:	c65c                	sw	a5,12(a2)
   1135c:	c790                	sw	a2,8(a5)
   1135e:	2115                	jal	11782 <__malloc_unlock>
   11360:	00840513          	addi	a0,s0,8
   11364:	b5f9                	j	11232 <_malloc_r+0x56>
   11366:	47b1                	li	a5,12
   11368:	00f9a023          	sw	a5,0(s3)
   1136c:	4501                	li	a0,0
   1136e:	b5d1                	j	11232 <_malloc_r+0x56>
   11370:	20000613          	li	a2,512
   11374:	04000593          	li	a1,64
   11378:	03f00813          	li	a6,63
   1137c:	bde5                	j	11274 <_malloc_r+0x98>
   1137e:	00892403          	lw	s0,8(s2)
   11382:	c85a                	sw	s6,16(sp)
   11384:	405c                	lw	a5,4(s0)
   11386:	ffc7fb13          	andi	s6,a5,-4
   1138a:	009b6763          	bltu	s6,s1,11398 <_malloc_r+0x1bc>
   1138e:	409b0733          	sub	a4,s6,s1
   11392:	47bd                	li	a5,15
   11394:	0ae7c163          	blt	a5,a4,11436 <_malloc_r+0x25a>
   11398:	c266                	sw	s9,4(sp)
   1139a:	ca56                	sw	s5,20(sp)
   1139c:	f181a703          	lw	a4,-232(gp) # 1b728 <__malloc_sbrk_base>
   113a0:	f341aa83          	lw	s5,-204(gp) # 1b744 <__malloc_top_pad>
   113a4:	cc52                	sw	s4,24(sp)
   113a6:	c65e                	sw	s7,12(sp)
   113a8:	57fd                	li	a5,-1
   113aa:	01640a33          	add	s4,s0,s6
   113ae:	9aa6                	add	s5,s5,s1
   113b0:	2cf70763          	beq	a4,a5,1167e <_malloc_r+0x4a2>
   113b4:	6785                	lui	a5,0x1
   113b6:	07bd                	addi	a5,a5,15 # 100f <exit-0xf085>
   113b8:	9abe                	add	s5,s5,a5
   113ba:	77fd                	lui	a5,0xfffff
   113bc:	00fafab3          	and	s5,s5,a5
   113c0:	85d6                	mv	a1,s5
   113c2:	854e                	mv	a0,s3
   113c4:	037020ef          	jal	13bfa <_sbrk_r>
   113c8:	57fd                	li	a5,-1
   113ca:	8baa                	mv	s7,a0
   113cc:	32f50963          	beq	a0,a5,116fe <_malloc_r+0x522>
   113d0:	c462                	sw	s8,8(sp)
   113d2:	19456e63          	bltu	a0,s4,1156e <_malloc_r+0x392>
   113d6:	09418c13          	addi	s8,gp,148 # 1b8a4 <__malloc_current_mallinfo>
   113da:	000c2583          	lw	a1,0(s8)
   113de:	95d6                	add	a1,a1,s5
   113e0:	00bc2023          	sw	a1,0(s8)
   113e4:	872e                	mv	a4,a1
   113e6:	1eaa1863          	bne	s4,a0,115d6 <_malloc_r+0x3fa>
   113ea:	01451793          	slli	a5,a0,0x14
   113ee:	1e079463          	bnez	a5,115d6 <_malloc_r+0x3fa>
   113f2:	00892b83          	lw	s7,8(s2)
   113f6:	015b07b3          	add	a5,s6,s5
   113fa:	0017e793          	ori	a5,a5,1
   113fe:	00fba223          	sw	a5,4(s7)
   11402:	f301a683          	lw	a3,-208(gp) # 1b740 <__malloc_max_sbrked_mem>
   11406:	00b6f463          	bgeu	a3,a1,1140e <_malloc_r+0x232>
   1140a:	f2b1a823          	sw	a1,-208(gp) # 1b740 <__malloc_max_sbrked_mem>
   1140e:	f2c1a683          	lw	a3,-212(gp) # 1b73c <__malloc_max_total_mem>
   11412:	00b6f463          	bgeu	a3,a1,1141a <_malloc_r+0x23e>
   11416:	f2b1a623          	sw	a1,-212(gp) # 1b73c <__malloc_max_total_mem>
   1141a:	4c22                	lw	s8,8(sp)
   1141c:	845e                	mv	s0,s7
   1141e:	9bf1                	andi	a5,a5,-4
   11420:	40978733          	sub	a4,a5,s1
   11424:	2897eb63          	bltu	a5,s1,116ba <_malloc_r+0x4de>
   11428:	47bd                	li	a5,15
   1142a:	28e7d863          	bge	a5,a4,116ba <_malloc_r+0x4de>
   1142e:	4a62                	lw	s4,24(sp)
   11430:	4ad2                	lw	s5,20(sp)
   11432:	4bb2                	lw	s7,12(sp)
   11434:	4c92                	lw	s9,4(sp)
   11436:	0014e793          	ori	a5,s1,1
   1143a:	c05c                	sw	a5,4(s0)
   1143c:	94a2                	add	s1,s1,s0
   1143e:	00992423          	sw	s1,8(s2)
   11442:	00176713          	ori	a4,a4,1
   11446:	854e                	mv	a0,s3
   11448:	c0d8                	sw	a4,4(s1)
   1144a:	2e25                	jal	11782 <__malloc_unlock>
   1144c:	50b2                	lw	ra,44(sp)
   1144e:	00840513          	addi	a0,s0,8
   11452:	5422                	lw	s0,40(sp)
   11454:	4b42                	lw	s6,16(sp)
   11456:	5492                	lw	s1,36(sp)
   11458:	5902                	lw	s2,32(sp)
   1145a:	49f2                	lw	s3,28(sp)
   1145c:	6145                	addi	sp,sp,48
   1145e:	8082                	ret
   11460:	00492503          	lw	a0,4(s2)
   11464:	bd61                	j	112fc <_malloc_r+0x120>
   11466:	4410                	lw	a2,8(s0)
   11468:	bb55                	j	1121c <_malloc_r+0x40>
   1146a:	47c0                	lw	s0,12(a5)
   1146c:	0589                	addi	a1,a1,2
   1146e:	e2878ae3          	beq	a5,s0,112a2 <_malloc_r+0xc6>
   11472:	b34d                	j	11214 <_malloc_r+0x38>
   11474:	0097d713          	srli	a4,a5,0x9
   11478:	4691                	li	a3,4
   1147a:	0ee6f263          	bgeu	a3,a4,1155e <_malloc_r+0x382>
   1147e:	46d1                	li	a3,20
   11480:	24e6e663          	bltu	a3,a4,116cc <_malloc_r+0x4f0>
   11484:	05c70613          	addi	a2,a4,92
   11488:	05b70693          	addi	a3,a4,91
   1148c:	060e                	slli	a2,a2,0x3
   1148e:	964a                	add	a2,a2,s2
   11490:	4218                	lw	a4,0(a2)
   11492:	1661                	addi	a2,a2,-8
   11494:	00e61663          	bne	a2,a4,114a0 <_malloc_r+0x2c4>
   11498:	a2ed                	j	11682 <_malloc_r+0x4a6>
   1149a:	4718                	lw	a4,8(a4)
   1149c:	00e60663          	beq	a2,a4,114a8 <_malloc_r+0x2cc>
   114a0:	4354                	lw	a3,4(a4)
   114a2:	9af1                	andi	a3,a3,-4
   114a4:	fed7ebe3          	bltu	a5,a3,1149a <_malloc_r+0x2be>
   114a8:	4750                	lw	a2,12(a4)
   114aa:	c450                	sw	a2,12(s0)
   114ac:	c418                	sw	a4,8(s0)
   114ae:	c600                	sw	s0,8(a2)
   114b0:	c740                	sw	s0,12(a4)
   114b2:	b5a9                	j	112fc <_malloc_r+0x120>
   114b4:	4751                	li	a4,20
   114b6:	0cf77363          	bgeu	a4,a5,1157c <_malloc_r+0x3a0>
   114ba:	05400713          	li	a4,84
   114be:	22f76363          	bltu	a4,a5,116e4 <_malloc_r+0x508>
   114c2:	00c4d793          	srli	a5,s1,0xc
   114c6:	06f78593          	addi	a1,a5,111 # fffff06f <__BSS_END__+0xfffe3613>
   114ca:	06e78813          	addi	a6,a5,110
   114ce:	00359613          	slli	a2,a1,0x3
   114d2:	b34d                	j	11274 <_malloc_r+0x98>
   114d4:	0e05                	addi	t3,t3,1
   114d6:	003e7793          	andi	a5,t3,3
   114da:	0521                	addi	a0,a0,8
   114dc:	cfc5                	beqz	a5,11594 <_malloc_r+0x3b8>
   114de:	455c                	lw	a5,12(a0)
   114e0:	bd91                	j	11334 <_malloc_r+0x158>
   114e2:	4410                	lw	a2,8(s0)
   114e4:	0014e593          	ori	a1,s1,1
   114e8:	c04c                	sw	a1,4(s0)
   114ea:	c65c                	sw	a5,12(a2)
   114ec:	c790                	sw	a2,8(a5)
   114ee:	94a2                	add	s1,s1,s0
   114f0:	00992a23          	sw	s1,20(s2)
   114f4:	00992823          	sw	s1,16(s2)
   114f8:	0016e793          	ori	a5,a3,1
   114fc:	0104a623          	sw	a6,12(s1)
   11500:	0104a423          	sw	a6,8(s1)
   11504:	c0dc                	sw	a5,4(s1)
   11506:	9722                	add	a4,a4,s0
   11508:	854e                	mv	a0,s3
   1150a:	c314                	sw	a3,0(a4)
   1150c:	2c9d                	jal	11782 <__malloc_unlock>
   1150e:	00840513          	addi	a0,s0,8
   11512:	b305                	j	11232 <_malloc_r+0x56>
   11514:	97a2                	add	a5,a5,s0
   11516:	43d8                	lw	a4,4(a5)
   11518:	854e                	mv	a0,s3
   1151a:	00176713          	ori	a4,a4,1
   1151e:	c3d8                	sw	a4,4(a5)
   11520:	248d                	jal	11782 <__malloc_unlock>
   11522:	00840513          	addi	a0,s0,8
   11526:	b331                	j	11232 <_malloc_r+0x56>
   11528:	0034d593          	srli	a1,s1,0x3
   1152c:	00848793          	addi	a5,s1,8
   11530:	b9c9                	j	11202 <_malloc_r+0x26>
   11532:	0014e693          	ori	a3,s1,1
   11536:	c054                	sw	a3,4(s0)
   11538:	94a2                	add	s1,s1,s0
   1153a:	00992a23          	sw	s1,20(s2)
   1153e:	00992823          	sw	s1,16(s2)
   11542:	00176693          	ori	a3,a4,1
   11546:	0104a623          	sw	a6,12(s1)
   1154a:	0104a423          	sw	a6,8(s1)
   1154e:	c0d4                	sw	a3,4(s1)
   11550:	97a2                	add	a5,a5,s0
   11552:	854e                	mv	a0,s3
   11554:	c398                	sw	a4,0(a5)
   11556:	2435                	jal	11782 <__malloc_unlock>
   11558:	00840513          	addi	a0,s0,8
   1155c:	b9d9                	j	11232 <_malloc_r+0x56>
   1155e:	0067d713          	srli	a4,a5,0x6
   11562:	03970613          	addi	a2,a4,57
   11566:	03870693          	addi	a3,a4,56
   1156a:	060e                	slli	a2,a2,0x3
   1156c:	b70d                	j	1148e <_malloc_r+0x2b2>
   1156e:	05240d63          	beq	s0,s2,115c8 <_malloc_r+0x3ec>
   11572:	00892403          	lw	s0,8(s2)
   11576:	4c22                	lw	s8,8(sp)
   11578:	405c                	lw	a5,4(s0)
   1157a:	b555                	j	1141e <_malloc_r+0x242>
   1157c:	05c78593          	addi	a1,a5,92
   11580:	05b78813          	addi	a6,a5,91
   11584:	00359613          	slli	a2,a1,0x3
   11588:	b1f5                	j	11274 <_malloc_r+0x98>
   1158a:	00832783          	lw	a5,8(t1)
   1158e:	15fd                	addi	a1,a1,-1
   11590:	1e679563          	bne	a5,t1,1177a <_malloc_r+0x59e>
   11594:	0035f793          	andi	a5,a1,3
   11598:	1361                	addi	t1,t1,-8
   1159a:	fbe5                	bnez	a5,1158a <_malloc_r+0x3ae>
   1159c:	00492703          	lw	a4,4(s2)
   115a0:	fff64793          	not	a5,a2
   115a4:	8ff9                	and	a5,a5,a4
   115a6:	00f92223          	sw	a5,4(s2)
   115aa:	0606                	slli	a2,a2,0x1
   115ac:	dcc7e9e3          	bltu	a5,a2,1137e <_malloc_r+0x1a2>
   115b0:	dc0607e3          	beqz	a2,1137e <_malloc_r+0x1a2>
   115b4:	00f67733          	and	a4,a2,a5
   115b8:	e711                	bnez	a4,115c4 <_malloc_r+0x3e8>
   115ba:	0606                	slli	a2,a2,0x1
   115bc:	00f67733          	and	a4,a2,a5
   115c0:	0e11                	addi	t3,t3,4
   115c2:	df65                	beqz	a4,115ba <_malloc_r+0x3de>
   115c4:	85f2                	mv	a1,t3
   115c6:	b38d                	j	11328 <_malloc_r+0x14c>
   115c8:	09418c13          	addi	s8,gp,148 # 1b8a4 <__malloc_current_mallinfo>
   115cc:	000c2703          	lw	a4,0(s8)
   115d0:	9756                	add	a4,a4,s5
   115d2:	00ec2023          	sw	a4,0(s8)
   115d6:	f181a683          	lw	a3,-232(gp) # 1b728 <__malloc_sbrk_base>
   115da:	57fd                	li	a5,-1
   115dc:	12f68563          	beq	a3,a5,11706 <_malloc_r+0x52a>
   115e0:	414b87b3          	sub	a5,s7,s4
   115e4:	97ba                	add	a5,a5,a4
   115e6:	00fc2023          	sw	a5,0(s8)
   115ea:	007bfc93          	andi	s9,s7,7
   115ee:	0a0c8263          	beqz	s9,11692 <_malloc_r+0x4b6>
   115f2:	419b8bb3          	sub	s7,s7,s9
   115f6:	6785                	lui	a5,0x1
   115f8:	07a1                	addi	a5,a5,8 # 1008 <exit-0xf08c>
   115fa:	0ba1                	addi	s7,s7,8
   115fc:	419785b3          	sub	a1,a5,s9
   11600:	9ade                	add	s5,s5,s7
   11602:	415585b3          	sub	a1,a1,s5
   11606:	05d2                	slli	a1,a1,0x14
   11608:	0145da13          	srli	s4,a1,0x14
   1160c:	85d2                	mv	a1,s4
   1160e:	854e                	mv	a0,s3
   11610:	5ea020ef          	jal	13bfa <_sbrk_r>
   11614:	57fd                	li	a5,-1
   11616:	12f50463          	beq	a0,a5,1173e <_malloc_r+0x562>
   1161a:	41750533          	sub	a0,a0,s7
   1161e:	01450ab3          	add	s5,a0,s4
   11622:	000c2703          	lw	a4,0(s8)
   11626:	01792423          	sw	s7,8(s2)
   1162a:	001ae793          	ori	a5,s5,1
   1162e:	00ea05b3          	add	a1,s4,a4
   11632:	00bc2023          	sw	a1,0(s8)
   11636:	00fba223          	sw	a5,4(s7)
   1163a:	dd2404e3          	beq	s0,s2,11402 <_malloc_r+0x226>
   1163e:	46bd                	li	a3,15
   11640:	0766f963          	bgeu	a3,s6,116b2 <_malloc_r+0x4d6>
   11644:	4058                	lw	a4,4(s0)
   11646:	ff4b0793          	addi	a5,s6,-12
   1164a:	9be1                	andi	a5,a5,-8
   1164c:	8b05                	andi	a4,a4,1
   1164e:	8f5d                	or	a4,a4,a5
   11650:	c058                	sw	a4,4(s0)
   11652:	4615                	li	a2,5
   11654:	00f40733          	add	a4,s0,a5
   11658:	c350                	sw	a2,4(a4)
   1165a:	c710                	sw	a2,8(a4)
   1165c:	00f6e563          	bltu	a3,a5,11666 <_malloc_r+0x48a>
   11660:	004ba783          	lw	a5,4(s7)
   11664:	bb79                	j	11402 <_malloc_r+0x226>
   11666:	00840593          	addi	a1,s0,8
   1166a:	854e                	mv	a0,s3
   1166c:	94fff0ef          	jal	10fba <_free_r>
   11670:	00892b83          	lw	s7,8(s2)
   11674:	000c2583          	lw	a1,0(s8)
   11678:	004ba783          	lw	a5,4(s7)
   1167c:	b359                	j	11402 <_malloc_r+0x226>
   1167e:	0ac1                	addi	s5,s5,16
   11680:	b381                	j	113c0 <_malloc_r+0x1e4>
   11682:	8689                	srai	a3,a3,0x2
   11684:	4785                	li	a5,1
   11686:	00d797b3          	sll	a5,a5,a3
   1168a:	8d5d                	or	a0,a0,a5
   1168c:	00a92223          	sw	a0,4(s2)
   11690:	bd29                	j	114aa <_malloc_r+0x2ce>
   11692:	015b85b3          	add	a1,s7,s5
   11696:	40b005b3          	neg	a1,a1
   1169a:	05d2                	slli	a1,a1,0x14
   1169c:	0145da13          	srli	s4,a1,0x14
   116a0:	85d2                	mv	a1,s4
   116a2:	854e                	mv	a0,s3
   116a4:	556020ef          	jal	13bfa <_sbrk_r>
   116a8:	57fd                	li	a5,-1
   116aa:	f6f518e3          	bne	a0,a5,1161a <_malloc_r+0x43e>
   116ae:	4a01                	li	s4,0
   116b0:	bf8d                	j	11622 <_malloc_r+0x446>
   116b2:	4c22                	lw	s8,8(sp)
   116b4:	4785                	li	a5,1
   116b6:	00fba223          	sw	a5,4(s7)
   116ba:	854e                	mv	a0,s3
   116bc:	20d9                	jal	11782 <__malloc_unlock>
   116be:	4501                	li	a0,0
   116c0:	4a62                	lw	s4,24(sp)
   116c2:	4ad2                	lw	s5,20(sp)
   116c4:	4b42                	lw	s6,16(sp)
   116c6:	4bb2                	lw	s7,12(sp)
   116c8:	4c92                	lw	s9,4(sp)
   116ca:	b6a5                	j	11232 <_malloc_r+0x56>
   116cc:	05400693          	li	a3,84
   116d0:	02e6ee63          	bltu	a3,a4,1170c <_malloc_r+0x530>
   116d4:	00c7d713          	srli	a4,a5,0xc
   116d8:	06f70613          	addi	a2,a4,111
   116dc:	06e70693          	addi	a3,a4,110
   116e0:	060e                	slli	a2,a2,0x3
   116e2:	b375                	j	1148e <_malloc_r+0x2b2>
   116e4:	15400713          	li	a4,340
   116e8:	02f76e63          	bltu	a4,a5,11724 <_malloc_r+0x548>
   116ec:	00f4d793          	srli	a5,s1,0xf
   116f0:	07878593          	addi	a1,a5,120
   116f4:	07778813          	addi	a6,a5,119
   116f8:	00359613          	slli	a2,a1,0x3
   116fc:	bea5                	j	11274 <_malloc_r+0x98>
   116fe:	00892403          	lw	s0,8(s2)
   11702:	405c                	lw	a5,4(s0)
   11704:	bb29                	j	1141e <_malloc_r+0x242>
   11706:	f171ac23          	sw	s7,-232(gp) # 1b728 <__malloc_sbrk_base>
   1170a:	b5c5                	j	115ea <_malloc_r+0x40e>
   1170c:	15400693          	li	a3,340
   11710:	02e6ed63          	bltu	a3,a4,1174a <_malloc_r+0x56e>
   11714:	00f7d713          	srli	a4,a5,0xf
   11718:	07870613          	addi	a2,a4,120
   1171c:	07770693          	addi	a3,a4,119
   11720:	060e                	slli	a2,a2,0x3
   11722:	b3b5                	j	1148e <_malloc_r+0x2b2>
   11724:	55400713          	li	a4,1364
   11728:	02f76d63          	bltu	a4,a5,11762 <_malloc_r+0x586>
   1172c:	0124d793          	srli	a5,s1,0x12
   11730:	07d78593          	addi	a1,a5,125
   11734:	07c78813          	addi	a6,a5,124
   11738:	00359613          	slli	a2,a1,0x3
   1173c:	be25                	j	11274 <_malloc_r+0x98>
   1173e:	1ce1                	addi	s9,s9,-8
   11740:	9ae6                	add	s5,s5,s9
   11742:	417a8ab3          	sub	s5,s5,s7
   11746:	4a01                	li	s4,0
   11748:	bde9                	j	11622 <_malloc_r+0x446>
   1174a:	55400693          	li	a3,1364
   1174e:	02e6e163          	bltu	a3,a4,11770 <_malloc_r+0x594>
   11752:	0127d713          	srli	a4,a5,0x12
   11756:	07d70613          	addi	a2,a4,125
   1175a:	07c70693          	addi	a3,a4,124
   1175e:	060e                	slli	a2,a2,0x3
   11760:	b33d                	j	1148e <_malloc_r+0x2b2>
   11762:	3f800613          	li	a2,1016
   11766:	07f00593          	li	a1,127
   1176a:	07e00813          	li	a6,126
   1176e:	b619                	j	11274 <_malloc_r+0x98>
   11770:	3f800613          	li	a2,1016
   11774:	07e00693          	li	a3,126
   11778:	bb19                	j	1148e <_malloc_r+0x2b2>
   1177a:	00492783          	lw	a5,4(s2)
   1177e:	b535                	j	115aa <_malloc_r+0x3ce>

00011780 <__malloc_lock>:
   11780:	8082                	ret

00011782 <__malloc_unlock>:
   11782:	8082                	ret

00011784 <_vfprintf_r>:
   11784:	7145                	addi	sp,sp,-464
   11786:	1c112623          	sw	ra,460(sp)
   1178a:	1c812423          	sw	s0,456(sp)
   1178e:	1c912223          	sw	s1,452(sp)
   11792:	1b612823          	sw	s6,432(sp)
   11796:	84ae                	mv	s1,a1
   11798:	8b32                	mv	s6,a2
   1179a:	ca36                	sw	a3,20(sp)
   1179c:	842a                	mv	s0,a0
   1179e:	c42a                	sw	a0,8(sp)
   117a0:	44e020ef          	jal	13bee <_localeconv_r>
   117a4:	411c                	lw	a5,0(a0)
   117a6:	853e                	mv	a0,a5
   117a8:	d83e                	sw	a5,48(sp)
   117aa:	e06ff0ef          	jal	10db0 <strlen>
   117ae:	d62a                	sw	a0,44(sp)
   117b0:	c982                	sw	zero,208(sp)
   117b2:	cb82                	sw	zero,212(sp)
   117b4:	cd82                	sw	zero,216(sp)
   117b6:	cf82                	sw	zero,220(sp)
   117b8:	c409                	beqz	s0,117c2 <_vfprintf_r+0x3e>
   117ba:	5858                	lw	a4,52(s0)
   117bc:	e319                	bnez	a4,117c2 <_vfprintf_r+0x3e>
   117be:	1920106f          	j	12950 <_vfprintf_r+0x11cc>
   117c2:	00c49683          	lh	a3,12(s1)
   117c6:	50f8                	lw	a4,100(s1)
   117c8:	01269613          	slli	a2,a3,0x12
   117cc:	00064a63          	bltz	a2,117e0 <_vfprintf_r+0x5c>
   117d0:	7679                	lui	a2,0xffffe
   117d2:	167d                	addi	a2,a2,-1 # ffffdfff <__BSS_END__+0xfffe25a3>
   117d4:	6589                	lui	a1,0x2
   117d6:	8ecd                	or	a3,a3,a1
   117d8:	8f71                	and	a4,a4,a2
   117da:	00d49623          	sh	a3,12(s1)
   117de:	d0f8                	sw	a4,100(s1)
   117e0:	01271693          	slli	a3,a4,0x12
   117e4:	0006d463          	bgez	a3,117ec <_vfprintf_r+0x68>
   117e8:	0770106f          	j	1305e <_vfprintf_r+0x18da>
   117ec:	00c49703          	lh	a4,12(s1)
   117f0:	00877693          	andi	a3,a4,8
   117f4:	22068a63          	beqz	a3,11a28 <_vfprintf_r+0x2a4>
   117f8:	4894                	lw	a3,16(s1)
   117fa:	22068763          	beqz	a3,11a28 <_vfprintf_r+0x2a4>
   117fe:	8b69                	andi	a4,a4,26
   11800:	46a9                	li	a3,10
   11802:	24d70063          	beq	a4,a3,11a42 <_vfprintf_r+0x2be>
   11806:	1b312e23          	sw	s3,444(sp)
   1180a:	1b412c23          	sw	s4,440(sp)
   1180e:	1ba12023          	sw	s10,416(sp)
   11812:	6769                	lui	a4,0x1a
   11814:	1d212023          	sw	s2,448(sp)
   11818:	1b512a23          	sw	s5,436(sp)
   1181c:	1b712623          	sw	s7,428(sp)
   11820:	1b812423          	sw	s8,424(sp)
   11824:	1b912223          	sw	s9,420(sp)
   11828:	19b12e23          	sw	s11,412(sp)
   1182c:	8d5a                	mv	s10,s6
   1182e:	47870793          	addi	a5,a4,1144 # 1a478 <k+0x100>
   11832:	000d4703          	lbu	a4,0(s10)
   11836:	0ec10993          	addi	s3,sp,236
   1183a:	6a69                	lui	s4,0x1a
   1183c:	c3ce                	sw	s3,196(sp)
   1183e:	c782                	sw	zero,204(sp)
   11840:	c582                	sw	zero,200(sp)
   11842:	d002                	sw	zero,32(sp)
   11844:	da02                	sw	zero,52(sp)
   11846:	c082                	sw	zero,64(sp)
   11848:	de02                	sw	zero,60(sp)
   1184a:	c482                	sw	zero,72(sp)
   1184c:	c282                	sw	zero,68(sp)
   1184e:	c602                	sw	zero,12(sp)
   11850:	cc3e                	sw	a5,24(sp)
   11852:	844e                	mv	s0,s3
   11854:	67ca0a13          	addi	s4,s4,1660 # 1a67c <zeroes.0>
   11858:	18070063          	beqz	a4,119d8 <_vfprintf_r+0x254>
   1185c:	896a                	mv	s2,s10
   1185e:	02500693          	li	a3,37
   11862:	2ed70a63          	beq	a4,a3,11b56 <_vfprintf_r+0x3d2>
   11866:	00194703          	lbu	a4,1(s2)
   1186a:	0905                	addi	s2,s2,1
   1186c:	fb7d                	bnez	a4,11862 <_vfprintf_r+0xde>
   1186e:	41a90ab3          	sub	s5,s2,s10
   11872:	17a90363          	beq	s2,s10,119d8 <_vfprintf_r+0x254>
   11876:	46be                	lw	a3,204(sp)
   11878:	472e                	lw	a4,200(sp)
   1187a:	01a42023          	sw	s10,0(s0)
   1187e:	96d6                	add	a3,a3,s5
   11880:	0705                	addi	a4,a4,1
   11882:	01542223          	sw	s5,4(s0)
   11886:	c7b6                	sw	a3,204(sp)
   11888:	c5ba                	sw	a4,200(sp)
   1188a:	469d                	li	a3,7
   1188c:	0421                	addi	s0,s0,8
   1188e:	2ce6cb63          	blt	a3,a4,11b64 <_vfprintf_r+0x3e0>
   11892:	47b2                	lw	a5,12(sp)
   11894:	00094703          	lbu	a4,0(s2)
   11898:	97d6                	add	a5,a5,s5
   1189a:	c63e                	sw	a5,12(sp)
   1189c:	12070e63          	beqz	a4,119d8 <_vfprintf_r+0x254>
   118a0:	00194883          	lbu	a7,1(s2)
   118a4:	0a0103a3          	sb	zero,167(sp)
   118a8:	0905                	addi	s2,s2,1
   118aa:	5afd                	li	s5,-1
   118ac:	4b81                	li	s7,0
   118ae:	4c81                	li	s9,0
   118b0:	05a00b13          	li	s6,90
   118b4:	0905                	addi	s2,s2,1
   118b6:	fe088793          	addi	a5,a7,-32
   118ba:	02fb6b63          	bltu	s6,a5,118f0 <_vfprintf_r+0x16c>
   118be:	4762                	lw	a4,24(sp)
   118c0:	078a                	slli	a5,a5,0x2
   118c2:	97ba                	add	a5,a5,a4
   118c4:	439c                	lw	a5,0(a5)
   118c6:	8782                	jr	a5
   118c8:	4b81                	li	s7,0
   118ca:	fd088793          	addi	a5,a7,-48
   118ce:	46a5                	li	a3,9
   118d0:	00094883          	lbu	a7,0(s2)
   118d4:	002b9713          	slli	a4,s7,0x2
   118d8:	9bba                	add	s7,s7,a4
   118da:	0b86                	slli	s7,s7,0x1
   118dc:	9bbe                	add	s7,s7,a5
   118de:	fd088793          	addi	a5,a7,-48
   118e2:	0905                	addi	s2,s2,1
   118e4:	fef6f6e3          	bgeu	a3,a5,118d0 <_vfprintf_r+0x14c>
   118e8:	fe088793          	addi	a5,a7,-32
   118ec:	fcfb79e3          	bgeu	s6,a5,118be <_vfprintf_r+0x13a>
   118f0:	0e088463          	beqz	a7,119d8 <_vfprintf_r+0x254>
   118f4:	13110623          	sb	a7,300(sp)
   118f8:	0a0103a3          	sb	zero,167(sp)
   118fc:	4d85                	li	s11,1
   118fe:	4b05                	li	s6,1
   11900:	12c10d13          	addi	s10,sp,300
   11904:	c802                	sw	zero,16(sp)
   11906:	4a81                	li	s5,0
   11908:	d402                	sw	zero,40(sp)
   1190a:	d202                	sw	zero,36(sp)
   1190c:	ce02                	sw	zero,28(sp)
   1190e:	002cf293          	andi	t0,s9,2
   11912:	00028363          	beqz	t0,11918 <_vfprintf_r+0x194>
   11916:	0d89                	addi	s11,s11,2
   11918:	084cff93          	andi	t6,s9,132
   1191c:	463e                	lw	a2,204(sp)
   1191e:	000f9663          	bnez	t6,1192a <_vfprintf_r+0x1a6>
   11922:	41bb8733          	sub	a4,s7,s11
   11926:	0ce045e3          	bgtz	a4,121f0 <_vfprintf_r+0xa6c>
   1192a:	0a714703          	lbu	a4,167(sp)
   1192e:	cf19                	beqz	a4,1194c <_vfprintf_r+0x1c8>
   11930:	472e                	lw	a4,200(sp)
   11932:	0a710593          	addi	a1,sp,167
   11936:	c00c                	sw	a1,0(s0)
   11938:	0605                	addi	a2,a2,1
   1193a:	4585                	li	a1,1
   1193c:	0705                	addi	a4,a4,1
   1193e:	c04c                	sw	a1,4(s0)
   11940:	c7b2                	sw	a2,204(sp)
   11942:	c5ba                	sw	a4,200(sp)
   11944:	459d                	li	a1,7
   11946:	0421                	addi	s0,s0,8
   11948:	2ee5c563          	blt	a1,a4,11c32 <_vfprintf_r+0x4ae>
   1194c:	00028f63          	beqz	t0,1196a <_vfprintf_r+0x1e6>
   11950:	472e                	lw	a4,200(sp)
   11952:	4589                	li	a1,2
   11954:	0609                	addi	a2,a2,2
   11956:	0705                	addi	a4,a4,1
   11958:	113c                	addi	a5,sp,168
   1195a:	c04c                	sw	a1,4(s0)
   1195c:	c01c                	sw	a5,0(s0)
   1195e:	c7b2                	sw	a2,204(sp)
   11960:	c5ba                	sw	a4,200(sp)
   11962:	459d                	li	a1,7
   11964:	0421                	addi	s0,s0,8
   11966:	12e5c8e3          	blt	a1,a4,12296 <_vfprintf_r+0xb12>
   1196a:	08000713          	li	a4,128
   1196e:	72ef8c63          	beq	t6,a4,120a6 <_vfprintf_r+0x922>
   11972:	416a8ab3          	sub	s5,s5,s6
   11976:	7d504863          	bgtz	s5,12146 <_vfprintf_r+0x9c2>
   1197a:	100cf713          	andi	a4,s9,256
   1197e:	60071c63          	bnez	a4,11f96 <_vfprintf_r+0x812>
   11982:	47ae                	lw	a5,200(sp)
   11984:	965a                	add	a2,a2,s6
   11986:	01a42023          	sw	s10,0(s0)
   1198a:	0785                	addi	a5,a5,1
   1198c:	01642223          	sw	s6,4(s0)
   11990:	c7b2                	sw	a2,204(sp)
   11992:	c5be                	sw	a5,200(sp)
   11994:	471d                	li	a4,7
   11996:	36f74363          	blt	a4,a5,11cfc <_vfprintf_r+0x578>
   1199a:	0421                	addi	s0,s0,8
   1199c:	004cfe13          	andi	t3,s9,4
   119a0:	000e0663          	beqz	t3,119ac <_vfprintf_r+0x228>
   119a4:	41bb8ab3          	sub	s5,s7,s11
   119a8:	115045e3          	bgtz	s5,122b2 <_vfprintf_r+0xb2e>
   119ac:	835e                	mv	t1,s7
   119ae:	01bbd363          	bge	s7,s11,119b4 <_vfprintf_r+0x230>
   119b2:	836e                	mv	t1,s11
   119b4:	47b2                	lw	a5,12(sp)
   119b6:	979a                	add	a5,a5,t1
   119b8:	c63e                	sw	a5,12(sp)
   119ba:	00061ae3          	bnez	a2,121ce <_vfprintf_r+0xa4a>
   119be:	47c2                	lw	a5,16(sp)
   119c0:	c582                	sw	zero,200(sp)
   119c2:	c789                	beqz	a5,119cc <_vfprintf_r+0x248>
   119c4:	45c2                	lw	a1,16(sp)
   119c6:	4522                	lw	a0,8(sp)
   119c8:	df2ff0ef          	jal	10fba <_free_r>
   119cc:	844e                	mv	s0,s3
   119ce:	8d4a                	mv	s10,s2
   119d0:	000d4703          	lbu	a4,0(s10)
   119d4:	e80714e3          	bnez	a4,1185c <_vfprintf_r+0xd8>
   119d8:	47be                	lw	a5,204(sp)
   119da:	c399                	beqz	a5,119e0 <_vfprintf_r+0x25c>
   119dc:	3160106f          	j	12cf2 <_vfprintf_r+0x156e>
   119e0:	00c4d783          	lhu	a5,12(s1)
   119e4:	1c012903          	lw	s2,448(sp)
   119e8:	1bc12983          	lw	s3,444(sp)
   119ec:	0407f793          	andi	a5,a5,64
   119f0:	1b812a03          	lw	s4,440(sp)
   119f4:	1b412a83          	lw	s5,436(sp)
   119f8:	1ac12b83          	lw	s7,428(sp)
   119fc:	1a812c03          	lw	s8,424(sp)
   11a00:	1a412c83          	lw	s9,420(sp)
   11a04:	1a012d03          	lw	s10,416(sp)
   11a08:	19c12d83          	lw	s11,412(sp)
   11a0c:	c399                	beqz	a5,11a12 <_vfprintf_r+0x28e>
   11a0e:	6500106f          	j	1305e <_vfprintf_r+0x18da>
   11a12:	1cc12083          	lw	ra,460(sp)
   11a16:	1c812403          	lw	s0,456(sp)
   11a1a:	4532                	lw	a0,12(sp)
   11a1c:	1c412483          	lw	s1,452(sp)
   11a20:	1b012b03          	lw	s6,432(sp)
   11a24:	6179                	addi	sp,sp,464
   11a26:	8082                	ret
   11a28:	4522                	lw	a0,8(sp)
   11a2a:	85a6                	mv	a1,s1
   11a2c:	7db010ef          	jal	13a06 <__swsetup_r>
   11a30:	c119                	beqz	a0,11a36 <_vfprintf_r+0x2b2>
   11a32:	62c0106f          	j	1305e <_vfprintf_r+0x18da>
   11a36:	00c49703          	lh	a4,12(s1)
   11a3a:	46a9                	li	a3,10
   11a3c:	8b69                	andi	a4,a4,26
   11a3e:	dcd714e3          	bne	a4,a3,11806 <_vfprintf_r+0x82>
   11a42:	00e49703          	lh	a4,14(s1)
   11a46:	dc0740e3          	bltz	a4,11806 <_vfprintf_r+0x82>
   11a4a:	46d2                	lw	a3,20(sp)
   11a4c:	4522                	lw	a0,8(sp)
   11a4e:	865a                	mv	a2,s6
   11a50:	85a6                	mv	a1,s1
   11a52:	0e5010ef          	jal	13336 <__sbprintf>
   11a56:	c62a                	sw	a0,12(sp)
   11a58:	bf6d                	j	11a12 <_vfprintf_r+0x28e>
   11a5a:	4c22                	lw	s8,8(sp)
   11a5c:	8562                	mv	a0,s8
   11a5e:	190020ef          	jal	13bee <_localeconv_r>
   11a62:	415c                	lw	a5,4(a0)
   11a64:	853e                	mv	a0,a5
   11a66:	c2be                	sw	a5,68(sp)
   11a68:	b48ff0ef          	jal	10db0 <strlen>
   11a6c:	87aa                	mv	a5,a0
   11a6e:	8562                	mv	a0,s8
   11a70:	c4be                	sw	a5,72(sp)
   11a72:	8c3e                	mv	s8,a5
   11a74:	17a020ef          	jal	13bee <_localeconv_r>
   11a78:	451c                	lw	a5,8(a0)
   11a7a:	de3e                	sw	a5,60(sp)
   11a7c:	280c14e3          	bnez	s8,12504 <_vfprintf_r+0xd80>
   11a80:	00094883          	lbu	a7,0(s2)
   11a84:	bd05                	j	118b4 <_vfprintf_r+0x130>
   11a86:	00094883          	lbu	a7,0(s2)
   11a8a:	020cec93          	ori	s9,s9,32
   11a8e:	b51d                	j	118b4 <_vfprintf_r+0x130>
   11a90:	010cec93          	ori	s9,s9,16
   11a94:	020cf793          	andi	a5,s9,32
   11a98:	26078c63          	beqz	a5,11d10 <_vfprintf_r+0x58c>
   11a9c:	47d2                	lw	a5,20(sp)
   11a9e:	00778c13          	addi	s8,a5,7
   11aa2:	ff8c7c13          	andi	s8,s8,-8
   11aa6:	004c2783          	lw	a5,4(s8)
   11aaa:	000c2b03          	lw	s6,0(s8)
   11aae:	008c0713          	addi	a4,s8,8
   11ab2:	ca3a                	sw	a4,20(sp)
   11ab4:	8dbe                	mv	s11,a5
   11ab6:	2807c263          	bltz	a5,11d3a <_vfprintf_r+0x5b6>
   11aba:	8ee6                	mv	t4,s9
   11abc:	380ac363          	bltz	s5,11e42 <_vfprintf_r+0x6be>
   11ac0:	01bb67b3          	or	a5,s6,s11
   11ac4:	f7fcfe93          	andi	t4,s9,-129
   11ac8:	36079d63          	bnez	a5,11e42 <_vfprintf_r+0x6be>
   11acc:	380a9063          	bnez	s5,11e4c <_vfprintf_r+0x6c8>
   11ad0:	4b01                	li	s6,0
   11ad2:	8cf6                	mv	s9,t4
   11ad4:	19010d13          	addi	s10,sp,400
   11ad8:	0a714703          	lbu	a4,167(sp)
   11adc:	8dd6                	mv	s11,s5
   11ade:	016ad363          	bge	s5,s6,11ae4 <_vfprintf_r+0x360>
   11ae2:	8dda                	mv	s11,s6
   11ae4:	c802                	sw	zero,16(sp)
   11ae6:	d402                	sw	zero,40(sp)
   11ae8:	d202                	sw	zero,36(sp)
   11aea:	ce02                	sw	zero,28(sp)
   11aec:	e20701e3          	beqz	a4,1190e <_vfprintf_r+0x18a>
   11af0:	0d85                	addi	s11,s11,1
   11af2:	bd31                	j	1190e <_vfprintf_r+0x18a>
   11af4:	010cec93          	ori	s9,s9,16
   11af8:	020cf793          	andi	a5,s9,32
   11afc:	2a078b63          	beqz	a5,11db2 <_vfprintf_r+0x62e>
   11b00:	47d2                	lw	a5,20(sp)
   11b02:	00778c13          	addi	s8,a5,7
   11b06:	ff8c7c13          	andi	s8,s8,-8
   11b0a:	000c2b03          	lw	s6,0(s8)
   11b0e:	004c2d83          	lw	s11,4(s8)
   11b12:	008c0793          	addi	a5,s8,8
   11b16:	ca3e                	sw	a5,20(sp)
   11b18:	bffcfe93          	andi	t4,s9,-1025
   11b1c:	4781                	li	a5,0
   11b1e:	4701                	li	a4,0
   11b20:	0ae103a3          	sb	a4,167(sp)
   11b24:	220acb63          	bltz	s5,11d5a <_vfprintf_r+0x5d6>
   11b28:	01bb6733          	or	a4,s6,s11
   11b2c:	f7fefc93          	andi	s9,t4,-129
   11b30:	6a071e63          	bnez	a4,121ec <_vfprintf_r+0xa68>
   11b34:	520a9563          	bnez	s5,1205e <_vfprintf_r+0x8da>
   11b38:	16079ee3          	bnez	a5,124b4 <_vfprintf_r+0xd30>
   11b3c:	001efb13          	andi	s6,t4,1
   11b40:	19010d13          	addi	s10,sp,400
   11b44:	f80b0ae3          	beqz	s6,11ad8 <_vfprintf_r+0x354>
   11b48:	03000793          	li	a5,48
   11b4c:	18f107a3          	sb	a5,399(sp)
   11b50:	18f10d13          	addi	s10,sp,399
   11b54:	b751                	j	11ad8 <_vfprintf_r+0x354>
   11b56:	41a90ab3          	sub	s5,s2,s10
   11b5a:	d1a91ee3          	bne	s2,s10,11876 <_vfprintf_r+0xf2>
   11b5e:	00094703          	lbu	a4,0(s2)
   11b62:	bb2d                	j	1189c <_vfprintf_r+0x118>
   11b64:	4522                	lw	a0,8(sp)
   11b66:	01d0                	addi	a2,sp,196
   11b68:	85a6                	mv	a1,s1
   11b6a:	061010ef          	jal	133ca <__sprint_r>
   11b6e:	e60519e3          	bnez	a0,119e0 <_vfprintf_r+0x25c>
   11b72:	844e                	mv	s0,s3
   11b74:	bb39                	j	11892 <_vfprintf_r+0x10e>
   11b76:	008cf713          	andi	a4,s9,8
   11b7a:	1c0714e3          	bnez	a4,12542 <_vfprintf_r+0xdbe>
   11b7e:	47d2                	lw	a5,20(sp)
   11b80:	0908                	addi	a0,sp,144
   11b82:	c846                	sw	a7,16(sp)
   11b84:	00778c13          	addi	s8,a5,7
   11b88:	ff8c7c13          	andi	s8,s8,-8
   11b8c:	000c3507          	fld	fa0,0(s8)
   11b90:	008c0793          	addi	a5,s8,8
   11b94:	ca3e                	sw	a5,20(sp)
   11b96:	3fe080ef          	jal	19f94 <__extenddftf2>
   11b9a:	45ca                	lw	a1,144(sp)
   11b9c:	465a                	lw	a2,148(sp)
   11b9e:	46ea                	lw	a3,152(sp)
   11ba0:	477a                	lw	a4,156(sp)
   11ba2:	48c2                	lw	a7,16(sp)
   11ba4:	0988                	addi	a0,sp,208
   11ba6:	c846                	sw	a7,16(sp)
   11ba8:	cfba                	sw	a4,220(sp)
   11baa:	c9ae                	sw	a1,208(sp)
   11bac:	cbb2                	sw	a2,212(sp)
   11bae:	cdb6                	sw	a3,216(sp)
   11bb0:	5c2020ef          	jal	14172 <_ldcheck>
   11bb4:	d72a                	sw	a0,172(sp)
   11bb6:	4709                	li	a4,2
   11bb8:	48c2                	lw	a7,16(sp)
   11bba:	5ce50be3          	beq	a0,a4,12990 <_vfprintf_r+0x120c>
   11bbe:	4705                	li	a4,1
   11bc0:	6ae505e3          	beq	a0,a4,12a6a <_vfprintf_r+0x12e6>
   11bc4:	06100713          	li	a4,97
   11bc8:	2ae88ce3          	beq	a7,a4,12680 <_vfprintf_r+0xefc>
   11bcc:	04100713          	li	a4,65
   11bd0:	05800793          	li	a5,88
   11bd4:	2ae888e3          	beq	a7,a4,12684 <_vfprintf_r+0xf00>
   11bd8:	577d                	li	a4,-1
   11bda:	00ea9463          	bne	s5,a4,11be2 <_vfprintf_r+0x45e>
   11bde:	6260106f          	j	13204 <_vfprintf_r+0x1a80>
   11be2:	fdf8f713          	andi	a4,a7,-33
   11be6:	04700693          	li	a3,71
   11bea:	c802                	sw	zero,16(sp)
   11bec:	00d71563          	bne	a4,a3,11bf6 <_vfprintf_r+0x472>
   11bf0:	000a9363          	bnez	s5,11bf6 <_vfprintf_r+0x472>
   11bf4:	4a85                	li	s5,1
   11bf6:	4c7e                	lw	s8,220(sp)
   11bf8:	100ce793          	ori	a5,s9,256
   11bfc:	c6be                	sw	a5,76(sp)
   11bfe:	dc02                	sw	zero,56(sp)
   11c00:	4fce                	lw	t6,208(sp)
   11c02:	4f5e                	lw	t5,212(sp)
   11c04:	4eee                	lw	t4,216(sp)
   11c06:	000c5963          	bgez	s8,11c18 <_vfprintf_r+0x494>
   11c0a:	80000737          	lui	a4,0x80000
   11c0e:	02d00793          	li	a5,45
   11c12:	01874c33          	xor	s8,a4,s8
   11c16:	dc3e                	sw	a5,56(sp)
   11c18:	fbf88713          	addi	a4,a7,-65
   11c1c:	02500693          	li	a3,37
   11c20:	28e6eee3          	bltu	a3,a4,126bc <_vfprintf_r+0xf38>
   11c24:	66e9                	lui	a3,0x1a
   11c26:	070a                	slli	a4,a4,0x2
   11c28:	5e468693          	addi	a3,a3,1508 # 1a5e4 <k+0x26c>
   11c2c:	9736                	add	a4,a4,a3
   11c2e:	4318                	lw	a4,0(a4)
   11c30:	8702                	jr	a4
   11c32:	4522                	lw	a0,8(sp)
   11c34:	01d0                	addi	a2,sp,196
   11c36:	85a6                	mv	a1,s1
   11c38:	c8c6                	sw	a7,80(sp)
   11c3a:	c6fe                	sw	t6,76(sp)
   11c3c:	dc16                	sw	t0,56(sp)
   11c3e:	78c010ef          	jal	133ca <__sprint_r>
   11c42:	58051d63          	bnez	a0,121dc <_vfprintf_r+0xa58>
   11c46:	463e                	lw	a2,204(sp)
   11c48:	48c6                	lw	a7,80(sp)
   11c4a:	4fb6                	lw	t6,76(sp)
   11c4c:	52e2                	lw	t0,56(sp)
   11c4e:	844e                	mv	s0,s3
   11c50:	b9f5                	j	1194c <_vfprintf_r+0x1c8>
   11c52:	4aae                	lw	s5,200(sp)
   11c54:	5782                	lw	a5,32(sp)
   11c56:	4705                	li	a4,1
   11c58:	01a42023          	sw	s10,0(s0)
   11c5c:	00160c13          	addi	s8,a2,1
   11c60:	0a85                	addi	s5,s5,1
   11c62:	00840b13          	addi	s6,s0,8
   11c66:	7af75763          	bge	a4,a5,12414 <_vfprintf_r+0xc90>
   11c6a:	4705                	li	a4,1
   11c6c:	c058                	sw	a4,4(s0)
   11c6e:	c7e2                	sw	s8,204(sp)
   11c70:	c5d6                	sw	s5,200(sp)
   11c72:	471d                	li	a4,7
   11c74:	395741e3          	blt	a4,s5,127f6 <_vfprintf_r+0x1072>
   11c78:	57b2                	lw	a5,44(sp)
   11c7a:	5742                	lw	a4,48(sp)
   11c7c:	0a85                	addi	s5,s5,1
   11c7e:	9c3e                	add	s8,s8,a5
   11c80:	00eb2023          	sw	a4,0(s6)
   11c84:	00fb2223          	sw	a5,4(s6)
   11c88:	c7e2                	sw	s8,204(sp)
   11c8a:	c5d6                	sw	s5,200(sp)
   11c8c:	471d                	li	a4,7
   11c8e:	0b21                	addi	s6,s6,8
   11c90:	37574fe3          	blt	a4,s5,1280e <_vfprintf_r+0x108a>
   11c94:	474e                	lw	a4,208(sp)
   11c96:	5782                	lw	a5,32(sp)
   11c98:	010c                	addi	a1,sp,128
   11c9a:	c93a                	sw	a4,144(sp)
   11c9c:	475e                	lw	a4,212(sp)
   11c9e:	0908                	addi	a0,sp,144
   11ca0:	c102                	sw	zero,128(sp)
   11ca2:	cb3a                	sw	a4,148(sp)
   11ca4:	476e                	lw	a4,216(sp)
   11ca6:	c302                	sw	zero,132(sp)
   11ca8:	c502                	sw	zero,136(sp)
   11caa:	cd3a                	sw	a4,152(sp)
   11cac:	477e                	lw	a4,220(sp)
   11cae:	c702                	sw	zero,140(sp)
   11cb0:	fff78413          	addi	s0,a5,-1
   11cb4:	cf3a                	sw	a4,156(sp)
   11cb6:	7fb050ef          	jal	17cb0 <__eqtf2>
   11cba:	78050263          	beqz	a0,1243e <_vfprintf_r+0xcba>
   11cbe:	001d0793          	addi	a5,s10,1
   11cc2:	0a85                	addi	s5,s5,1
   11cc4:	9c22                	add	s8,s8,s0
   11cc6:	00fb2023          	sw	a5,0(s6)
   11cca:	008b2223          	sw	s0,4(s6)
   11cce:	c7e2                	sw	s8,204(sp)
   11cd0:	c5d6                	sw	s5,200(sp)
   11cd2:	479d                	li	a5,7
   11cd4:	0b21                	addi	s6,s6,8
   11cd6:	7557c963          	blt	a5,s5,12428 <_vfprintf_r+0xca4>
   11cda:	4686                	lw	a3,64(sp)
   11cdc:	1958                	addi	a4,sp,180
   11cde:	001a8793          	addi	a5,s5,1
   11ce2:	01868633          	add	a2,a3,s8
   11ce6:	00eb2023          	sw	a4,0(s6)
   11cea:	00db2223          	sw	a3,4(s6)
   11cee:	c7b2                	sw	a2,204(sp)
   11cf0:	c5be                	sw	a5,200(sp)
   11cf2:	471d                	li	a4,7
   11cf4:	008b0413          	addi	s0,s6,8
   11cf8:	caf752e3          	bge	a4,a5,1199c <_vfprintf_r+0x218>
   11cfc:	4522                	lw	a0,8(sp)
   11cfe:	01d0                	addi	a2,sp,196
   11d00:	85a6                	mv	a1,s1
   11d02:	6c8010ef          	jal	133ca <__sprint_r>
   11d06:	4c051b63          	bnez	a0,121dc <_vfprintf_r+0xa58>
   11d0a:	463e                	lw	a2,204(sp)
   11d0c:	844e                	mv	s0,s3
   11d0e:	b179                	j	1199c <_vfprintf_r+0x218>
   11d10:	4752                	lw	a4,20(sp)
   11d12:	010cf793          	andi	a5,s9,16
   11d16:	00072b03          	lw	s6,0(a4) # 80000000 <__BSS_END__+0x7ffe45a4>
   11d1a:	0711                	addi	a4,a4,4
   11d1c:	ca3a                	sw	a4,20(sp)
   11d1e:	7c079e63          	bnez	a5,124fa <_vfprintf_r+0xd76>
   11d22:	040cf793          	andi	a5,s9,64
   11d26:	7c078663          	beqz	a5,124f2 <_vfprintf_r+0xd6e>
   11d2a:	0b42                	slli	s6,s6,0x10
   11d2c:	410b5b13          	srai	s6,s6,0x10
   11d30:	41fb5d93          	srai	s11,s6,0x1f
   11d34:	87ee                	mv	a5,s11
   11d36:	d807d2e3          	bgez	a5,11aba <_vfprintf_r+0x336>
   11d3a:	02d00713          	li	a4,45
   11d3e:	016037b3          	snez	a5,s6
   11d42:	41b00db3          	neg	s11,s11
   11d46:	0ae103a3          	sb	a4,167(sp)
   11d4a:	40fd8db3          	sub	s11,s11,a5
   11d4e:	41600b33          	neg	s6,s6
   11d52:	8ee6                	mv	t4,s9
   11d54:	4785                	li	a5,1
   11d56:	dc0ad9e3          	bgez	s5,11b28 <_vfprintf_r+0x3a4>
   11d5a:	4705                	li	a4,1
   11d5c:	0ee78363          	beq	a5,a4,11e42 <_vfprintf_r+0x6be>
   11d60:	4709                	li	a4,2
   11d62:	30e78763          	beq	a5,a4,12070 <_vfprintf_r+0x8ec>
   11d66:	19010d13          	addi	s10,sp,400
   11d6a:	01dd9793          	slli	a5,s11,0x1d
   11d6e:	007b7713          	andi	a4,s6,7
   11d72:	003b5b13          	srli	s6,s6,0x3
   11d76:	03070713          	addi	a4,a4,48
   11d7a:	0167eb33          	or	s6,a5,s6
   11d7e:	003ddd93          	srli	s11,s11,0x3
   11d82:	feed0fa3          	sb	a4,-1(s10)
   11d86:	01bb67b3          	or	a5,s6,s11
   11d8a:	866a                	mv	a2,s10
   11d8c:	1d7d                	addi	s10,s10,-1
   11d8e:	fff1                	bnez	a5,11d6a <_vfprintf_r+0x5e6>
   11d90:	001ef693          	andi	a3,t4,1
   11d94:	30068463          	beqz	a3,1209c <_vfprintf_r+0x918>
   11d98:	03000693          	li	a3,48
   11d9c:	30d70063          	beq	a4,a3,1209c <_vfprintf_r+0x918>
   11da0:	1679                	addi	a2,a2,-2
   11da2:	0b1c                	addi	a5,sp,400
   11da4:	fedd0fa3          	sb	a3,-1(s10)
   11da8:	40c78b33          	sub	s6,a5,a2
   11dac:	8cf6                	mv	s9,t4
   11dae:	8d32                	mv	s10,a2
   11db0:	b325                	j	11ad8 <_vfprintf_r+0x354>
   11db2:	4752                	lw	a4,20(sp)
   11db4:	010cf793          	andi	a5,s9,16
   11db8:	00072b03          	lw	s6,0(a4)
   11dbc:	0711                	addi	a4,a4,4
   11dbe:	ca3a                	sw	a4,20(sp)
   11dc0:	72079663          	bnez	a5,124ec <_vfprintf_r+0xd68>
   11dc4:	040cf793          	andi	a5,s9,64
   11dc8:	70078e63          	beqz	a5,124e4 <_vfprintf_r+0xd60>
   11dcc:	0b42                	slli	s6,s6,0x10
   11dce:	010b5b13          	srli	s6,s6,0x10
   11dd2:	4d81                	li	s11,0
   11dd4:	b391                	j	11b18 <_vfprintf_r+0x394>
   11dd6:	4752                	lw	a4,20(sp)
   11dd8:	0a0103a3          	sb	zero,167(sp)
   11ddc:	4d85                	li	s11,1
   11dde:	431c                	lw	a5,0(a4)
   11de0:	0711                	addi	a4,a4,4
   11de2:	ca3a                	sw	a4,20(sp)
   11de4:	12f10623          	sb	a5,300(sp)
   11de8:	4b05                	li	s6,1
   11dea:	12c10d13          	addi	s10,sp,300
   11dee:	be19                	j	11904 <_vfprintf_r+0x180>
   11df0:	47d2                	lw	a5,20(sp)
   11df2:	0a0103a3          	sb	zero,167(sp)
   11df6:	0007ad03          	lw	s10,0(a5)
   11dfa:	00478c13          	addi	s8,a5,4
   11dfe:	7e0d0a63          	beqz	s10,125f2 <_vfprintf_r+0xe6e>
   11e02:	420ac4e3          	bltz	s5,12a2a <_vfprintf_r+0x12a6>
   11e06:	8656                	mv	a2,s5
   11e08:	4581                	li	a1,0
   11e0a:	856a                	mv	a0,s10
   11e0c:	ca46                	sw	a7,20(sp)
   11e0e:	4d3010ef          	jal	13ae0 <memchr>
   11e12:	c82a                	sw	a0,16(sp)
   11e14:	48d2                	lw	a7,20(sp)
   11e16:	e119                	bnez	a0,11e1c <_vfprintf_r+0x698>
   11e18:	25c0106f          	j	13074 <_vfprintf_r+0x18f0>
   11e1c:	47c2                	lw	a5,16(sp)
   11e1e:	0a714703          	lbu	a4,167(sp)
   11e22:	ca62                	sw	s8,20(sp)
   11e24:	41a78b33          	sub	s6,a5,s10
   11e28:	fffb4693          	not	a3,s6
   11e2c:	86fd                	srai	a3,a3,0x1f
   11e2e:	c802                	sw	zero,16(sp)
   11e30:	d402                	sw	zero,40(sp)
   11e32:	d202                	sw	zero,36(sp)
   11e34:	ce02                	sw	zero,28(sp)
   11e36:	00db7db3          	and	s11,s6,a3
   11e3a:	4a81                	li	s5,0
   11e3c:	ca071ae3          	bnez	a4,11af0 <_vfprintf_r+0x36c>
   11e40:	b4f9                	j	1190e <_vfprintf_r+0x18a>
   11e42:	1e0d98e3          	bnez	s11,12832 <_vfprintf_r+0x10ae>
   11e46:	47a5                	li	a5,9
   11e48:	1f67e5e3          	bltu	a5,s6,12832 <_vfprintf_r+0x10ae>
   11e4c:	030b0b13          	addi	s6,s6,48
   11e50:	196107a3          	sb	s6,399(sp)
   11e54:	8cf6                	mv	s9,t4
   11e56:	4b05                	li	s6,1
   11e58:	18f10d13          	addi	s10,sp,399
   11e5c:	b9b5                	j	11ad8 <_vfprintf_r+0x354>
   11e5e:	47d2                	lw	a5,20(sp)
   11e60:	0007ab83          	lw	s7,0(a5)
   11e64:	0791                	addi	a5,a5,4
   11e66:	660bd163          	bgez	s7,124c8 <_vfprintf_r+0xd44>
   11e6a:	41700bb3          	neg	s7,s7
   11e6e:	ca3e                	sw	a5,20(sp)
   11e70:	00094883          	lbu	a7,0(s2)
   11e74:	004cec93          	ori	s9,s9,4
   11e78:	bc35                	j	118b4 <_vfprintf_r+0x130>
   11e7a:	02b00793          	li	a5,43
   11e7e:	00094883          	lbu	a7,0(s2)
   11e82:	0af103a3          	sb	a5,167(sp)
   11e86:	b43d                	j	118b4 <_vfprintf_r+0x130>
   11e88:	00094883          	lbu	a7,0(s2)
   11e8c:	080cec93          	ori	s9,s9,128
   11e90:	b415                	j	118b4 <_vfprintf_r+0x130>
   11e92:	00094883          	lbu	a7,0(s2)
   11e96:	02a00793          	li	a5,42
   11e9a:	00190693          	addi	a3,s2,1
   11e9e:	00f89463          	bne	a7,a5,11ea6 <_vfprintf_r+0x722>
   11ea2:	44c0106f          	j	132ee <_vfprintf_r+0x1b6a>
   11ea6:	fd088793          	addi	a5,a7,-48
   11eaa:	4725                	li	a4,9
   11eac:	4a81                	li	s5,0
   11eae:	4625                	li	a2,9
   11eb0:	02f76063          	bltu	a4,a5,11ed0 <_vfprintf_r+0x74c>
   11eb4:	0006c883          	lbu	a7,0(a3)
   11eb8:	002a9713          	slli	a4,s5,0x2
   11ebc:	9aba                	add	s5,s5,a4
   11ebe:	0a86                	slli	s5,s5,0x1
   11ec0:	9abe                	add	s5,s5,a5
   11ec2:	fd088793          	addi	a5,a7,-48
   11ec6:	0685                	addi	a3,a3,1
   11ec8:	fef676e3          	bgeu	a2,a5,11eb4 <_vfprintf_r+0x730>
   11ecc:	680ac963          	bltz	s5,1255e <_vfprintf_r+0xdda>
   11ed0:	8936                	mv	s2,a3
   11ed2:	b2d5                	j	118b6 <_vfprintf_r+0x132>
   11ed4:	00094883          	lbu	a7,0(s2)
   11ed8:	001cec93          	ori	s9,s9,1
   11edc:	bae1                	j	118b4 <_vfprintf_r+0x130>
   11ede:	0a714783          	lbu	a5,167(sp)
   11ee2:	00094883          	lbu	a7,0(s2)
   11ee6:	9c0797e3          	bnez	a5,118b4 <_vfprintf_r+0x130>
   11eea:	02000793          	li	a5,32
   11eee:	0af103a3          	sb	a5,167(sp)
   11ef2:	b2c9                	j	118b4 <_vfprintf_r+0x130>
   11ef4:	010cee93          	ori	t4,s9,16
   11ef8:	020ef793          	andi	a5,t4,32
   11efc:	58078a63          	beqz	a5,12490 <_vfprintf_r+0xd0c>
   11f00:	47d2                	lw	a5,20(sp)
   11f02:	00778c13          	addi	s8,a5,7
   11f06:	ff8c7c13          	andi	s8,s8,-8
   11f0a:	008c0793          	addi	a5,s8,8
   11f0e:	ca3e                	sw	a5,20(sp)
   11f10:	000c2b03          	lw	s6,0(s8)
   11f14:	004c2d83          	lw	s11,4(s8)
   11f18:	4785                	li	a5,1
   11f1a:	b111                	j	11b1e <_vfprintf_r+0x39a>
   11f1c:	00094883          	lbu	a7,0(s2)
   11f20:	008cec93          	ori	s9,s9,8
   11f24:	ba41                	j	118b4 <_vfprintf_r+0x130>
   11f26:	4752                	lw	a4,20(sp)
   11f28:	67a1                	lui	a5,0x8
   11f2a:	83078793          	addi	a5,a5,-2000 # 7830 <exit-0x8864>
   11f2e:	0af11423          	sh	a5,168(sp)
   11f32:	00470793          	addi	a5,a4,4
   11f36:	ca3e                	sw	a5,20(sp)
   11f38:	67e9                	lui	a5,0x1a
   11f3a:	1f878793          	addi	a5,a5,504 # 1a1f8 <__clzsi2+0xd8>
   11f3e:	da3e                	sw	a5,52(sp)
   11f40:	00072b03          	lw	s6,0(a4)
   11f44:	4d81                	li	s11,0
   11f46:	002cee93          	ori	t4,s9,2
   11f4a:	4789                	li	a5,2
   11f4c:	07800893          	li	a7,120
   11f50:	b6f9                	j	11b1e <_vfprintf_r+0x39a>
   11f52:	020cf793          	andi	a5,s9,32
   11f56:	5c078463          	beqz	a5,1251e <_vfprintf_r+0xd9a>
   11f5a:	47d2                	lw	a5,20(sp)
   11f5c:	46b2                	lw	a3,12(sp)
   11f5e:	439c                	lw	a5,0(a5)
   11f60:	41f6d713          	srai	a4,a3,0x1f
   11f64:	c394                	sw	a3,0(a5)
   11f66:	c3d8                	sw	a4,4(a5)
   11f68:	47d2                	lw	a5,20(sp)
   11f6a:	8d4a                	mv	s10,s2
   11f6c:	0791                	addi	a5,a5,4
   11f6e:	ca3e                	sw	a5,20(sp)
   11f70:	b485                	j	119d0 <_vfprintf_r+0x24c>
   11f72:	00094883          	lbu	a7,0(s2)
   11f76:	06c00793          	li	a5,108
   11f7a:	64f88b63          	beq	a7,a5,125d0 <_vfprintf_r+0xe4c>
   11f7e:	010cec93          	ori	s9,s9,16
   11f82:	ba0d                	j	118b4 <_vfprintf_r+0x130>
   11f84:	00094883          	lbu	a7,0(s2)
   11f88:	06800793          	li	a5,104
   11f8c:	62f88b63          	beq	a7,a5,125c2 <_vfprintf_r+0xe3e>
   11f90:	040cec93          	ori	s9,s9,64
   11f94:	b205                	j	118b4 <_vfprintf_r+0x130>
   11f96:	06500713          	li	a4,101
   11f9a:	cb175ce3          	bge	a4,a7,11c52 <_vfprintf_r+0x4ce>
   11f9e:	474e                	lw	a4,208(sp)
   11fa0:	010c                	addi	a1,sp,128
   11fa2:	0908                	addi	a0,sp,144
   11fa4:	c93a                	sw	a4,144(sp)
   11fa6:	475e                	lw	a4,212(sp)
   11fa8:	dc32                	sw	a2,56(sp)
   11faa:	c102                	sw	zero,128(sp)
   11fac:	cb3a                	sw	a4,148(sp)
   11fae:	476e                	lw	a4,216(sp)
   11fb0:	c302                	sw	zero,132(sp)
   11fb2:	c502                	sw	zero,136(sp)
   11fb4:	cd3a                	sw	a4,152(sp)
   11fb6:	477e                	lw	a4,220(sp)
   11fb8:	c702                	sw	zero,140(sp)
   11fba:	cf3a                	sw	a4,156(sp)
   11fbc:	4f5050ef          	jal	17cb0 <__eqtf2>
   11fc0:	5662                	lw	a2,56(sp)
   11fc2:	36051363          	bnez	a0,12328 <_vfprintf_r+0xba4>
   11fc6:	47ae                	lw	a5,200(sp)
   11fc8:	6769                	lui	a4,0x1a
   11fca:	22870713          	addi	a4,a4,552 # 1a228 <__clzsi2+0x108>
   11fce:	c018                	sw	a4,0(s0)
   11fd0:	0605                	addi	a2,a2,1
   11fd2:	4705                	li	a4,1
   11fd4:	0785                	addi	a5,a5,1
   11fd6:	c058                	sw	a4,4(s0)
   11fd8:	c7b2                	sw	a2,204(sp)
   11fda:	c5be                	sw	a5,200(sp)
   11fdc:	471d                	li	a4,7
   11fde:	0421                	addi	s0,s0,8
   11fe0:	16f74de3          	blt	a4,a5,1295a <_vfprintf_r+0x11d6>
   11fe4:	57ba                	lw	a5,172(sp)
   11fe6:	5702                	lw	a4,32(sp)
   11fe8:	4ce7db63          	bge	a5,a4,124be <_vfprintf_r+0xd3a>
   11fec:	57c2                	lw	a5,48(sp)
   11fee:	5732                	lw	a4,44(sp)
   11ff0:	0421                	addi	s0,s0,8
   11ff2:	fef42c23          	sw	a5,-8(s0)
   11ff6:	47ae                	lw	a5,200(sp)
   11ff8:	963a                	add	a2,a2,a4
   11ffa:	fee42e23          	sw	a4,-4(s0)
   11ffe:	0785                	addi	a5,a5,1
   12000:	c7b2                	sw	a2,204(sp)
   12002:	c5be                	sw	a5,200(sp)
   12004:	471d                	li	a4,7
   12006:	5cf74c63          	blt	a4,a5,125de <_vfprintf_r+0xe5a>
   1200a:	5782                	lw	a5,32(sp)
   1200c:	fff78a93          	addi	s5,a5,-1
   12010:	995056e3          	blez	s5,1199c <_vfprintf_r+0x218>
   12014:	6869                	lui	a6,0x1a
   12016:	67c80813          	addi	a6,a6,1660 # 1a67c <zeroes.0>
   1201a:	4741                	li	a4,16
   1201c:	47ae                	lw	a5,200(sp)
   1201e:	4b41                	li	s6,16
   12020:	4c1d                	li	s8,7
   12022:	8d42                	mv	s10,a6
   12024:	01574763          	blt	a4,s5,12032 <_vfprintf_r+0x8ae>
   12028:	14b0006f          	j	12972 <_vfprintf_r+0x11ee>
   1202c:	1ac1                	addi	s5,s5,-16
   1202e:	155b51e3          	bge	s6,s5,12970 <_vfprintf_r+0x11ec>
   12032:	0641                	addi	a2,a2,16
   12034:	0785                	addi	a5,a5,1
   12036:	01a42023          	sw	s10,0(s0)
   1203a:	01642223          	sw	s6,4(s0)
   1203e:	c7b2                	sw	a2,204(sp)
   12040:	c5be                	sw	a5,200(sp)
   12042:	0421                	addi	s0,s0,8
   12044:	fefc54e3          	bge	s8,a5,1202c <_vfprintf_r+0x8a8>
   12048:	4522                	lw	a0,8(sp)
   1204a:	01d0                	addi	a2,sp,196
   1204c:	85a6                	mv	a1,s1
   1204e:	37c010ef          	jal	133ca <__sprint_r>
   12052:	18051563          	bnez	a0,121dc <_vfprintf_r+0xa58>
   12056:	463e                	lw	a2,204(sp)
   12058:	47ae                	lw	a5,200(sp)
   1205a:	844e                	mv	s0,s3
   1205c:	bfc1                	j	1202c <_vfprintf_r+0x8a8>
   1205e:	4705                	li	a4,1
   12060:	00e79463          	bne	a5,a4,12068 <_vfprintf_r+0x8e4>
   12064:	0f20106f          	j	13156 <_vfprintf_r+0x19d2>
   12068:	4709                	li	a4,2
   1206a:	8ee6                	mv	t4,s9
   1206c:	cee79de3          	bne	a5,a4,11d66 <_vfprintf_r+0x5e2>
   12070:	56d2                	lw	a3,52(sp)
   12072:	19010d13          	addi	s10,sp,400
   12076:	00fb7793          	andi	a5,s6,15
   1207a:	97b6                	add	a5,a5,a3
   1207c:	0007c703          	lbu	a4,0(a5)
   12080:	004b5b13          	srli	s6,s6,0x4
   12084:	01cd9793          	slli	a5,s11,0x1c
   12088:	0167eb33          	or	s6,a5,s6
   1208c:	004ddd93          	srli	s11,s11,0x4
   12090:	feed0fa3          	sb	a4,-1(s10)
   12094:	01bb67b3          	or	a5,s6,s11
   12098:	1d7d                	addi	s10,s10,-1
   1209a:	fff1                	bnez	a5,12076 <_vfprintf_r+0x8f2>
   1209c:	0b1c                	addi	a5,sp,400
   1209e:	41a78b33          	sub	s6,a5,s10
   120a2:	8cf6                	mv	s9,t4
   120a4:	bc15                	j	11ad8 <_vfprintf_r+0x354>
   120a6:	41bb8c33          	sub	s8,s7,s11
   120aa:	8d8054e3          	blez	s8,11972 <_vfprintf_r+0x1ee>
   120ae:	6869                	lui	a6,0x1a
   120b0:	4541                	li	a0,16
   120b2:	45ae                	lw	a1,200(sp)
   120b4:	67c80813          	addi	a6,a6,1660 # 1a67c <zeroes.0>
   120b8:	05855f63          	bge	a0,s8,12116 <_vfprintf_r+0x992>
   120bc:	dc4a                	sw	s2,56(sp)
   120be:	87a2                	mv	a5,s0
   120c0:	4ec1                	li	t4,16
   120c2:	8462                	mv	s0,s8
   120c4:	4f9d                	li	t6,7
   120c6:	8c5a                	mv	s8,s6
   120c8:	8942                	mv	s2,a6
   120ca:	8b56                	mv	s6,s5
   120cc:	8ac6                	mv	s5,a7
   120ce:	a021                	j	120d6 <_vfprintf_r+0x952>
   120d0:	1441                	addi	s0,s0,-16
   120d2:	028edb63          	bge	t4,s0,12108 <_vfprintf_r+0x984>
   120d6:	0641                	addi	a2,a2,16
   120d8:	0585                	addi	a1,a1,1 # 2001 <exit-0xe093>
   120da:	0127a023          	sw	s2,0(a5)
   120de:	01d7a223          	sw	t4,4(a5)
   120e2:	c7b2                	sw	a2,204(sp)
   120e4:	c5ae                	sw	a1,200(sp)
   120e6:	07a1                	addi	a5,a5,8
   120e8:	febfd4e3          	bge	t6,a1,120d0 <_vfprintf_r+0x94c>
   120ec:	4522                	lw	a0,8(sp)
   120ee:	01d0                	addi	a2,sp,196
   120f0:	85a6                	mv	a1,s1
   120f2:	2d8010ef          	jal	133ca <__sprint_r>
   120f6:	e17d                	bnez	a0,121dc <_vfprintf_r+0xa58>
   120f8:	4ec1                	li	t4,16
   120fa:	1441                	addi	s0,s0,-16
   120fc:	463e                	lw	a2,204(sp)
   120fe:	45ae                	lw	a1,200(sp)
   12100:	87ce                	mv	a5,s3
   12102:	4f9d                	li	t6,7
   12104:	fc8ec9e3          	blt	t4,s0,120d6 <_vfprintf_r+0x952>
   12108:	884a                	mv	a6,s2
   1210a:	5962                	lw	s2,56(sp)
   1210c:	88d6                	mv	a7,s5
   1210e:	8ada                	mv	s5,s6
   12110:	8b62                	mv	s6,s8
   12112:	8c22                	mv	s8,s0
   12114:	843e                	mv	s0,a5
   12116:	9662                	add	a2,a2,s8
   12118:	0585                	addi	a1,a1,1
   1211a:	01042023          	sw	a6,0(s0)
   1211e:	01842223          	sw	s8,4(s0)
   12122:	c7b2                	sw	a2,204(sp)
   12124:	c5ae                	sw	a1,200(sp)
   12126:	471d                	li	a4,7
   12128:	0421                	addi	s0,s0,8
   1212a:	84b754e3          	bge	a4,a1,11972 <_vfprintf_r+0x1ee>
   1212e:	4522                	lw	a0,8(sp)
   12130:	01d0                	addi	a2,sp,196
   12132:	85a6                	mv	a1,s1
   12134:	dc46                	sw	a7,56(sp)
   12136:	294010ef          	jal	133ca <__sprint_r>
   1213a:	e14d                	bnez	a0,121dc <_vfprintf_r+0xa58>
   1213c:	463e                	lw	a2,204(sp)
   1213e:	58e2                	lw	a7,56(sp)
   12140:	844e                	mv	s0,s3
   12142:	831ff06f          	j	11972 <_vfprintf_r+0x1ee>
   12146:	6869                	lui	a6,0x1a
   12148:	4741                	li	a4,16
   1214a:	45ae                	lw	a1,200(sp)
   1214c:	67c80813          	addi	a6,a6,1660 # 1a67c <zeroes.0>
   12150:	05575763          	bge	a4,s5,1219e <_vfprintf_r+0xa1a>
   12154:	87a2                	mv	a5,s0
   12156:	4741                	li	a4,16
   12158:	8456                	mv	s0,s5
   1215a:	4c1d                	li	s8,7
   1215c:	dc46                	sw	a7,56(sp)
   1215e:	8ad2                	mv	s5,s4
   12160:	a021                	j	12168 <_vfprintf_r+0x9e4>
   12162:	1441                	addi	s0,s0,-16
   12164:	02875963          	bge	a4,s0,12196 <_vfprintf_r+0xa12>
   12168:	0641                	addi	a2,a2,16
   1216a:	0585                	addi	a1,a1,1
   1216c:	0147a023          	sw	s4,0(a5)
   12170:	c3d8                	sw	a4,4(a5)
   12172:	c7b2                	sw	a2,204(sp)
   12174:	c5ae                	sw	a1,200(sp)
   12176:	07a1                	addi	a5,a5,8
   12178:	febc55e3          	bge	s8,a1,12162 <_vfprintf_r+0x9de>
   1217c:	4522                	lw	a0,8(sp)
   1217e:	01d0                	addi	a2,sp,196
   12180:	85a6                	mv	a1,s1
   12182:	248010ef          	jal	133ca <__sprint_r>
   12186:	e939                	bnez	a0,121dc <_vfprintf_r+0xa58>
   12188:	4741                	li	a4,16
   1218a:	1441                	addi	s0,s0,-16
   1218c:	463e                	lw	a2,204(sp)
   1218e:	45ae                	lw	a1,200(sp)
   12190:	87ce                	mv	a5,s3
   12192:	fc874be3          	blt	a4,s0,12168 <_vfprintf_r+0x9e4>
   12196:	58e2                	lw	a7,56(sp)
   12198:	8856                	mv	a6,s5
   1219a:	8aa2                	mv	s5,s0
   1219c:	843e                	mv	s0,a5
   1219e:	9656                	add	a2,a2,s5
   121a0:	0585                	addi	a1,a1,1
   121a2:	01042023          	sw	a6,0(s0)
   121a6:	01542223          	sw	s5,4(s0)
   121aa:	c7b2                	sw	a2,204(sp)
   121ac:	c5ae                	sw	a1,200(sp)
   121ae:	471d                	li	a4,7
   121b0:	0421                	addi	s0,s0,8
   121b2:	fcb75463          	bge	a4,a1,1197a <_vfprintf_r+0x1f6>
   121b6:	4522                	lw	a0,8(sp)
   121b8:	01d0                	addi	a2,sp,196
   121ba:	85a6                	mv	a1,s1
   121bc:	dc46                	sw	a7,56(sp)
   121be:	20c010ef          	jal	133ca <__sprint_r>
   121c2:	ed09                	bnez	a0,121dc <_vfprintf_r+0xa58>
   121c4:	463e                	lw	a2,204(sp)
   121c6:	58e2                	lw	a7,56(sp)
   121c8:	844e                	mv	s0,s3
   121ca:	fb0ff06f          	j	1197a <_vfprintf_r+0x1f6>
   121ce:	4522                	lw	a0,8(sp)
   121d0:	01d0                	addi	a2,sp,196
   121d2:	85a6                	mv	a1,s1
   121d4:	1f6010ef          	jal	133ca <__sprint_r>
   121d8:	fe050363          	beqz	a0,119be <_vfprintf_r+0x23a>
   121dc:	45c2                	lw	a1,16(sp)
   121de:	800581e3          	beqz	a1,119e0 <_vfprintf_r+0x25c>
   121e2:	4522                	lw	a0,8(sp)
   121e4:	dd7fe0ef          	jal	10fba <_free_r>
   121e8:	ff8ff06f          	j	119e0 <_vfprintf_r+0x25c>
   121ec:	8ee6                	mv	t4,s9
   121ee:	b6b5                	j	11d5a <_vfprintf_r+0x5d6>
   121f0:	6869                	lui	a6,0x1a
   121f2:	4541                	li	a0,16
   121f4:	45ae                	lw	a1,200(sp)
   121f6:	68c80c13          	addi	s8,a6,1676 # 1a68c <blanks.1>
   121fa:	06e55363          	bge	a0,a4,12260 <_vfprintf_r+0xadc>
   121fe:	c8ca                	sw	s2,80(sp)
   12200:	87a2                	mv	a5,s0
   12202:	8962                	mv	s2,s8
   12204:	4ec1                	li	t4,16
   12206:	8c5a                	mv	s8,s6
   12208:	439d                	li	t2,7
   1220a:	8b56                	mv	s6,s5
   1220c:	dc16                	sw	t0,56(sp)
   1220e:	c6fe                	sw	t6,76(sp)
   12210:	843a                	mv	s0,a4
   12212:	8ac6                	mv	s5,a7
   12214:	a021                	j	1221c <_vfprintf_r+0xa98>
   12216:	1441                	addi	s0,s0,-16
   12218:	028edb63          	bge	t4,s0,1224e <_vfprintf_r+0xaca>
   1221c:	0641                	addi	a2,a2,16
   1221e:	0585                	addi	a1,a1,1
   12220:	0127a023          	sw	s2,0(a5)
   12224:	01d7a223          	sw	t4,4(a5)
   12228:	c7b2                	sw	a2,204(sp)
   1222a:	c5ae                	sw	a1,200(sp)
   1222c:	07a1                	addi	a5,a5,8
   1222e:	feb3d4e3          	bge	t2,a1,12216 <_vfprintf_r+0xa92>
   12232:	4522                	lw	a0,8(sp)
   12234:	01d0                	addi	a2,sp,196
   12236:	85a6                	mv	a1,s1
   12238:	192010ef          	jal	133ca <__sprint_r>
   1223c:	f145                	bnez	a0,121dc <_vfprintf_r+0xa58>
   1223e:	4ec1                	li	t4,16
   12240:	1441                	addi	s0,s0,-16
   12242:	463e                	lw	a2,204(sp)
   12244:	45ae                	lw	a1,200(sp)
   12246:	87ce                	mv	a5,s3
   12248:	439d                	li	t2,7
   1224a:	fc8ec9e3          	blt	t4,s0,1221c <_vfprintf_r+0xa98>
   1224e:	88d6                	mv	a7,s5
   12250:	52e2                	lw	t0,56(sp)
   12252:	8ada                	mv	s5,s6
   12254:	4fb6                	lw	t6,76(sp)
   12256:	8b62                	mv	s6,s8
   12258:	8c4a                	mv	s8,s2
   1225a:	4946                	lw	s2,80(sp)
   1225c:	8722                	mv	a4,s0
   1225e:	843e                	mv	s0,a5
   12260:	963a                	add	a2,a2,a4
   12262:	0585                	addi	a1,a1,1
   12264:	c058                	sw	a4,4(s0)
   12266:	01842023          	sw	s8,0(s0)
   1226a:	c7b2                	sw	a2,204(sp)
   1226c:	c5ae                	sw	a1,200(sp)
   1226e:	471d                	li	a4,7
   12270:	0421                	addi	s0,s0,8
   12272:	eab75c63          	bge	a4,a1,1192a <_vfprintf_r+0x1a6>
   12276:	4522                	lw	a0,8(sp)
   12278:	01d0                	addi	a2,sp,196
   1227a:	85a6                	mv	a1,s1
   1227c:	c8c6                	sw	a7,80(sp)
   1227e:	c6fe                	sw	t6,76(sp)
   12280:	dc16                	sw	t0,56(sp)
   12282:	148010ef          	jal	133ca <__sprint_r>
   12286:	f939                	bnez	a0,121dc <_vfprintf_r+0xa58>
   12288:	463e                	lw	a2,204(sp)
   1228a:	48c6                	lw	a7,80(sp)
   1228c:	4fb6                	lw	t6,76(sp)
   1228e:	52e2                	lw	t0,56(sp)
   12290:	844e                	mv	s0,s3
   12292:	e98ff06f          	j	1192a <_vfprintf_r+0x1a6>
   12296:	4522                	lw	a0,8(sp)
   12298:	01d0                	addi	a2,sp,196
   1229a:	85a6                	mv	a1,s1
   1229c:	c6c6                	sw	a7,76(sp)
   1229e:	dc7e                	sw	t6,56(sp)
   122a0:	12a010ef          	jal	133ca <__sprint_r>
   122a4:	fd05                	bnez	a0,121dc <_vfprintf_r+0xa58>
   122a6:	463e                	lw	a2,204(sp)
   122a8:	48b6                	lw	a7,76(sp)
   122aa:	5fe2                	lw	t6,56(sp)
   122ac:	844e                	mv	s0,s3
   122ae:	ebcff06f          	j	1196a <_vfprintf_r+0x1e6>
   122b2:	6869                	lui	a6,0x1a
   122b4:	4741                	li	a4,16
   122b6:	47ae                	lw	a5,200(sp)
   122b8:	68c80c13          	addi	s8,a6,1676 # 1a68c <blanks.1>
   122bc:	05575163          	bge	a4,s5,122fe <_vfprintf_r+0xb7a>
   122c0:	4d22                	lw	s10,8(sp)
   122c2:	4b41                	li	s6,16
   122c4:	4c9d                	li	s9,7
   122c6:	a021                	j	122ce <_vfprintf_r+0xb4a>
   122c8:	1ac1                	addi	s5,s5,-16
   122ca:	035b5a63          	bge	s6,s5,122fe <_vfprintf_r+0xb7a>
   122ce:	0641                	addi	a2,a2,16
   122d0:	0785                	addi	a5,a5,1
   122d2:	01842023          	sw	s8,0(s0)
   122d6:	01642223          	sw	s6,4(s0)
   122da:	c7b2                	sw	a2,204(sp)
   122dc:	c5be                	sw	a5,200(sp)
   122de:	0421                	addi	s0,s0,8
   122e0:	fefcd4e3          	bge	s9,a5,122c8 <_vfprintf_r+0xb44>
   122e4:	01d0                	addi	a2,sp,196
   122e6:	85a6                	mv	a1,s1
   122e8:	856a                	mv	a0,s10
   122ea:	0e0010ef          	jal	133ca <__sprint_r>
   122ee:	ee0517e3          	bnez	a0,121dc <_vfprintf_r+0xa58>
   122f2:	1ac1                	addi	s5,s5,-16
   122f4:	463e                	lw	a2,204(sp)
   122f6:	47ae                	lw	a5,200(sp)
   122f8:	844e                	mv	s0,s3
   122fa:	fd5b4ae3          	blt	s6,s5,122ce <_vfprintf_r+0xb4a>
   122fe:	9656                	add	a2,a2,s5
   12300:	0785                	addi	a5,a5,1
   12302:	01842023          	sw	s8,0(s0)
   12306:	01542223          	sw	s5,4(s0)
   1230a:	c7b2                	sw	a2,204(sp)
   1230c:	c5be                	sw	a5,200(sp)
   1230e:	471d                	li	a4,7
   12310:	e8f75e63          	bge	a4,a5,119ac <_vfprintf_r+0x228>
   12314:	4522                	lw	a0,8(sp)
   12316:	01d0                	addi	a2,sp,196
   12318:	85a6                	mv	a1,s1
   1231a:	0b0010ef          	jal	133ca <__sprint_r>
   1231e:	ea051fe3          	bnez	a0,121dc <_vfprintf_r+0xa58>
   12322:	463e                	lw	a2,204(sp)
   12324:	e88ff06f          	j	119ac <_vfprintf_r+0x228>
   12328:	553a                	lw	a0,172(sp)
   1232a:	5ca05e63          	blez	a0,12906 <_vfprintf_r+0x1182>
   1232e:	47f2                	lw	a5,28(sp)
   12330:	5702                	lw	a4,32(sp)
   12332:	8abe                	mv	s5,a5
   12334:	22f74163          	blt	a4,a5,12556 <_vfprintf_r+0xdd2>
   12338:	01505f63          	blez	s5,12356 <_vfprintf_r+0xbd2>
   1233c:	472e                	lw	a4,200(sp)
   1233e:	9656                	add	a2,a2,s5
   12340:	01a42023          	sw	s10,0(s0)
   12344:	0705                	addi	a4,a4,1
   12346:	01542223          	sw	s5,4(s0)
   1234a:	c7b2                	sw	a2,204(sp)
   1234c:	c5ba                	sw	a4,200(sp)
   1234e:	459d                	li	a1,7
   12350:	0421                	addi	s0,s0,8
   12352:	14e5c5e3          	blt	a1,a4,12c9c <_vfprintf_r+0x1518>
   12356:	fffac713          	not	a4,s5
   1235a:	47f2                	lw	a5,28(sp)
   1235c:	877d                	srai	a4,a4,0x1f
   1235e:	00eafab3          	and	s5,s5,a4
   12362:	41578ab3          	sub	s5,a5,s5
   12366:	2b504163          	bgtz	s5,12608 <_vfprintf_r+0xe84>
   1236a:	47f2                	lw	a5,28(sp)
   1236c:	400cf713          	andi	a4,s9,1024
   12370:	00fd0c33          	add	s8,s10,a5
   12374:	7a071e63          	bnez	a4,12b30 <_vfprintf_r+0x13ac>
   12378:	5aba                	lw	s5,172(sp)
   1237a:	5782                	lw	a5,32(sp)
   1237c:	2cfaca63          	blt	s5,a5,12650 <_vfprintf_r+0xecc>
   12380:	001cf713          	andi	a4,s9,1
   12384:	2c071663          	bnez	a4,12650 <_vfprintf_r+0xecc>
   12388:	5702                	lw	a4,32(sp)
   1238a:	00ed07b3          	add	a5,s10,a4
   1238e:	41570ab3          	sub	s5,a4,s5
   12392:	41878b33          	sub	s6,a5,s8
   12396:	016ad363          	bge	s5,s6,1239c <_vfprintf_r+0xc18>
   1239a:	8b56                	mv	s6,s5
   1239c:	01605f63          	blez	s6,123ba <_vfprintf_r+0xc36>
   123a0:	47ae                	lw	a5,200(sp)
   123a2:	965a                	add	a2,a2,s6
   123a4:	01842023          	sw	s8,0(s0)
   123a8:	0785                	addi	a5,a5,1
   123aa:	01642223          	sw	s6,4(s0)
   123ae:	c7b2                	sw	a2,204(sp)
   123b0:	c5be                	sw	a5,200(sp)
   123b2:	471d                	li	a4,7
   123b4:	0421                	addi	s0,s0,8
   123b6:	4cf74de3          	blt	a4,a5,13090 <_vfprintf_r+0x190c>
   123ba:	fffb4793          	not	a5,s6
   123be:	87fd                	srai	a5,a5,0x1f
   123c0:	00fb7b33          	and	s6,s6,a5
   123c4:	416a8ab3          	sub	s5,s5,s6
   123c8:	dd505a63          	blez	s5,1199c <_vfprintf_r+0x218>
   123cc:	6869                	lui	a6,0x1a
   123ce:	67c80813          	addi	a6,a6,1660 # 1a67c <zeroes.0>
   123d2:	4741                	li	a4,16
   123d4:	47ae                	lw	a5,200(sp)
   123d6:	4b41                	li	s6,16
   123d8:	4c1d                	li	s8,7
   123da:	8d42                	mv	s10,a6
   123dc:	01574663          	blt	a4,s5,123e8 <_vfprintf_r+0xc64>
   123e0:	ab49                	j	12972 <_vfprintf_r+0x11ee>
   123e2:	1ac1                	addi	s5,s5,-16
   123e4:	595b5663          	bge	s6,s5,12970 <_vfprintf_r+0x11ec>
   123e8:	0641                	addi	a2,a2,16
   123ea:	0785                	addi	a5,a5,1
   123ec:	01a42023          	sw	s10,0(s0)
   123f0:	01642223          	sw	s6,4(s0)
   123f4:	c7b2                	sw	a2,204(sp)
   123f6:	c5be                	sw	a5,200(sp)
   123f8:	0421                	addi	s0,s0,8
   123fa:	fefc54e3          	bge	s8,a5,123e2 <_vfprintf_r+0xc5e>
   123fe:	4522                	lw	a0,8(sp)
   12400:	01d0                	addi	a2,sp,196
   12402:	85a6                	mv	a1,s1
   12404:	7c7000ef          	jal	133ca <__sprint_r>
   12408:	dc051ae3          	bnez	a0,121dc <_vfprintf_r+0xa58>
   1240c:	463e                	lw	a2,204(sp)
   1240e:	47ae                	lw	a5,200(sp)
   12410:	844e                	mv	s0,s3
   12412:	bfc1                	j	123e2 <_vfprintf_r+0xc5e>
   12414:	001cf593          	andi	a1,s9,1
   12418:	840599e3          	bnez	a1,11c6a <_vfprintf_r+0x4e6>
   1241c:	c058                	sw	a4,4(s0)
   1241e:	c7e2                	sw	s8,204(sp)
   12420:	c5d6                	sw	s5,200(sp)
   12422:	479d                	li	a5,7
   12424:	8b57dbe3          	bge	a5,s5,11cda <_vfprintf_r+0x556>
   12428:	4522                	lw	a0,8(sp)
   1242a:	01d0                	addi	a2,sp,196
   1242c:	85a6                	mv	a1,s1
   1242e:	79d000ef          	jal	133ca <__sprint_r>
   12432:	da0515e3          	bnez	a0,121dc <_vfprintf_r+0xa58>
   12436:	4c3e                	lw	s8,204(sp)
   12438:	4aae                	lw	s5,200(sp)
   1243a:	8b4e                	mv	s6,s3
   1243c:	b879                	j	11cda <_vfprintf_r+0x556>
   1243e:	5702                	lw	a4,32(sp)
   12440:	4785                	li	a5,1
   12442:	88e7dce3          	bge	a5,a4,11cda <_vfprintf_r+0x556>
   12446:	6869                	lui	a6,0x1a
   12448:	47c5                	li	a5,17
   1244a:	67c80813          	addi	a6,a6,1660 # 1a67c <zeroes.0>
   1244e:	60e7d863          	bge	a5,a4,12a5e <_vfprintf_r+0x12da>
   12452:	ce4a                	sw	s2,28(sp)
   12454:	47c1                	li	a5,16
   12456:	4d1d                	li	s10,7
   12458:	8942                	mv	s2,a6
   1245a:	a021                	j	12462 <_vfprintf_r+0xcde>
   1245c:	1441                	addi	s0,s0,-16
   1245e:	5e87de63          	bge	a5,s0,12a5a <_vfprintf_r+0x12d6>
   12462:	0c41                	addi	s8,s8,16
   12464:	0a85                	addi	s5,s5,1
   12466:	012b2023          	sw	s2,0(s6)
   1246a:	00fb2223          	sw	a5,4(s6)
   1246e:	c7e2                	sw	s8,204(sp)
   12470:	c5d6                	sw	s5,200(sp)
   12472:	0b21                	addi	s6,s6,8
   12474:	ff5d54e3          	bge	s10,s5,1245c <_vfprintf_r+0xcd8>
   12478:	4522                	lw	a0,8(sp)
   1247a:	01d0                	addi	a2,sp,196
   1247c:	85a6                	mv	a1,s1
   1247e:	74d000ef          	jal	133ca <__sprint_r>
   12482:	d4051de3          	bnez	a0,121dc <_vfprintf_r+0xa58>
   12486:	4c3e                	lw	s8,204(sp)
   12488:	4aae                	lw	s5,200(sp)
   1248a:	8b4e                	mv	s6,s3
   1248c:	47c1                	li	a5,16
   1248e:	b7f9                	j	1245c <_vfprintf_r+0xcd8>
   12490:	4752                	lw	a4,20(sp)
   12492:	010ef793          	andi	a5,t4,16
   12496:	00072b03          	lw	s6,0(a4)
   1249a:	0711                	addi	a4,a4,4
   1249c:	ca3a                	sw	a4,20(sp)
   1249e:	ef9d                	bnez	a5,124dc <_vfprintf_r+0xd58>
   124a0:	040ef793          	andi	a5,t4,64
   124a4:	c79d                	beqz	a5,124d2 <_vfprintf_r+0xd4e>
   124a6:	0b42                	slli	s6,s6,0x10
   124a8:	010b5b13          	srli	s6,s6,0x10
   124ac:	4d81                	li	s11,0
   124ae:	4785                	li	a5,1
   124b0:	e6eff06f          	j	11b1e <_vfprintf_r+0x39a>
   124b4:	4b01                	li	s6,0
   124b6:	19010d13          	addi	s10,sp,400
   124ba:	e1eff06f          	j	11ad8 <_vfprintf_r+0x354>
   124be:	001cf793          	andi	a5,s9,1
   124c2:	cc078d63          	beqz	a5,1199c <_vfprintf_r+0x218>
   124c6:	b61d                	j	11fec <_vfprintf_r+0x868>
   124c8:	00094883          	lbu	a7,0(s2)
   124cc:	ca3e                	sw	a5,20(sp)
   124ce:	be6ff06f          	j	118b4 <_vfprintf_r+0x130>
   124d2:	200ef793          	andi	a5,t4,512
   124d6:	c399                	beqz	a5,124dc <_vfprintf_r+0xd58>
   124d8:	0ffb7b13          	zext.b	s6,s6
   124dc:	4d81                	li	s11,0
   124de:	4785                	li	a5,1
   124e0:	e3eff06f          	j	11b1e <_vfprintf_r+0x39a>
   124e4:	200cf793          	andi	a5,s9,512
   124e8:	7e079563          	bnez	a5,12cd2 <_vfprintf_r+0x154e>
   124ec:	4d81                	li	s11,0
   124ee:	e2aff06f          	j	11b18 <_vfprintf_r+0x394>
   124f2:	200cf793          	andi	a5,s9,512
   124f6:	7c079663          	bnez	a5,12cc2 <_vfprintf_r+0x153e>
   124fa:	41fb5d93          	srai	s11,s6,0x1f
   124fe:	87ee                	mv	a5,s11
   12500:	db6ff06f          	j	11ab6 <_vfprintf_r+0x332>
   12504:	57f2                	lw	a5,60(sp)
   12506:	00094883          	lbu	a7,0(s2)
   1250a:	ba078563          	beqz	a5,118b4 <_vfprintf_r+0x130>
   1250e:	0007c783          	lbu	a5,0(a5)
   12512:	ba078163          	beqz	a5,118b4 <_vfprintf_r+0x130>
   12516:	400cec93          	ori	s9,s9,1024
   1251a:	b9aff06f          	j	118b4 <_vfprintf_r+0x130>
   1251e:	010cf793          	andi	a5,s9,16
   12522:	4c079063          	bnez	a5,129e2 <_vfprintf_r+0x125e>
   12526:	040cf793          	andi	a5,s9,64
   1252a:	78079563          	bnez	a5,12cb4 <_vfprintf_r+0x1530>
   1252e:	200cfe13          	andi	t3,s9,512
   12532:	4a0e0863          	beqz	t3,129e2 <_vfprintf_r+0x125e>
   12536:	47d2                	lw	a5,20(sp)
   12538:	4732                	lw	a4,12(sp)
   1253a:	439c                	lw	a5,0(a5)
   1253c:	00e78023          	sb	a4,0(a5)
   12540:	b425                	j	11f68 <_vfprintf_r+0x7e4>
   12542:	47d2                	lw	a5,20(sp)
   12544:	4398                	lw	a4,0(a5)
   12546:	0791                	addi	a5,a5,4
   12548:	ca3e                	sw	a5,20(sp)
   1254a:	430c                	lw	a1,0(a4)
   1254c:	4350                	lw	a2,4(a4)
   1254e:	4714                	lw	a3,8(a4)
   12550:	4758                	lw	a4,12(a4)
   12552:	e52ff06f          	j	11ba4 <_vfprintf_r+0x420>
   12556:	8aba                	mv	s5,a4
   12558:	df5042e3          	bgtz	s5,1233c <_vfprintf_r+0xbb8>
   1255c:	bbed                	j	12356 <_vfprintf_r+0xbd2>
   1255e:	5afd                	li	s5,-1
   12560:	8936                	mv	s2,a3
   12562:	b54ff06f          	j	118b6 <_vfprintf_r+0x132>
   12566:	67e9                	lui	a5,0x1a
   12568:	20c78793          	addi	a5,a5,524 # 1a20c <__clzsi2+0xec>
   1256c:	da3e                	sw	a5,52(sp)
   1256e:	020cf793          	andi	a5,s9,32
   12572:	26078263          	beqz	a5,127d6 <_vfprintf_r+0x1052>
   12576:	47d2                	lw	a5,20(sp)
   12578:	00778c13          	addi	s8,a5,7
   1257c:	ff8c7c13          	andi	s8,s8,-8
   12580:	000c2b03          	lw	s6,0(s8)
   12584:	004c2d83          	lw	s11,4(s8)
   12588:	008c0793          	addi	a5,s8,8
   1258c:	ca3e                	sw	a5,20(sp)
   1258e:	001cf793          	andi	a5,s9,1
   12592:	cf81                	beqz	a5,125aa <_vfprintf_r+0xe26>
   12594:	01bb67b3          	or	a5,s6,s11
   12598:	cb89                	beqz	a5,125aa <_vfprintf_r+0xe26>
   1259a:	03000793          	li	a5,48
   1259e:	0af10423          	sb	a5,168(sp)
   125a2:	0b1104a3          	sb	a7,169(sp)
   125a6:	002cec93          	ori	s9,s9,2
   125aa:	bffcfe93          	andi	t4,s9,-1025
   125ae:	4789                	li	a5,2
   125b0:	d6eff06f          	j	11b1e <_vfprintf_r+0x39a>
   125b4:	8ee6                	mv	t4,s9
   125b6:	b289                	j	11ef8 <_vfprintf_r+0x774>
   125b8:	67e9                	lui	a5,0x1a
   125ba:	1f878793          	addi	a5,a5,504 # 1a1f8 <__clzsi2+0xd8>
   125be:	da3e                	sw	a5,52(sp)
   125c0:	b77d                	j	1256e <_vfprintf_r+0xdea>
   125c2:	00194883          	lbu	a7,1(s2)
   125c6:	200cec93          	ori	s9,s9,512
   125ca:	0905                	addi	s2,s2,1
   125cc:	ae8ff06f          	j	118b4 <_vfprintf_r+0x130>
   125d0:	00194883          	lbu	a7,1(s2)
   125d4:	020cec93          	ori	s9,s9,32
   125d8:	0905                	addi	s2,s2,1
   125da:	adaff06f          	j	118b4 <_vfprintf_r+0x130>
   125de:	4522                	lw	a0,8(sp)
   125e0:	01d0                	addi	a2,sp,196
   125e2:	85a6                	mv	a1,s1
   125e4:	5e7000ef          	jal	133ca <__sprint_r>
   125e8:	be051ae3          	bnez	a0,121dc <_vfprintf_r+0xa58>
   125ec:	463e                	lw	a2,204(sp)
   125ee:	844e                	mv	s0,s3
   125f0:	bc29                	j	1200a <_vfprintf_r+0x886>
   125f2:	4799                	li	a5,6
   125f4:	8b56                	mv	s6,s5
   125f6:	6b57ed63          	bltu	a5,s5,12cb0 <_vfprintf_r+0x152c>
   125fa:	67e9                	lui	a5,0x1a
   125fc:	8dda                	mv	s11,s6
   125fe:	ca62                	sw	s8,20(sp)
   12600:	22078d13          	addi	s10,a5,544 # 1a220 <__clzsi2+0x100>
   12604:	b00ff06f          	j	11904 <_vfprintf_r+0x180>
   12608:	6869                	lui	a6,0x1a
   1260a:	45c1                	li	a1,16
   1260c:	472e                	lw	a4,200(sp)
   1260e:	67c80813          	addi	a6,a6,1660 # 1a67c <zeroes.0>
   12612:	4755db63          	bge	a1,s5,12a88 <_vfprintf_r+0x1304>
   12616:	87a2                	mv	a5,s0
   12618:	4c41                	li	s8,16
   1261a:	4b1d                	li	s6,7
   1261c:	8442                	mv	s0,a6
   1261e:	a021                	j	12626 <_vfprintf_r+0xea2>
   12620:	1ac1                	addi	s5,s5,-16
   12622:	475c5163          	bge	s8,s5,12a84 <_vfprintf_r+0x1300>
   12626:	0641                	addi	a2,a2,16
   12628:	0705                	addi	a4,a4,1
   1262a:	c380                	sw	s0,0(a5)
   1262c:	0187a223          	sw	s8,4(a5)
   12630:	c7b2                	sw	a2,204(sp)
   12632:	c5ba                	sw	a4,200(sp)
   12634:	07a1                	addi	a5,a5,8
   12636:	feeb55e3          	bge	s6,a4,12620 <_vfprintf_r+0xe9c>
   1263a:	4522                	lw	a0,8(sp)
   1263c:	01d0                	addi	a2,sp,196
   1263e:	85a6                	mv	a1,s1
   12640:	58b000ef          	jal	133ca <__sprint_r>
   12644:	b8051ce3          	bnez	a0,121dc <_vfprintf_r+0xa58>
   12648:	463e                	lw	a2,204(sp)
   1264a:	472e                	lw	a4,200(sp)
   1264c:	87ce                	mv	a5,s3
   1264e:	bfc9                	j	12620 <_vfprintf_r+0xe9c>
   12650:	5742                	lw	a4,48(sp)
   12652:	57b2                	lw	a5,44(sp)
   12654:	459d                	li	a1,7
   12656:	c018                	sw	a4,0(s0)
   12658:	472e                	lw	a4,200(sp)
   1265a:	963e                	add	a2,a2,a5
   1265c:	c05c                	sw	a5,4(s0)
   1265e:	0705                	addi	a4,a4,1
   12660:	c7b2                	sw	a2,204(sp)
   12662:	c5ba                	sw	a4,200(sp)
   12664:	0421                	addi	s0,s0,8
   12666:	d2e5d1e3          	bge	a1,a4,12388 <_vfprintf_r+0xc04>
   1266a:	4522                	lw	a0,8(sp)
   1266c:	01d0                	addi	a2,sp,196
   1266e:	85a6                	mv	a1,s1
   12670:	55b000ef          	jal	133ca <__sprint_r>
   12674:	b60514e3          	bnez	a0,121dc <_vfprintf_r+0xa58>
   12678:	5aba                	lw	s5,172(sp)
   1267a:	463e                	lw	a2,204(sp)
   1267c:	844e                	mv	s0,s3
   1267e:	b329                	j	12388 <_vfprintf_r+0xc04>
   12680:	07800793          	li	a5,120
   12684:	03000713          	li	a4,48
   12688:	0ae10423          	sb	a4,168(sp)
   1268c:	0af104a3          	sb	a5,169(sp)
   12690:	06300713          	li	a4,99
   12694:	c802                	sw	zero,16(sp)
   12696:	002cec93          	ori	s9,s9,2
   1269a:	12c10d13          	addi	s10,sp,300
   1269e:	d5575c63          	bge	a4,s5,11bf6 <_vfprintf_r+0x472>
   126a2:	4522                	lw	a0,8(sp)
   126a4:	001a8593          	addi	a1,s5,1
   126a8:	c846                	sw	a7,16(sp)
   126aa:	b33fe0ef          	jal	111dc <_malloc_r>
   126ae:	48c2                	lw	a7,16(sp)
   126b0:	8d2a                	mv	s10,a0
   126b2:	460502e3          	beqz	a0,13316 <_vfprintf_r+0x1b92>
   126b6:	c82a                	sw	a0,16(sp)
   126b8:	d3eff06f          	j	11bf6 <_vfprintf_r+0x472>
   126bc:	4522                	lw	a0,8(sp)
   126be:	09010b13          	addi	s6,sp,144
   126c2:	1178                	addi	a4,sp,172
   126c4:	0bc10813          	addi	a6,sp,188
   126c8:	191c                	addi	a5,sp,176
   126ca:	86d6                	mv	a3,s5
   126cc:	4609                	li	a2,2
   126ce:	85da                	mv	a1,s6
   126d0:	d446                	sw	a7,40(sp)
   126d2:	c97e                	sw	t6,144(sp)
   126d4:	d27e                	sw	t6,36(sp)
   126d6:	cb7a                	sw	t5,148(sp)
   126d8:	d07a                	sw	t5,32(sp)
   126da:	cd76                	sw	t4,152(sp)
   126dc:	ce76                	sw	t4,28(sp)
   126de:	cf62                	sw	s8,156(sp)
   126e0:	0f3010ef          	jal	13fd2 <_ldtoa_r>
   126e4:	001cf713          	andi	a4,s9,1
   126e8:	4ef2                	lw	t4,28(sp)
   126ea:	5f02                	lw	t5,32(sp)
   126ec:	5f92                	lw	t6,36(sp)
   126ee:	58a2                	lw	a7,40(sp)
   126f0:	8d2a                	mv	s10,a0
   126f2:	62071163          	bnez	a4,12d14 <_vfprintf_r+0x1590>
   126f6:	57ba                	lw	a5,172(sp)
   126f8:	ce3e                	sw	a5,28(sp)
   126fa:	57fa                	lw	a5,188(sp)
   126fc:	8f89                	sub	a5,a5,a0
   126fe:	d03e                	sw	a5,32(sp)
   12700:	47f2                	lw	a5,28(sp)
   12702:	5775                	li	a4,-3
   12704:	00e7c463          	blt	a5,a4,1270c <_vfprintf_r+0xf88>
   12708:	0efadbe3          	bge	s5,a5,12ffe <_vfprintf_r+0x187a>
   1270c:	47f2                	lw	a5,28(sp)
   1270e:	18f9                	addi	a7,a7,-2
   12710:	fff78713          	addi	a4,a5,-1
   12714:	d73a                	sw	a4,172(sp)
   12716:	0ff8f693          	zext.b	a3,a7
   1271a:	4601                	li	a2,0
   1271c:	0ad10a23          	sb	a3,180(sp)
   12720:	02b00693          	li	a3,43
   12724:	00075763          	bgez	a4,12732 <_vfprintf_r+0xfae>
   12728:	47f2                	lw	a5,28(sp)
   1272a:	4705                	li	a4,1
   1272c:	02d00693          	li	a3,45
   12730:	8f1d                	sub	a4,a4,a5
   12732:	0ad10aa3          	sb	a3,181(sp)
   12736:	46a5                	li	a3,9
   12738:	2ae6d1e3          	bge	a3,a4,131da <_vfprintf_r+0x1a56>
   1273c:	0c310813          	addi	a6,sp,195
   12740:	85c2                	mv	a1,a6
   12742:	4529                	li	a0,10
   12744:	06300f13          	li	t5,99
   12748:	02a767b3          	rem	a5,a4,a0
   1274c:	862e                	mv	a2,a1
   1274e:	86ba                	mv	a3,a4
   12750:	15fd                	addi	a1,a1,-1
   12752:	03078793          	addi	a5,a5,48
   12756:	fef60fa3          	sb	a5,-1(a2)
   1275a:	02a74733          	div	a4,a4,a0
   1275e:	fedf45e3          	blt	t5,a3,12748 <_vfprintf_r+0xfc4>
   12762:	03070713          	addi	a4,a4,48
   12766:	ffe60693          	addi	a3,a2,-2
   1276a:	fee58fa3          	sb	a4,-1(a1)
   1276e:	3706fce3          	bgeu	a3,a6,132e6 <_vfprintf_r+0x1b62>
   12772:	0b610713          	addi	a4,sp,182
   12776:	0006c783          	lbu	a5,0(a3)
   1277a:	0685                	addi	a3,a3,1
   1277c:	0705                	addi	a4,a4,1
   1277e:	fef70fa3          	sb	a5,-1(a4)
   12782:	ff069ae3          	bne	a3,a6,12776 <_vfprintf_r+0xff2>
   12786:	0b1c                	addi	a5,sp,400
   12788:	40c78733          	sub	a4,a5,a2
   1278c:	f3770793          	addi	a5,a4,-201
   12790:	c0be                	sw	a5,64(sp)
   12792:	5782                	lw	a5,32(sp)
   12794:	4686                	lw	a3,64(sp)
   12796:	4705                	li	a4,1
   12798:	00d78b33          	add	s6,a5,a3
   1279c:	26f758e3          	bge	a4,a5,1320c <_vfprintf_r+0x1a88>
   127a0:	57b2                	lw	a5,44(sp)
   127a2:	9b3e                	add	s6,s6,a5
   127a4:	fffb4693          	not	a3,s6
   127a8:	bffcfe13          	andi	t3,s9,-1025
   127ac:	86fd                	srai	a3,a3,0x1f
   127ae:	100e6793          	ori	a5,t3,256
   127b2:	c6be                	sw	a5,76(sp)
   127b4:	00db7db3          	and	s11,s6,a3
   127b8:	d402                	sw	zero,40(sp)
   127ba:	d202                	sw	zero,36(sp)
   127bc:	ce02                	sw	zero,28(sp)
   127be:	57e2                	lw	a5,56(sp)
   127c0:	020786e3          	beqz	a5,12fec <_vfprintf_r+0x1868>
   127c4:	02d00713          	li	a4,45
   127c8:	4cb6                	lw	s9,76(sp)
   127ca:	0ae103a3          	sb	a4,167(sp)
   127ce:	4a81                	li	s5,0
   127d0:	0d85                	addi	s11,s11,1
   127d2:	93cff06f          	j	1190e <_vfprintf_r+0x18a>
   127d6:	4752                	lw	a4,20(sp)
   127d8:	010cf793          	andi	a5,s9,16
   127dc:	00072b03          	lw	s6,0(a4)
   127e0:	0711                	addi	a4,a4,4
   127e2:	ca3a                	sw	a4,20(sp)
   127e4:	e7a9                	bnez	a5,1282e <_vfprintf_r+0x10aa>
   127e6:	040cf793          	andi	a5,s9,64
   127ea:	cf95                	beqz	a5,12826 <_vfprintf_r+0x10a2>
   127ec:	0b42                	slli	s6,s6,0x10
   127ee:	010b5b13          	srli	s6,s6,0x10
   127f2:	4d81                	li	s11,0
   127f4:	bb69                	j	1258e <_vfprintf_r+0xe0a>
   127f6:	4522                	lw	a0,8(sp)
   127f8:	01d0                	addi	a2,sp,196
   127fa:	85a6                	mv	a1,s1
   127fc:	3cf000ef          	jal	133ca <__sprint_r>
   12800:	9c051ee3          	bnez	a0,121dc <_vfprintf_r+0xa58>
   12804:	4c3e                	lw	s8,204(sp)
   12806:	4aae                	lw	s5,200(sp)
   12808:	8b4e                	mv	s6,s3
   1280a:	c6eff06f          	j	11c78 <_vfprintf_r+0x4f4>
   1280e:	4522                	lw	a0,8(sp)
   12810:	01d0                	addi	a2,sp,196
   12812:	85a6                	mv	a1,s1
   12814:	3b7000ef          	jal	133ca <__sprint_r>
   12818:	9c0512e3          	bnez	a0,121dc <_vfprintf_r+0xa58>
   1281c:	4c3e                	lw	s8,204(sp)
   1281e:	4aae                	lw	s5,200(sp)
   12820:	8b4e                	mv	s6,s3
   12822:	c72ff06f          	j	11c94 <_vfprintf_r+0x510>
   12826:	200cf793          	andi	a5,s9,512
   1282a:	4a079963          	bnez	a5,12cdc <_vfprintf_r+0x1558>
   1282e:	4d81                	li	s11,0
   12830:	bbb9                	j	1258e <_vfprintf_r+0xe0a>
   12832:	ccccd837          	lui	a6,0xccccd
   12836:	ccccdcb7          	lui	s9,0xccccd
   1283a:	5772                	lw	a4,60(sp)
   1283c:	400eff13          	andi	t5,t4,1024
   12840:	4601                	li	a2,0
   12842:	0b0c                	addi	a1,sp,400
   12844:	4e15                	li	t3,5
   12846:	ccd80813          	addi	a6,a6,-819 # cccccccd <__BSS_END__+0xcccb1271>
   1284a:	cccc8c93          	addi	s9,s9,-820 # cccccccc <__BSS_END__+0xcccb1270>
   1284e:	0ff00c13          	li	s8,255
   12852:	a081                	j	12892 <_vfprintf_r+0x110e>
   12854:	016d37b3          	sltu	a5,s10,s6
   12858:	97ea                	add	a5,a5,s10
   1285a:	03c7f7b3          	remu	a5,a5,t3
   1285e:	40fb07b3          	sub	a5,s6,a5
   12862:	00fb35b3          	sltu	a1,s6,a5
   12866:	40bd85b3          	sub	a1,s11,a1
   1286a:	03978333          	mul	t1,a5,s9
   1286e:	030585b3          	mul	a1,a1,a6
   12872:	0307b533          	mulhu	a0,a5,a6
   12876:	959a                	add	a1,a1,t1
   12878:	030787b3          	mul	a5,a5,a6
   1287c:	95aa                	add	a1,a1,a0
   1287e:	01f59513          	slli	a0,a1,0x1f
   12882:	8185                	srli	a1,a1,0x1
   12884:	8385                	srli	a5,a5,0x1
   12886:	8fc9                	or	a5,a5,a0
   12888:	7c0d8763          	beqz	s11,13056 <_vfprintf_r+0x18d2>
   1288c:	8dae                	mv	s11,a1
   1288e:	8b3e                	mv	s6,a5
   12890:	85b6                	mv	a1,a3
   12892:	01bb0d33          	add	s10,s6,s11
   12896:	016d37b3          	sltu	a5,s10,s6
   1289a:	97ea                	add	a5,a5,s10
   1289c:	03c7f7b3          	remu	a5,a5,t3
   128a0:	fff58693          	addi	a3,a1,-1
   128a4:	0605                	addi	a2,a2,1
   128a6:	40fb07b3          	sub	a5,s6,a5
   128aa:	00fb3533          	sltu	a0,s6,a5
   128ae:	40ad8533          	sub	a0,s11,a0
   128b2:	0307b333          	mulhu	t1,a5,a6
   128b6:	03050533          	mul	a0,a0,a6
   128ba:	030787b3          	mul	a5,a5,a6
   128be:	951a                	add	a0,a0,t1
   128c0:	057e                	slli	a0,a0,0x1f
   128c2:	8385                	srli	a5,a5,0x1
   128c4:	8fc9                	or	a5,a5,a0
   128c6:	00279513          	slli	a0,a5,0x2
   128ca:	97aa                	add	a5,a5,a0
   128cc:	0786                	slli	a5,a5,0x1
   128ce:	40fb07b3          	sub	a5,s6,a5
   128d2:	03078793          	addi	a5,a5,48
   128d6:	fef58fa3          	sb	a5,-1(a1)
   128da:	f60f0de3          	beqz	t5,12854 <_vfprintf_r+0x10d0>
   128de:	00074783          	lbu	a5,0(a4)
   128e2:	f6f619e3          	bne	a2,a5,12854 <_vfprintf_r+0x10d0>
   128e6:	f78607e3          	beq	a2,s8,12854 <_vfprintf_r+0x10d0>
   128ea:	1c0d9563          	bnez	s11,12ab4 <_vfprintf_r+0x1330>
   128ee:	47a5                	li	a5,9
   128f0:	1d67e263          	bltu	a5,s6,12ab4 <_vfprintf_r+0x1330>
   128f4:	8d36                	mv	s10,a3
   128f6:	0b1c                	addi	a5,sp,400
   128f8:	d032                	sw	a2,32(sp)
   128fa:	de3a                	sw	a4,60(sp)
   128fc:	41a78b33          	sub	s6,a5,s10
   12900:	8cf6                	mv	s9,t4
   12902:	9d6ff06f          	j	11ad8 <_vfprintf_r+0x354>
   12906:	472e                	lw	a4,200(sp)
   12908:	65e9                	lui	a1,0x1a
   1290a:	22858593          	addi	a1,a1,552 # 1a228 <__clzsi2+0x108>
   1290e:	c00c                	sw	a1,0(s0)
   12910:	0605                	addi	a2,a2,1
   12912:	4585                	li	a1,1
   12914:	0705                	addi	a4,a4,1
   12916:	c04c                	sw	a1,4(s0)
   12918:	c7b2                	sw	a2,204(sp)
   1291a:	c5ba                	sw	a4,200(sp)
   1291c:	459d                	li	a1,7
   1291e:	0421                	addi	s0,s0,8
   12920:	36e5c063          	blt	a1,a4,12c80 <_vfprintf_r+0x14fc>
   12924:	e569                	bnez	a0,129ee <_vfprintf_r+0x126a>
   12926:	5782                	lw	a5,32(sp)
   12928:	001cf713          	andi	a4,s9,1
   1292c:	8f5d                	or	a4,a4,a5
   1292e:	e319                	bnez	a4,12934 <_vfprintf_r+0x11b0>
   12930:	86cff06f          	j	1199c <_vfprintf_r+0x218>
   12934:	5742                	lw	a4,48(sp)
   12936:	57b2                	lw	a5,44(sp)
   12938:	459d                	li	a1,7
   1293a:	c018                	sw	a4,0(s0)
   1293c:	472e                	lw	a4,200(sp)
   1293e:	963e                	add	a2,a2,a5
   12940:	c05c                	sw	a5,4(s0)
   12942:	0705                	addi	a4,a4,1
   12944:	c7b2                	sw	a2,204(sp)
   12946:	c5ba                	sw	a4,200(sp)
   12948:	3ae5cb63          	blt	a1,a4,12cfe <_vfprintf_r+0x157a>
   1294c:	0421                	addi	s0,s0,8
   1294e:	a87d                	j	12a0c <_vfprintf_r+0x1288>
   12950:	4522                	lw	a0,8(sp)
   12952:	fc1fd0ef          	jal	10912 <__sinit>
   12956:	e6dfe06f          	j	117c2 <_vfprintf_r+0x3e>
   1295a:	4522                	lw	a0,8(sp)
   1295c:	01d0                	addi	a2,sp,196
   1295e:	85a6                	mv	a1,s1
   12960:	26b000ef          	jal	133ca <__sprint_r>
   12964:	86051ce3          	bnez	a0,121dc <_vfprintf_r+0xa58>
   12968:	463e                	lw	a2,204(sp)
   1296a:	844e                	mv	s0,s3
   1296c:	e78ff06f          	j	11fe4 <_vfprintf_r+0x860>
   12970:	886a                	mv	a6,s10
   12972:	01042023          	sw	a6,0(s0)
   12976:	01542223          	sw	s5,4(s0)
   1297a:	9656                	add	a2,a2,s5
   1297c:	0785                	addi	a5,a5,1
   1297e:	c7b2                	sw	a2,204(sp)
   12980:	c5be                	sw	a5,200(sp)
   12982:	471d                	li	a4,7
   12984:	00f74463          	blt	a4,a5,1298c <_vfprintf_r+0x1208>
   12988:	812ff06f          	j	1199a <_vfprintf_r+0x216>
   1298c:	b70ff06f          	j	11cfc <_vfprintf_r+0x578>
   12990:	47ce                	lw	a5,208(sp)
   12992:	010c                	addi	a1,sp,128
   12994:	0908                	addi	a0,sp,144
   12996:	c93e                	sw	a5,144(sp)
   12998:	47de                	lw	a5,212(sp)
   1299a:	c102                	sw	zero,128(sp)
   1299c:	c302                	sw	zero,132(sp)
   1299e:	cb3e                	sw	a5,148(sp)
   129a0:	47ee                	lw	a5,216(sp)
   129a2:	c502                	sw	zero,136(sp)
   129a4:	c702                	sw	zero,140(sp)
   129a6:	cd3e                	sw	a5,152(sp)
   129a8:	47fe                	lw	a5,220(sp)
   129aa:	cf3e                	sw	a5,156(sp)
   129ac:	4dc050ef          	jal	17e88 <__letf2>
   129b0:	48c2                	lw	a7,16(sp)
   129b2:	6a054a63          	bltz	a0,13066 <_vfprintf_r+0x18e2>
   129b6:	0a714703          	lbu	a4,167(sp)
   129ba:	04700793          	li	a5,71
   129be:	2d17db63          	bge	a5,a7,12c94 <_vfprintf_r+0x1510>
   129c2:	67e9                	lui	a5,0x1a
   129c4:	1ec78d13          	addi	s10,a5,492 # 1a1ec <__clzsi2+0xcc>
   129c8:	c802                	sw	zero,16(sp)
   129ca:	d402                	sw	zero,40(sp)
   129cc:	d202                	sw	zero,36(sp)
   129ce:	ce02                	sw	zero,28(sp)
   129d0:	f7fcfc93          	andi	s9,s9,-129
   129d4:	4d8d                	li	s11,3
   129d6:	4b0d                	li	s6,3
   129d8:	4a81                	li	s5,0
   129da:	90071b63          	bnez	a4,11af0 <_vfprintf_r+0x36c>
   129de:	f31fe06f          	j	1190e <_vfprintf_r+0x18a>
   129e2:	47d2                	lw	a5,20(sp)
   129e4:	4732                	lw	a4,12(sp)
   129e6:	439c                	lw	a5,0(a5)
   129e8:	c398                	sw	a4,0(a5)
   129ea:	d7eff06f          	j	11f68 <_vfprintf_r+0x7e4>
   129ee:	5742                	lw	a4,48(sp)
   129f0:	57b2                	lw	a5,44(sp)
   129f2:	459d                	li	a1,7
   129f4:	c018                	sw	a4,0(s0)
   129f6:	472e                	lw	a4,200(sp)
   129f8:	963e                	add	a2,a2,a5
   129fa:	c05c                	sw	a5,4(s0)
   129fc:	0705                	addi	a4,a4,1
   129fe:	c7b2                	sw	a2,204(sp)
   12a00:	c5ba                	sw	a4,200(sp)
   12a02:	0421                	addi	s0,s0,8
   12a04:	2ee5cd63          	blt	a1,a4,12cfe <_vfprintf_r+0x157a>
   12a08:	74054a63          	bltz	a0,1315c <_vfprintf_r+0x19d8>
   12a0c:	5782                	lw	a5,32(sp)
   12a0e:	0705                	addi	a4,a4,1
   12a10:	01a42023          	sw	s10,0(s0)
   12a14:	963e                	add	a2,a2,a5
   12a16:	c05c                	sw	a5,4(s0)
   12a18:	c7b2                	sw	a2,204(sp)
   12a1a:	c5ba                	sw	a4,200(sp)
   12a1c:	479d                	li	a5,7
   12a1e:	00e7c463          	blt	a5,a4,12a26 <_vfprintf_r+0x12a2>
   12a22:	f79fe06f          	j	1199a <_vfprintf_r+0x216>
   12a26:	ad6ff06f          	j	11cfc <_vfprintf_r+0x578>
   12a2a:	856a                	mv	a0,s10
   12a2c:	dc46                	sw	a7,56(sp)
   12a2e:	b82fe0ef          	jal	10db0 <strlen>
   12a32:	0a714703          	lbu	a4,167(sp)
   12a36:	fff54693          	not	a3,a0
   12a3a:	86fd                	srai	a3,a3,0x1f
   12a3c:	ca62                	sw	s8,20(sp)
   12a3e:	c802                	sw	zero,16(sp)
   12a40:	d402                	sw	zero,40(sp)
   12a42:	d202                	sw	zero,36(sp)
   12a44:	ce02                	sw	zero,28(sp)
   12a46:	58e2                	lw	a7,56(sp)
   12a48:	8b2a                	mv	s6,a0
   12a4a:	00d57db3          	and	s11,a0,a3
   12a4e:	4a81                	li	s5,0
   12a50:	c319                	beqz	a4,12a56 <_vfprintf_r+0x12d2>
   12a52:	89eff06f          	j	11af0 <_vfprintf_r+0x36c>
   12a56:	eb9fe06f          	j	1190e <_vfprintf_r+0x18a>
   12a5a:	884a                	mv	a6,s2
   12a5c:	4972                	lw	s2,28(sp)
   12a5e:	9c22                	add	s8,s8,s0
   12a60:	0a85                	addi	s5,s5,1
   12a62:	010b2023          	sw	a6,0(s6)
   12a66:	a64ff06f          	j	11cca <_vfprintf_r+0x546>
   12a6a:	47fe                	lw	a5,220(sp)
   12a6c:	2607cc63          	bltz	a5,12ce4 <_vfprintf_r+0x1560>
   12a70:	0a714703          	lbu	a4,167(sp)
   12a74:	04700793          	li	a5,71
   12a78:	6317ca63          	blt	a5,a7,130ac <_vfprintf_r+0x1928>
   12a7c:	67e9                	lui	a5,0x1a
   12a7e:	1f078d13          	addi	s10,a5,496 # 1a1f0 <__clzsi2+0xd0>
   12a82:	b799                	j	129c8 <_vfprintf_r+0x1244>
   12a84:	8822                	mv	a6,s0
   12a86:	843e                	mv	s0,a5
   12a88:	9656                	add	a2,a2,s5
   12a8a:	0705                	addi	a4,a4,1
   12a8c:	01042023          	sw	a6,0(s0)
   12a90:	01542223          	sw	s5,4(s0)
   12a94:	c7b2                	sw	a2,204(sp)
   12a96:	c5ba                	sw	a4,200(sp)
   12a98:	459d                	li	a1,7
   12a9a:	0421                	addi	s0,s0,8
   12a9c:	8ce5d7e3          	bge	a1,a4,1236a <_vfprintf_r+0xbe6>
   12aa0:	4522                	lw	a0,8(sp)
   12aa2:	01d0                	addi	a2,sp,196
   12aa4:	85a6                	mv	a1,s1
   12aa6:	125000ef          	jal	133ca <__sprint_r>
   12aaa:	f2051963          	bnez	a0,121dc <_vfprintf_r+0xa58>
   12aae:	463e                	lw	a2,204(sp)
   12ab0:	844e                	mv	s0,s3
   12ab2:	b865                	j	1236a <_vfprintf_r+0xbe6>
   12ab4:	47a6                	lw	a5,72(sp)
   12ab6:	4596                	lw	a1,68(sp)
   12ab8:	dc42                	sw	a6,56(sp)
   12aba:	8e9d                	sub	a3,a3,a5
   12abc:	863e                	mv	a2,a5
   12abe:	8536                	mv	a0,a3
   12ac0:	d47a                	sw	t5,40(sp)
   12ac2:	d276                	sw	t4,36(sp)
   12ac4:	d046                	sw	a7,32(sp)
   12ac6:	ce3a                	sw	a4,28(sp)
   12ac8:	c836                	sw	a3,16(sp)
   12aca:	0a4010ef          	jal	13b6e <strncpy>
   12ace:	016d37b3          	sltu	a5,s10,s6
   12ad2:	4615                	li	a2,5
   12ad4:	97ea                	add	a5,a5,s10
   12ad6:	02c7f7b3          	remu	a5,a5,a2
   12ada:	4772                	lw	a4,28(sp)
   12adc:	ccccd337          	lui	t1,0xccccd
   12ae0:	ccccd537          	lui	a0,0xccccd
   12ae4:	00174583          	lbu	a1,1(a4)
   12ae8:	ccd30313          	addi	t1,t1,-819 # cccccccd <__BSS_END__+0xcccb1271>
   12aec:	ccc50513          	addi	a0,a0,-820 # cccccccc <__BSS_END__+0xcccb1270>
   12af0:	00b035b3          	snez	a1,a1
   12af4:	972e                	add	a4,a4,a1
   12af6:	46c2                	lw	a3,16(sp)
   12af8:	5882                	lw	a7,32(sp)
   12afa:	5e92                	lw	t4,36(sp)
   12afc:	5f22                	lw	t5,40(sp)
   12afe:	5862                	lw	a6,56(sp)
   12b00:	4601                	li	a2,0
   12b02:	4e15                	li	t3,5
   12b04:	40fb07b3          	sub	a5,s6,a5
   12b08:	00fb35b3          	sltu	a1,s6,a5
   12b0c:	40bd85b3          	sub	a1,s11,a1
   12b10:	02a78533          	mul	a0,a5,a0
   12b14:	026585b3          	mul	a1,a1,t1
   12b18:	0267bfb3          	mulhu	t6,a5,t1
   12b1c:	95aa                	add	a1,a1,a0
   12b1e:	02678533          	mul	a0,a5,t1
   12b22:	95fe                	add	a1,a1,t6
   12b24:	01f59793          	slli	a5,a1,0x1f
   12b28:	8185                	srli	a1,a1,0x1
   12b2a:	8105                	srli	a0,a0,0x1
   12b2c:	8fc9                	or	a5,a5,a0
   12b2e:	bbb9                	j	1288c <_vfprintf_r+0x1108>
   12b30:	5782                	lw	a5,32(sp)
   12b32:	5b12                	lw	s6,36(sp)
   12b34:	68e9                	lui	a7,0x1a
   12b36:	97ea                	add	a5,a5,s10
   12b38:	dc4a                	sw	s2,56(sp)
   12b3a:	c6e6                	sw	s9,76(sp)
   12b3c:	c8de                	sw	s7,80(sp)
   12b3e:	d26e                	sw	s11,36(sp)
   12b40:	5da2                	lw	s11,40(sp)
   12b42:	d46a                	sw	s10,40(sp)
   12b44:	5cf2                	lw	s9,60(sp)
   12b46:	8d62                	mv	s10,s8
   12b48:	4922                	lw	s2,8(sp)
   12b4a:	4c26                	lw	s8,72(sp)
   12b4c:	481d                	li	a6,7
   12b4e:	4741                	li	a4,16
   12b50:	67c88a93          	addi	s5,a7,1660 # 1a67c <zeroes.0>
   12b54:	85a2                	mv	a1,s0
   12b56:	8bbe                	mv	s7,a5
   12b58:	07605363          	blez	s6,12bbe <_vfprintf_r+0x143a>
   12b5c:	0fb05663          	blez	s11,12c48 <_vfprintf_r+0x14c4>
   12b60:	1dfd                	addi	s11,s11,-1
   12b62:	4796                	lw	a5,68(sp)
   12b64:	9662                	add	a2,a2,s8
   12b66:	0185a223          	sw	s8,4(a1)
   12b6a:	c19c                	sw	a5,0(a1)
   12b6c:	47ae                	lw	a5,200(sp)
   12b6e:	c7b2                	sw	a2,204(sp)
   12b70:	05a1                	addi	a1,a1,8
   12b72:	0785                	addi	a5,a5,1
   12b74:	c5be                	sw	a5,200(sp)
   12b76:	0cf84c63          	blt	a6,a5,12c4e <_vfprintf_r+0x14ca>
   12b7a:	000cc683          	lbu	a3,0(s9)
   12b7e:	41ab8433          	sub	s0,s7,s10
   12b82:	0086d363          	bge	a3,s0,12b88 <_vfprintf_r+0x1404>
   12b86:	8436                	mv	s0,a3
   12b88:	00805f63          	blez	s0,12ba6 <_vfprintf_r+0x1422>
   12b8c:	46ae                	lw	a3,200(sp)
   12b8e:	9622                	add	a2,a2,s0
   12b90:	01a5a023          	sw	s10,0(a1)
   12b94:	0685                	addi	a3,a3,1
   12b96:	c1c0                	sw	s0,4(a1)
   12b98:	c7b2                	sw	a2,204(sp)
   12b9a:	c5b6                	sw	a3,200(sp)
   12b9c:	0cd84563          	blt	a6,a3,12c66 <_vfprintf_r+0x14e2>
   12ba0:	000cc683          	lbu	a3,0(s9)
   12ba4:	05a1                	addi	a1,a1,8
   12ba6:	fff44513          	not	a0,s0
   12baa:	857d                	srai	a0,a0,0x1f
   12bac:	00a477b3          	and	a5,s0,a0
   12bb0:	40f68433          	sub	s0,a3,a5
   12bb4:	02804763          	bgtz	s0,12be2 <_vfprintf_r+0x145e>
   12bb8:	9d36                	add	s10,s10,a3
   12bba:	fb6041e3          	bgtz	s6,12b5c <_vfprintf_r+0x13d8>
   12bbe:	fbb041e3          	bgtz	s11,12b60 <_vfprintf_r+0x13dc>
   12bc2:	5782                	lw	a5,32(sp)
   12bc4:	8c6a                	mv	s8,s10
   12bc6:	5d22                	lw	s10,40(sp)
   12bc8:	de66                	sw	s9,60(sp)
   12bca:	5962                	lw	s2,56(sp)
   12bcc:	00fd0733          	add	a4,s10,a5
   12bd0:	4cb6                	lw	s9,76(sp)
   12bd2:	4bc6                	lw	s7,80(sp)
   12bd4:	5d92                	lw	s11,36(sp)
   12bd6:	842e                	mv	s0,a1
   12bd8:	fb877063          	bgeu	a4,s8,12378 <_vfprintf_r+0xbf4>
   12bdc:	8c3a                	mv	s8,a4
   12bde:	f9aff06f          	j	12378 <_vfprintf_r+0xbf4>
   12be2:	6f69                	lui	t5,0x1a
   12be4:	46ae                	lw	a3,200(sp)
   12be6:	67cf0f13          	addi	t5,t5,1660 # 1a67c <zeroes.0>
   12bea:	04875163          	bge	a4,s0,12c2c <_vfprintf_r+0x14a8>
   12bee:	ce56                	sw	s5,28(sp)
   12bf0:	a021                	j	12bf8 <_vfprintf_r+0x1474>
   12bf2:	1441                	addi	s0,s0,-16
   12bf4:	02875b63          	bge	a4,s0,12c2a <_vfprintf_r+0x14a6>
   12bf8:	0641                	addi	a2,a2,16
   12bfa:	0685                	addi	a3,a3,1
   12bfc:	0155a023          	sw	s5,0(a1)
   12c00:	c1d8                	sw	a4,4(a1)
   12c02:	c7b2                	sw	a2,204(sp)
   12c04:	c5b6                	sw	a3,200(sp)
   12c06:	05a1                	addi	a1,a1,8
   12c08:	fed855e3          	bge	a6,a3,12bf2 <_vfprintf_r+0x146e>
   12c0c:	01d0                	addi	a2,sp,196
   12c0e:	85a6                	mv	a1,s1
   12c10:	854a                	mv	a0,s2
   12c12:	7b8000ef          	jal	133ca <__sprint_r>
   12c16:	dc051363          	bnez	a0,121dc <_vfprintf_r+0xa58>
   12c1a:	4741                	li	a4,16
   12c1c:	1441                	addi	s0,s0,-16
   12c1e:	463e                	lw	a2,204(sp)
   12c20:	46ae                	lw	a3,200(sp)
   12c22:	85ce                	mv	a1,s3
   12c24:	481d                	li	a6,7
   12c26:	fc8749e3          	blt	a4,s0,12bf8 <_vfprintf_r+0x1474>
   12c2a:	4f72                	lw	t5,28(sp)
   12c2c:	9622                	add	a2,a2,s0
   12c2e:	0685                	addi	a3,a3,1
   12c30:	01e5a023          	sw	t5,0(a1)
   12c34:	c1c0                	sw	s0,4(a1)
   12c36:	c7b2                	sw	a2,204(sp)
   12c38:	c5b6                	sw	a3,200(sp)
   12c3a:	40d84063          	blt	a6,a3,1303a <_vfprintf_r+0x18b6>
   12c3e:	000cc683          	lbu	a3,0(s9)
   12c42:	05a1                	addi	a1,a1,8
   12c44:	9d36                	add	s10,s10,a3
   12c46:	bf95                	j	12bba <_vfprintf_r+0x1436>
   12c48:	1cfd                	addi	s9,s9,-1
   12c4a:	1b7d                	addi	s6,s6,-1
   12c4c:	bf19                	j	12b62 <_vfprintf_r+0x13de>
   12c4e:	01d0                	addi	a2,sp,196
   12c50:	85a6                	mv	a1,s1
   12c52:	854a                	mv	a0,s2
   12c54:	776000ef          	jal	133ca <__sprint_r>
   12c58:	d8051263          	bnez	a0,121dc <_vfprintf_r+0xa58>
   12c5c:	463e                	lw	a2,204(sp)
   12c5e:	85ce                	mv	a1,s3
   12c60:	4741                	li	a4,16
   12c62:	481d                	li	a6,7
   12c64:	bf19                	j	12b7a <_vfprintf_r+0x13f6>
   12c66:	01d0                	addi	a2,sp,196
   12c68:	85a6                	mv	a1,s1
   12c6a:	854a                	mv	a0,s2
   12c6c:	2fb9                	jal	133ca <__sprint_r>
   12c6e:	d6051763          	bnez	a0,121dc <_vfprintf_r+0xa58>
   12c72:	000cc683          	lbu	a3,0(s9)
   12c76:	463e                	lw	a2,204(sp)
   12c78:	85ce                	mv	a1,s3
   12c7a:	4741                	li	a4,16
   12c7c:	481d                	li	a6,7
   12c7e:	b725                	j	12ba6 <_vfprintf_r+0x1422>
   12c80:	4522                	lw	a0,8(sp)
   12c82:	01d0                	addi	a2,sp,196
   12c84:	85a6                	mv	a1,s1
   12c86:	2791                	jal	133ca <__sprint_r>
   12c88:	d4051a63          	bnez	a0,121dc <_vfprintf_r+0xa58>
   12c8c:	553a                	lw	a0,172(sp)
   12c8e:	463e                	lw	a2,204(sp)
   12c90:	844e                	mv	s0,s3
   12c92:	b949                	j	12924 <_vfprintf_r+0x11a0>
   12c94:	67e9                	lui	a5,0x1a
   12c96:	1e878d13          	addi	s10,a5,488 # 1a1e8 <__clzsi2+0xc8>
   12c9a:	b33d                	j	129c8 <_vfprintf_r+0x1244>
   12c9c:	4522                	lw	a0,8(sp)
   12c9e:	01d0                	addi	a2,sp,196
   12ca0:	85a6                	mv	a1,s1
   12ca2:	2725                	jal	133ca <__sprint_r>
   12ca4:	d2051c63          	bnez	a0,121dc <_vfprintf_r+0xa58>
   12ca8:	463e                	lw	a2,204(sp)
   12caa:	844e                	mv	s0,s3
   12cac:	eaaff06f          	j	12356 <_vfprintf_r+0xbd2>
   12cb0:	4b19                	li	s6,6
   12cb2:	b2a1                	j	125fa <_vfprintf_r+0xe76>
   12cb4:	47d2                	lw	a5,20(sp)
   12cb6:	4732                	lw	a4,12(sp)
   12cb8:	439c                	lw	a5,0(a5)
   12cba:	00e79023          	sh	a4,0(a5)
   12cbe:	aaaff06f          	j	11f68 <_vfprintf_r+0x7e4>
   12cc2:	0b62                	slli	s6,s6,0x18
   12cc4:	418b5b13          	srai	s6,s6,0x18
   12cc8:	41fb5d93          	srai	s11,s6,0x1f
   12ccc:	87ee                	mv	a5,s11
   12cce:	de9fe06f          	j	11ab6 <_vfprintf_r+0x332>
   12cd2:	0ffb7b13          	zext.b	s6,s6
   12cd6:	4d81                	li	s11,0
   12cd8:	e41fe06f          	j	11b18 <_vfprintf_r+0x394>
   12cdc:	0ffb7b13          	zext.b	s6,s6
   12ce0:	4d81                	li	s11,0
   12ce2:	b075                	j	1258e <_vfprintf_r+0xe0a>
   12ce4:	02d00793          	li	a5,45
   12ce8:	0af103a3          	sb	a5,167(sp)
   12cec:	02d00713          	li	a4,45
   12cf0:	b351                	j	12a74 <_vfprintf_r+0x12f0>
   12cf2:	4522                	lw	a0,8(sp)
   12cf4:	01d0                	addi	a2,sp,196
   12cf6:	85a6                	mv	a1,s1
   12cf8:	2dc9                	jal	133ca <__sprint_r>
   12cfa:	ce7fe06f          	j	119e0 <_vfprintf_r+0x25c>
   12cfe:	4522                	lw	a0,8(sp)
   12d00:	01d0                	addi	a2,sp,196
   12d02:	85a6                	mv	a1,s1
   12d04:	25d9                	jal	133ca <__sprint_r>
   12d06:	cc051b63          	bnez	a0,121dc <_vfprintf_r+0xa58>
   12d0a:	553a                	lw	a0,172(sp)
   12d0c:	463e                	lw	a2,204(sp)
   12d0e:	472e                	lw	a4,200(sp)
   12d10:	844e                	mv	s0,s3
   12d12:	b9dd                	j	12a08 <_vfprintf_r+0x1284>
   12d14:	01550733          	add	a4,a0,s5
   12d18:	04700613          	li	a2,71
   12d1c:	010c                	addi	a1,sp,128
   12d1e:	855a                	mv	a0,s6
   12d20:	d23a                	sw	a4,36(sp)
   12d22:	d032                	sw	a2,32(sp)
   12d24:	ce46                	sw	a7,28(sp)
   12d26:	c97e                	sw	t6,144(sp)
   12d28:	cb7a                	sw	t5,148(sp)
   12d2a:	cd76                	sw	t4,152(sp)
   12d2c:	cf62                	sw	s8,156(sp)
   12d2e:	c102                	sw	zero,128(sp)
   12d30:	c302                	sw	zero,132(sp)
   12d32:	c502                	sw	zero,136(sp)
   12d34:	c702                	sw	zero,140(sp)
   12d36:	77b040ef          	jal	17cb0 <__eqtf2>
   12d3a:	48f2                	lw	a7,28(sp)
   12d3c:	5602                	lw	a2,32(sp)
   12d3e:	5712                	lw	a4,36(sp)
   12d40:	36050a63          	beqz	a0,130b4 <_vfprintf_r+0x1930>
   12d44:	57fa                	lw	a5,188(sp)
   12d46:	00e7fc63          	bgeu	a5,a4,12d5e <_vfprintf_r+0x15da>
   12d4a:	03000593          	li	a1,48
   12d4e:	00178693          	addi	a3,a5,1
   12d52:	df36                	sw	a3,188(sp)
   12d54:	00b78023          	sb	a1,0(a5)
   12d58:	57fa                	lw	a5,188(sp)
   12d5a:	fee7eae3          	bltu	a5,a4,12d4e <_vfprintf_r+0x15ca>
   12d5e:	573a                	lw	a4,172(sp)
   12d60:	ce3a                	sw	a4,28(sp)
   12d62:	41a787b3          	sub	a5,a5,s10
   12d66:	04700713          	li	a4,71
   12d6a:	d03e                	sw	a5,32(sp)
   12d6c:	98e60ae3          	beq	a2,a4,12700 <_vfprintf_r+0xf7c>
   12d70:	04600713          	li	a4,70
   12d74:	38e60863          	beq	a2,a4,13104 <_vfprintf_r+0x1980>
   12d78:	47f2                	lw	a5,28(sp)
   12d7a:	fff78713          	addi	a4,a5,-1
   12d7e:	ba59                	j	12714 <_vfprintf_r+0xf90>
   12d80:	001a8693          	addi	a3,s5,1
   12d84:	4609                	li	a2,2
   12d86:	4522                	lw	a0,8(sp)
   12d88:	09010b13          	addi	s6,sp,144
   12d8c:	1178                	addi	a4,sp,172
   12d8e:	85da                	mv	a1,s6
   12d90:	0bc10813          	addi	a6,sp,188
   12d94:	191c                	addi	a5,sp,176
   12d96:	c8c6                	sw	a7,80(sp)
   12d98:	d436                	sw	a3,40(sp)
   12d9a:	c97e                	sw	t6,144(sp)
   12d9c:	d27e                	sw	t6,36(sp)
   12d9e:	cb7a                	sw	t5,148(sp)
   12da0:	d07a                	sw	t5,32(sp)
   12da2:	cd76                	sw	t4,152(sp)
   12da4:	ce76                	sw	t4,28(sp)
   12da6:	cf62                	sw	s8,156(sp)
   12da8:	22a010ef          	jal	13fd2 <_ldtoa_r>
   12dac:	48c6                	lw	a7,80(sp)
   12dae:	56a2                	lw	a3,40(sp)
   12db0:	04600593          	li	a1,70
   12db4:	fdf8f613          	andi	a2,a7,-33
   12db8:	4ef2                	lw	t4,28(sp)
   12dba:	5f02                	lw	t5,32(sp)
   12dbc:	5f92                	lw	t6,36(sp)
   12dbe:	8d2a                	mv	s10,a0
   12dc0:	00d50733          	add	a4,a0,a3
   12dc4:	54b61563          	bne	a2,a1,1330e <_vfprintf_r+0x1b8a>
   12dc8:	000d4503          	lbu	a0,0(s10)
   12dcc:	03000593          	li	a1,48
   12dd0:	2eb50663          	beq	a0,a1,130bc <_vfprintf_r+0x1938>
   12dd4:	56ba                	lw	a3,172(sp)
   12dd6:	010c                	addi	a1,sp,128
   12dd8:	9736                	add	a4,a4,a3
   12dda:	b791                	j	12d1e <_vfprintf_r+0x159a>
   12ddc:	09010b13          	addi	s6,sp,144
   12de0:	010c                	addi	a1,sp,128
   12de2:	1170                	addi	a2,sp,172
   12de4:	855a                	mv	a0,s6
   12de6:	c0c6                	sw	a7,64(sp)
   12de8:	c17e                	sw	t6,128(sp)
   12dea:	c37a                	sw	t5,132(sp)
   12dec:	c576                	sw	t4,136(sp)
   12dee:	ce2e                	sw	a1,28(sp)
   12df0:	c762                	sw	s8,140(sp)
   12df2:	084010ef          	jal	13e76 <frexpl>
   12df6:	474a                	lw	a4,144(sp)
   12df8:	45f2                	lw	a1,28(sp)
   12dfa:	1890                	addi	a2,sp,112
   12dfc:	c13a                	sw	a4,128(sp)
   12dfe:	475a                	lw	a4,148(sp)
   12e00:	855a                	mv	a0,s6
   12e02:	d882                	sw	zero,112(sp)
   12e04:	c33a                	sw	a4,132(sp)
   12e06:	476a                	lw	a4,152(sp)
   12e08:	da82                	sw	zero,116(sp)
   12e0a:	dc82                	sw	zero,120(sp)
   12e0c:	c53a                	sw	a4,136(sp)
   12e0e:	477a                	lw	a4,156(sp)
   12e10:	c73a                	sw	a4,140(sp)
   12e12:	3ffc0737          	lui	a4,0x3ffc0
   12e16:	deba                	sw	a4,124(sp)
   12e18:	15c050ef          	jal	17f74 <__multf3>
   12e1c:	45f2                	lw	a1,28(sp)
   12e1e:	4f4a                	lw	t5,144(sp)
   12e20:	4eda                	lw	t4,148(sp)
   12e22:	486a                	lw	a6,152(sp)
   12e24:	855a                	mv	a0,s6
   12e26:	d42e                	sw	a1,40(sp)
   12e28:	d27a                	sw	t5,36(sp)
   12e2a:	d076                	sw	t4,32(sp)
   12e2c:	ce42                	sw	a6,28(sp)
   12e2e:	c102                	sw	zero,128(sp)
   12e30:	c302                	sw	zero,132(sp)
   12e32:	c502                	sw	zero,136(sp)
   12e34:	c702                	sw	zero,140(sp)
   12e36:	67b040ef          	jal	17cb0 <__eqtf2>
   12e3a:	4dfa                	lw	s11,156(sp)
   12e3c:	4872                	lw	a6,28(sp)
   12e3e:	5e82                	lw	t4,32(sp)
   12e40:	5f12                	lw	t5,36(sp)
   12e42:	55a2                	lw	a1,40(sp)
   12e44:	4886                	lw	a7,64(sp)
   12e46:	e119                	bnez	a0,12e4c <_vfprintf_r+0x16c8>
   12e48:	4705                	li	a4,1
   12e4a:	d73a                	sw	a4,172(sp)
   12e4c:	06100713          	li	a4,97
   12e50:	44e88d63          	beq	a7,a4,132aa <_vfprintf_r+0x1b26>
   12e54:	6769                	lui	a4,0x1a
   12e56:	20c70793          	addi	a5,a4,524 # 1a20c <__clzsi2+0xec>
   12e5a:	ce3e                	sw	a5,28(sp)
   12e5c:	d04a                	sw	s2,32(sp)
   12e5e:	d466                	sw	s9,40(sp)
   12e60:	c0de                	sw	s7,64(sp)
   12e62:	c6a2                	sw	s0,76(sp)
   12e64:	896a                	mv	s2,s10
   12e66:	c8a6                	sw	s1,80(sp)
   12e68:	caea                	sw	s10,84(sp)
   12e6a:	44f2                	lw	s1,28(sp)
   12e6c:	1afd                	addi	s5,s5,-1
   12e6e:	d246                	sw	a7,36(sp)
   12e70:	8bfa                	mv	s7,t5
   12e72:	8c76                	mv	s8,t4
   12e74:	8cc2                	mv	s9,a6
   12e76:	8d6e                	mv	s10,s11
   12e78:	842e                	mv	s0,a1
   12e7a:	a015                	j	12e9e <_vfprintf_r+0x171a>
   12e7c:	85a2                	mv	a1,s0
   12e7e:	855a                	mv	a0,s6
   12e80:	c95e                	sw	s7,144(sp)
   12e82:	cb62                	sw	s8,148(sp)
   12e84:	cd66                	sw	s9,152(sp)
   12e86:	cf6a                	sw	s10,156(sp)
   12e88:	c102                	sw	zero,128(sp)
   12e8a:	c302                	sw	zero,132(sp)
   12e8c:	c502                	sw	zero,136(sp)
   12e8e:	c702                	sw	zero,140(sp)
   12e90:	fffa8d93          	addi	s11,s5,-1
   12e94:	61d040ef          	jal	17cb0 <__eqtf2>
   12e98:	3c050c63          	beqz	a0,13270 <_vfprintf_r+0x1aec>
   12e9c:	8aee                	mv	s5,s11
   12e9e:	400307b7          	lui	a5,0x40030
   12ea2:	1890                	addi	a2,sp,112
   12ea4:	85a2                	mv	a1,s0
   12ea6:	855a                	mv	a0,s6
   12ea8:	debe                	sw	a5,124(sp)
   12eaa:	c15e                	sw	s7,128(sp)
   12eac:	c362                	sw	s8,132(sp)
   12eae:	c566                	sw	s9,136(sp)
   12eb0:	c76a                	sw	s10,140(sp)
   12eb2:	d882                	sw	zero,112(sp)
   12eb4:	da82                	sw	zero,116(sp)
   12eb6:	dc82                	sw	zero,120(sp)
   12eb8:	0bc050ef          	jal	17f74 <__multf3>
   12ebc:	855a                	mv	a0,s6
   12ebe:	6e1060ef          	jal	19d9e <__fixtfsi>
   12ec2:	85aa                	mv	a1,a0
   12ec4:	8daa                	mv	s11,a0
   12ec6:	855a                	mv	a0,s6
   12ec8:	4d4a                	lw	s10,144(sp)
   12eca:	4cda                	lw	s9,148(sp)
   12ecc:	4c6a                	lw	s8,152(sp)
   12ece:	4bfa                	lw	s7,156(sp)
   12ed0:	7f3060ef          	jal	19ec2 <__floatsitf>
   12ed4:	46ca                	lw	a3,144(sp)
   12ed6:	1090                	addi	a2,sp,96
   12ed8:	188c                	addi	a1,sp,112
   12eda:	d0b6                	sw	a3,96(sp)
   12edc:	46da                	lw	a3,148(sp)
   12ede:	8522                	mv	a0,s0
   12ee0:	d8ea                	sw	s10,112(sp)
   12ee2:	d2b6                	sw	a3,100(sp)
   12ee4:	46ea                	lw	a3,152(sp)
   12ee6:	dae6                	sw	s9,116(sp)
   12ee8:	dce2                	sw	s8,120(sp)
   12eea:	d4b6                	sw	a3,104(sp)
   12eec:	46fa                	lw	a3,156(sp)
   12eee:	dede                	sw	s7,124(sp)
   12ef0:	d6b6                	sw	a3,108(sp)
   12ef2:	51f050ef          	jal	18c10 <__subtf3>
   12ef6:	01b486b3          	add	a3,s1,s11
   12efa:	0006c603          	lbu	a2,0(a3)
   12efe:	8fca                	mv	t6,s2
   12f00:	0905                	addi	s2,s2,1
   12f02:	4b8a                	lw	s7,128(sp)
   12f04:	4c1a                	lw	s8,132(sp)
   12f06:	4caa                	lw	s9,136(sp)
   12f08:	4d3a                	lw	s10,140(sp)
   12f0a:	57fd                	li	a5,-1
   12f0c:	fec90fa3          	sb	a2,-1(s2)
   12f10:	f6fa96e3          	bne	s5,a5,12e7c <_vfprintf_r+0x16f8>
   12f14:	5892                	lw	a7,36(sp)
   12f16:	8f5e                	mv	t5,s7
   12f18:	8ee2                	mv	t4,s8
   12f1a:	8866                	mv	a6,s9
   12f1c:	85a2                	mv	a1,s0
   12f1e:	ccee                	sw	s11,88(sp)
   12f20:	3ffe0ab7          	lui	s5,0x3ffe0
   12f24:	8dea                	mv	s11,s10
   12f26:	855a                	mv	a0,s6
   12f28:	cec6                	sw	a7,92(sp)
   12f2a:	d27e                	sw	t6,36(sp)
   12f2c:	44c6                	lw	s1,80(sp)
   12f2e:	4b86                	lw	s7,64(sp)
   12f30:	5ca2                	lw	s9,40(sp)
   12f32:	4436                	lw	s0,76(sp)
   12f34:	c97a                	sw	t5,144(sp)
   12f36:	c8fa                	sw	t5,80(sp)
   12f38:	cb76                	sw	t4,148(sp)
   12f3a:	c6f6                	sw	t4,76(sp)
   12f3c:	cd42                	sw	a6,152(sp)
   12f3e:	c0c2                	sw	a6,64(sp)
   12f40:	cf6e                	sw	s11,156(sp)
   12f42:	c102                	sw	zero,128(sp)
   12f44:	c302                	sw	zero,132(sp)
   12f46:	c502                	sw	zero,136(sp)
   12f48:	c756                	sw	s5,140(sp)
   12f4a:	d42e                	sw	a1,40(sp)
   12f4c:	651040ef          	jal	17d9c <__getf2>
   12f50:	8c4a                	mv	s8,s2
   12f52:	4d56                	lw	s10,84(sp)
   12f54:	5902                	lw	s2,32(sp)
   12f56:	5f92                	lw	t6,36(sp)
   12f58:	48f6                	lw	a7,92(sp)
   12f5a:	00a04e63          	bgtz	a0,12f76 <_vfprintf_r+0x17f2>
   12f5e:	55a2                	lw	a1,40(sp)
   12f60:	855a                	mv	a0,s6
   12f62:	d046                	sw	a7,32(sp)
   12f64:	54d040ef          	jal	17cb0 <__eqtf2>
   12f68:	5882                	lw	a7,32(sp)
   12f6a:	e529                	bnez	a0,12fb4 <_vfprintf_r+0x1830>
   12f6c:	47e6                	lw	a5,88(sp)
   12f6e:	5f92                	lw	t6,36(sp)
   12f70:	0017f693          	andi	a3,a5,1
   12f74:	c2a1                	beqz	a3,12fb4 <_vfprintf_r+0x1830>
   12f76:	47f2                	lw	a5,28(sp)
   12f78:	df7e                	sw	t6,188(sp)
   12f7a:	fffc4603          	lbu	a2,-1(s8)
   12f7e:	00f7c583          	lbu	a1,15(a5) # 4003000f <__BSS_END__+0x400145b3>
   12f82:	86e2                	mv	a3,s8
   12f84:	00b61e63          	bne	a2,a1,12fa0 <_vfprintf_r+0x181c>
   12f88:	03000513          	li	a0,48
   12f8c:	fea68fa3          	sb	a0,-1(a3)
   12f90:	56fa                	lw	a3,188(sp)
   12f92:	fff68793          	addi	a5,a3,-1
   12f96:	df3e                	sw	a5,188(sp)
   12f98:	fff6c603          	lbu	a2,-1(a3)
   12f9c:	fec588e3          	beq	a1,a2,12f8c <_vfprintf_r+0x1808>
   12fa0:	00160593          	addi	a1,a2,1
   12fa4:	03900513          	li	a0,57
   12fa8:	0ff5f593          	zext.b	a1,a1
   12fac:	02a60c63          	beq	a2,a0,12fe4 <_vfprintf_r+0x1860>
   12fb0:	feb68fa3          	sb	a1,-1(a3)
   12fb4:	57ba                	lw	a5,172(sp)
   12fb6:	41ac0733          	sub	a4,s8,s10
   12fba:	d03a                	sw	a4,32(sp)
   12fbc:	fff78713          	addi	a4,a5,-1
   12fc0:	ce3e                	sw	a5,28(sp)
   12fc2:	06100613          	li	a2,97
   12fc6:	d73a                	sw	a4,172(sp)
   12fc8:	07000693          	li	a3,112
   12fcc:	00c88663          	beq	a7,a2,12fd8 <_vfprintf_r+0x1854>
   12fd0:	05000693          	li	a3,80
   12fd4:	04100893          	li	a7,65
   12fd8:	4605                	li	a2,1
   12fda:	f42ff06f          	j	1271c <_vfprintf_r+0xf98>
   12fde:	86d6                	mv	a3,s5
   12fe0:	460d                	li	a2,3
   12fe2:	b355                	j	12d86 <_vfprintf_r+0x1602>
   12fe4:	47f2                	lw	a5,28(sp)
   12fe6:	00a7c583          	lbu	a1,10(a5)
   12fea:	b7d9                	j	12fb0 <_vfprintf_r+0x182c>
   12fec:	0a714703          	lbu	a4,167(sp)
   12ff0:	4cb6                	lw	s9,76(sp)
   12ff2:	4a81                	li	s5,0
   12ff4:	c319                	beqz	a4,12ffa <_vfprintf_r+0x1876>
   12ff6:	afbfe06f          	j	11af0 <_vfprintf_r+0x36c>
   12ffa:	915fe06f          	j	1190e <_vfprintf_r+0x18a>
   12ffe:	5782                	lw	a5,32(sp)
   13000:	4772                	lw	a4,28(sp)
   13002:	12f74763          	blt	a4,a5,13130 <_vfprintf_r+0x19ac>
   13006:	47f2                	lw	a5,28(sp)
   13008:	001cf713          	andi	a4,s9,1
   1300c:	8b3e                	mv	s6,a5
   1300e:	c701                	beqz	a4,13016 <_vfprintf_r+0x1892>
   13010:	5732                	lw	a4,44(sp)
   13012:	00e78b33          	add	s6,a5,a4
   13016:	400cfe13          	andi	t3,s9,1024
   1301a:	000e0563          	beqz	t3,13024 <_vfprintf_r+0x18a0>
   1301e:	47f2                	lw	a5,28(sp)
   13020:	1ef04c63          	bgtz	a5,13218 <_vfprintf_r+0x1a94>
   13024:	fffb4693          	not	a3,s6
   13028:	86fd                	srai	a3,a3,0x1f
   1302a:	00db7db3          	and	s11,s6,a3
   1302e:	06700893          	li	a7,103
   13032:	d402                	sw	zero,40(sp)
   13034:	d202                	sw	zero,36(sp)
   13036:	f88ff06f          	j	127be <_vfprintf_r+0x103a>
   1303a:	01d0                	addi	a2,sp,196
   1303c:	85a6                	mv	a1,s1
   1303e:	854a                	mv	a0,s2
   13040:	2669                	jal	133ca <__sprint_r>
   13042:	98051d63          	bnez	a0,121dc <_vfprintf_r+0xa58>
   13046:	000cc683          	lbu	a3,0(s9)
   1304a:	463e                	lw	a2,204(sp)
   1304c:	85ce                	mv	a1,s3
   1304e:	4741                	li	a4,16
   13050:	481d                	li	a6,7
   13052:	9d36                	add	s10,s10,a3
   13054:	b69d                	j	12bba <_vfprintf_r+0x1436>
   13056:	4525                	li	a0,9
   13058:	83656ae3          	bltu	a0,s6,1288c <_vfprintf_r+0x1108>
   1305c:	b861                	j	128f4 <_vfprintf_r+0x1170>
   1305e:	57fd                	li	a5,-1
   13060:	c63e                	sw	a5,12(sp)
   13062:	9b1fe06f          	j	11a12 <_vfprintf_r+0x28e>
   13066:	02d00793          	li	a5,45
   1306a:	0af103a3          	sb	a5,167(sp)
   1306e:	02d00713          	li	a4,45
   13072:	b2a1                	j	129ba <_vfprintf_r+0x1236>
   13074:	0a714703          	lbu	a4,167(sp)
   13078:	ca62                	sw	s8,20(sp)
   1307a:	d402                	sw	zero,40(sp)
   1307c:	d202                	sw	zero,36(sp)
   1307e:	ce02                	sw	zero,28(sp)
   13080:	8dd6                	mv	s11,s5
   13082:	8b56                	mv	s6,s5
   13084:	4a81                	li	s5,0
   13086:	c319                	beqz	a4,1308c <_vfprintf_r+0x1908>
   13088:	a69fe06f          	j	11af0 <_vfprintf_r+0x36c>
   1308c:	883fe06f          	j	1190e <_vfprintf_r+0x18a>
   13090:	4522                	lw	a0,8(sp)
   13092:	01d0                	addi	a2,sp,196
   13094:	85a6                	mv	a1,s1
   13096:	2e15                	jal	133ca <__sprint_r>
   13098:	94051263          	bnez	a0,121dc <_vfprintf_r+0xa58>
   1309c:	5aba                	lw	s5,172(sp)
   1309e:	5782                	lw	a5,32(sp)
   130a0:	463e                	lw	a2,204(sp)
   130a2:	844e                	mv	s0,s3
   130a4:	41578ab3          	sub	s5,a5,s5
   130a8:	b12ff06f          	j	123ba <_vfprintf_r+0xc36>
   130ac:	67e9                	lui	a5,0x1a
   130ae:	1f478d13          	addi	s10,a5,500 # 1a1f4 <__clzsi2+0xd4>
   130b2:	ba19                	j	129c8 <_vfprintf_r+0x1244>
   130b4:	57ba                	lw	a5,172(sp)
   130b6:	ce3e                	sw	a5,28(sp)
   130b8:	87ba                	mv	a5,a4
   130ba:	b165                	j	12d62 <_vfprintf_r+0x15de>
   130bc:	010c                	addi	a1,sp,128
   130be:	855a                	mv	a0,s6
   130c0:	ceba                	sw	a4,92(sp)
   130c2:	ccb2                	sw	a2,88(sp)
   130c4:	cac6                	sw	a7,84(sp)
   130c6:	c8b6                	sw	a3,80(sp)
   130c8:	c97e                	sw	t6,144(sp)
   130ca:	d47e                	sw	t6,40(sp)
   130cc:	cb7a                	sw	t5,148(sp)
   130ce:	d27a                	sw	t5,36(sp)
   130d0:	cd76                	sw	t4,152(sp)
   130d2:	d076                	sw	t4,32(sp)
   130d4:	ce2e                	sw	a1,28(sp)
   130d6:	cf62                	sw	s8,156(sp)
   130d8:	c102                	sw	zero,128(sp)
   130da:	c302                	sw	zero,132(sp)
   130dc:	c502                	sw	zero,136(sp)
   130de:	c702                	sw	zero,140(sp)
   130e0:	3d1040ef          	jal	17cb0 <__eqtf2>
   130e4:	45f2                	lw	a1,28(sp)
   130e6:	5e82                	lw	t4,32(sp)
   130e8:	5f12                	lw	t5,36(sp)
   130ea:	5fa2                	lw	t6,40(sp)
   130ec:	46c6                	lw	a3,80(sp)
   130ee:	48d6                	lw	a7,84(sp)
   130f0:	4666                	lw	a2,88(sp)
   130f2:	4776                	lw	a4,92(sp)
   130f4:	1c051063          	bnez	a0,132b4 <_vfprintf_r+0x1b30>
   130f8:	57ba                	lw	a5,172(sp)
   130fa:	973e                	add	a4,a4,a5
   130fc:	ce3e                	sw	a5,28(sp)
   130fe:	41a707b3          	sub	a5,a4,s10
   13102:	d03e                	sw	a5,32(sp)
   13104:	47f2                	lw	a5,28(sp)
   13106:	001cf713          	andi	a4,s9,1
   1310a:	01576733          	or	a4,a4,s5
   1310e:	1af05963          	blez	a5,132c0 <_vfprintf_r+0x1b3c>
   13112:	18071463          	bnez	a4,1329a <_vfprintf_r+0x1b16>
   13116:	4b72                	lw	s6,28(sp)
   13118:	06600893          	li	a7,102
   1311c:	400cfe13          	andi	t3,s9,1024
   13120:	0e0e1e63          	bnez	t3,1321c <_vfprintf_r+0x1a98>
   13124:	fffb4693          	not	a3,s6
   13128:	86fd                	srai	a3,a3,0x1f
   1312a:	00db7db3          	and	s11,s6,a3
   1312e:	b711                	j	13032 <_vfprintf_r+0x18ae>
   13130:	5782                	lw	a5,32(sp)
   13132:	5732                	lw	a4,44(sp)
   13134:	06700893          	li	a7,103
   13138:	00e78b33          	add	s6,a5,a4
   1313c:	47f2                	lw	a5,28(sp)
   1313e:	fcf04fe3          	bgtz	a5,1311c <_vfprintf_r+0x1998>
   13142:	40fb0f33          	sub	t5,s6,a5
   13146:	001f0b13          	addi	s6,t5,1
   1314a:	fffb4693          	not	a3,s6
   1314e:	86fd                	srai	a3,a3,0x1f
   13150:	00db7db3          	and	s11,s6,a3
   13154:	bdf9                	j	13032 <_vfprintf_r+0x18ae>
   13156:	8ee6                	mv	t4,s9
   13158:	cf5fe06f          	j	11e4c <_vfprintf_r+0x6c8>
   1315c:	6869                	lui	a6,0x1a
   1315e:	55c1                	li	a1,-16
   13160:	40a00ab3          	neg	s5,a0
   13164:	67c80813          	addi	a6,a6,1660 # 1a67c <zeroes.0>
   13168:	04b55263          	bge	a0,a1,131ac <_vfprintf_r+0x1a28>
   1316c:	ce4a                	sw	s2,28(sp)
   1316e:	4b41                	li	s6,16
   13170:	4c1d                	li	s8,7
   13172:	8942                	mv	s2,a6
   13174:	a021                	j	1317c <_vfprintf_r+0x19f8>
   13176:	1ac1                	addi	s5,s5,-16 # 3ffdfff0 <__BSS_END__+0x3ffc4594>
   13178:	035b5863          	bge	s6,s5,131a8 <_vfprintf_r+0x1a24>
   1317c:	0641                	addi	a2,a2,16
   1317e:	0705                	addi	a4,a4,1
   13180:	01242023          	sw	s2,0(s0)
   13184:	01642223          	sw	s6,4(s0)
   13188:	c7b2                	sw	a2,204(sp)
   1318a:	c5ba                	sw	a4,200(sp)
   1318c:	0421                	addi	s0,s0,8
   1318e:	feec54e3          	bge	s8,a4,13176 <_vfprintf_r+0x19f2>
   13192:	4522                	lw	a0,8(sp)
   13194:	01d0                	addi	a2,sp,196
   13196:	85a6                	mv	a1,s1
   13198:	2c0d                	jal	133ca <__sprint_r>
   1319a:	c119                	beqz	a0,131a0 <_vfprintf_r+0x1a1c>
   1319c:	840ff06f          	j	121dc <_vfprintf_r+0xa58>
   131a0:	463e                	lw	a2,204(sp)
   131a2:	472e                	lw	a4,200(sp)
   131a4:	844e                	mv	s0,s3
   131a6:	bfc1                	j	13176 <_vfprintf_r+0x19f2>
   131a8:	884a                	mv	a6,s2
   131aa:	4972                	lw	s2,28(sp)
   131ac:	9656                	add	a2,a2,s5
   131ae:	0705                	addi	a4,a4,1
   131b0:	01042023          	sw	a6,0(s0)
   131b4:	01542223          	sw	s5,4(s0)
   131b8:	c7b2                	sw	a2,204(sp)
   131ba:	c5ba                	sw	a4,200(sp)
   131bc:	459d                	li	a1,7
   131be:	f8e5d763          	bge	a1,a4,1294c <_vfprintf_r+0x11c8>
   131c2:	4522                	lw	a0,8(sp)
   131c4:	01d0                	addi	a2,sp,196
   131c6:	85a6                	mv	a1,s1
   131c8:	2409                	jal	133ca <__sprint_r>
   131ca:	c119                	beqz	a0,131d0 <_vfprintf_r+0x1a4c>
   131cc:	810ff06f          	j	121dc <_vfprintf_r+0xa58>
   131d0:	463e                	lw	a2,204(sp)
   131d2:	472e                	lw	a4,200(sp)
   131d4:	844e                	mv	s0,s3
   131d6:	837ff06f          	j	12a0c <_vfprintf_r+0x1288>
   131da:	0b610693          	addi	a3,sp,182
   131de:	e619                	bnez	a2,131ec <_vfprintf_r+0x1a68>
   131e0:	03000693          	li	a3,48
   131e4:	0ad10b23          	sb	a3,182(sp)
   131e8:	0b710693          	addi	a3,sp,183
   131ec:	0b1c                	addi	a5,sp,400
   131ee:	40f68633          	sub	a2,a3,a5
   131f2:	03070713          	addi	a4,a4,48
   131f6:	0dd60793          	addi	a5,a2,221
   131fa:	00e68023          	sb	a4,0(a3)
   131fe:	c0be                	sw	a5,64(sp)
   13200:	d92ff06f          	j	12792 <_vfprintf_r+0x100e>
   13204:	c802                	sw	zero,16(sp)
   13206:	4a99                	li	s5,6
   13208:	9effe06f          	j	11bf6 <_vfprintf_r+0x472>
   1320c:	001cf713          	andi	a4,s9,1
   13210:	d8070a63          	beqz	a4,127a4 <_vfprintf_r+0x1020>
   13214:	d8cff06f          	j	127a0 <_vfprintf_r+0x101c>
   13218:	06700893          	li	a7,103
   1321c:	5672                	lw	a2,60(sp)
   1321e:	0ff00693          	li	a3,255
   13222:	00064703          	lbu	a4,0(a2)
   13226:	0ed70163          	beq	a4,a3,13308 <_vfprintf_r+0x1b84>
   1322a:	47f2                	lw	a5,28(sp)
   1322c:	4501                	li	a0,0
   1322e:	4581                	li	a1,0
   13230:	00f75a63          	bge	a4,a5,13244 <_vfprintf_r+0x1ac0>
   13234:	8f99                	sub	a5,a5,a4
   13236:	00164703          	lbu	a4,1(a2)
   1323a:	c71d                	beqz	a4,13268 <_vfprintf_r+0x1ae4>
   1323c:	0585                	addi	a1,a1,1
   1323e:	0605                	addi	a2,a2,1
   13240:	fed718e3          	bne	a4,a3,13230 <_vfprintf_r+0x1aac>
   13244:	de32                	sw	a2,60(sp)
   13246:	d22e                	sw	a1,36(sp)
   13248:	d42a                	sw	a0,40(sp)
   1324a:	ce3e                	sw	a5,28(sp)
   1324c:	57a2                	lw	a5,40(sp)
   1324e:	5712                	lw	a4,36(sp)
   13250:	973e                	add	a4,a4,a5
   13252:	47a6                	lw	a5,72(sp)
   13254:	02f70733          	mul	a4,a4,a5
   13258:	9b3a                	add	s6,s6,a4
   1325a:	fffb4693          	not	a3,s6
   1325e:	86fd                	srai	a3,a3,0x1f
   13260:	00db7db3          	and	s11,s6,a3
   13264:	d5aff06f          	j	127be <_vfprintf_r+0x103a>
   13268:	00064703          	lbu	a4,0(a2)
   1326c:	0505                	addi	a0,a0,1
   1326e:	bfc9                	j	13240 <_vfprintf_r+0x1abc>
   13270:	8c4a                	mv	s8,s2
   13272:	001a8693          	addi	a3,s5,1
   13276:	5892                	lw	a7,36(sp)
   13278:	5ca2                	lw	s9,40(sp)
   1327a:	4b86                	lw	s7,64(sp)
   1327c:	4436                	lw	s0,76(sp)
   1327e:	5902                	lw	s2,32(sp)
   13280:	44c6                	lw	s1,80(sp)
   13282:	4d56                	lw	s10,84(sp)
   13284:	96e2                	add	a3,a3,s8
   13286:	03000613          	li	a2,48
   1328a:	d20ac5e3          	bltz	s5,12fb4 <_vfprintf_r+0x1830>
   1328e:	0c05                	addi	s8,s8,1
   13290:	fecc0fa3          	sb	a2,-1(s8)
   13294:	fedc1de3          	bne	s8,a3,1328e <_vfprintf_r+0x1b0a>
   13298:	bb31                	j	12fb4 <_vfprintf_r+0x1830>
   1329a:	5732                	lw	a4,44(sp)
   1329c:	06600893          	li	a7,102
   132a0:	00ea8f33          	add	t5,s5,a4
   132a4:	00ff0b33          	add	s6,t5,a5
   132a8:	bd95                	j	1311c <_vfprintf_r+0x1998>
   132aa:	6769                	lui	a4,0x1a
   132ac:	1f870793          	addi	a5,a4,504 # 1a1f8 <__clzsi2+0xd8>
   132b0:	ce3e                	sw	a5,28(sp)
   132b2:	b66d                	j	12e5c <_vfprintf_r+0x16d8>
   132b4:	4505                	li	a0,1
   132b6:	40d506b3          	sub	a3,a0,a3
   132ba:	d736                	sw	a3,172(sp)
   132bc:	9736                	add	a4,a4,a3
   132be:	b485                	j	12d1e <_vfprintf_r+0x159a>
   132c0:	e711                	bnez	a4,132cc <_vfprintf_r+0x1b48>
   132c2:	4d85                	li	s11,1
   132c4:	06600893          	li	a7,102
   132c8:	4b05                	li	s6,1
   132ca:	b3a5                	j	13032 <_vfprintf_r+0x18ae>
   132cc:	57b2                	lw	a5,44(sp)
   132ce:	06600893          	li	a7,102
   132d2:	00178f13          	addi	t5,a5,1
   132d6:	015f0b33          	add	s6,t5,s5
   132da:	fffb4693          	not	a3,s6
   132de:	86fd                	srai	a3,a3,0x1f
   132e0:	00db7db3          	and	s11,s6,a3
   132e4:	b3b9                	j	13032 <_vfprintf_r+0x18ae>
   132e6:	4789                	li	a5,2
   132e8:	c0be                	sw	a5,64(sp)
   132ea:	ca8ff06f          	j	12792 <_vfprintf_r+0x100e>
   132ee:	47d2                	lw	a5,20(sp)
   132f0:	0007aa83          	lw	s5,0(a5)
   132f4:	0791                	addi	a5,a5,4
   132f6:	000ad363          	bgez	s5,132fc <_vfprintf_r+0x1b78>
   132fa:	5afd                	li	s5,-1
   132fc:	00194883          	lbu	a7,1(s2)
   13300:	ca3e                	sw	a5,20(sp)
   13302:	8936                	mv	s2,a3
   13304:	db0fe06f          	j	118b4 <_vfprintf_r+0x130>
   13308:	d402                	sw	zero,40(sp)
   1330a:	d202                	sw	zero,36(sp)
   1330c:	b781                	j	1324c <_vfprintf_r+0x1ac8>
   1330e:	04500613          	li	a2,69
   13312:	010c                	addi	a1,sp,128
   13314:	b429                	j	12d1e <_vfprintf_r+0x159a>
   13316:	00c4d783          	lhu	a5,12(s1)
   1331a:	0407e793          	ori	a5,a5,64
   1331e:	00f49623          	sh	a5,12(s1)
   13322:	ebefe06f          	j	119e0 <_vfprintf_r+0x25c>

00013326 <vfprintf>:
   13326:	87aa                	mv	a5,a0
   13328:	f141a503          	lw	a0,-236(gp) # 1b724 <_impure_ptr>
   1332c:	86b2                	mv	a3,a2
   1332e:	862e                	mv	a2,a1
   13330:	85be                	mv	a1,a5
   13332:	c52fe06f          	j	11784 <_vfprintf_r>

00013336 <__sbprintf>:
   13336:	b8010113          	addi	sp,sp,-1152
   1333a:	00c59783          	lh	a5,12(a1)
   1333e:	00e5d703          	lhu	a4,14(a1)
   13342:	46812c23          	sw	s0,1144(sp)
   13346:	842e                	mv	s0,a1
   13348:	65c1                	lui	a1,0x10
   1334a:	15f5                	addi	a1,a1,-3 # fffd <exit-0x97>
   1334c:	06442e03          	lw	t3,100(s0)
   13350:	01c42303          	lw	t1,28(s0)
   13354:	02442883          	lw	a7,36(s0)
   13358:	0742                	slli	a4,a4,0x10
   1335a:	8fed                	and	a5,a5,a1
   1335c:	8fd9                	or	a5,a5,a4
   1335e:	40000813          	li	a6,1024
   13362:	ca3e                	sw	a5,20(sp)
   13364:	002c                	addi	a1,sp,8
   13366:	189c                	addi	a5,sp,112
   13368:	46912a23          	sw	s1,1140(sp)
   1336c:	47212823          	sw	s2,1136(sp)
   13370:	46112e23          	sw	ra,1148(sp)
   13374:	892a                	mv	s2,a0
   13376:	d6f2                	sw	t3,108(sp)
   13378:	d21a                	sw	t1,36(sp)
   1337a:	d646                	sw	a7,44(sp)
   1337c:	c43e                	sw	a5,8(sp)
   1337e:	cc3e                	sw	a5,24(sp)
   13380:	c842                	sw	a6,16(sp)
   13382:	ce42                	sw	a6,28(sp)
   13384:	d002                	sw	zero,32(sp)
   13386:	bfefe0ef          	jal	11784 <_vfprintf_r>
   1338a:	84aa                	mv	s1,a0
   1338c:	02055963          	bgez	a0,133be <__sbprintf+0x88>
   13390:	01415783          	lhu	a5,20(sp)
   13394:	0407f793          	andi	a5,a5,64
   13398:	c799                	beqz	a5,133a6 <__sbprintf+0x70>
   1339a:	00c45783          	lhu	a5,12(s0)
   1339e:	0407e793          	ori	a5,a5,64
   133a2:	00f41623          	sh	a5,12(s0)
   133a6:	47c12083          	lw	ra,1148(sp)
   133aa:	47812403          	lw	s0,1144(sp)
   133ae:	47012903          	lw	s2,1136(sp)
   133b2:	8526                	mv	a0,s1
   133b4:	47412483          	lw	s1,1140(sp)
   133b8:	48010113          	addi	sp,sp,1152
   133bc:	8082                	ret
   133be:	002c                	addi	a1,sp,8
   133c0:	854a                	mv	a0,s2
   133c2:	2c9d                	jal	13638 <_fflush_r>
   133c4:	d571                	beqz	a0,13390 <__sbprintf+0x5a>
   133c6:	54fd                	li	s1,-1
   133c8:	b7e1                	j	13390 <__sbprintf+0x5a>

000133ca <__sprint_r>:
   133ca:	461c                	lw	a5,8(a2)
   133cc:	1141                	addi	sp,sp,-16
   133ce:	c422                	sw	s0,8(sp)
   133d0:	c606                	sw	ra,12(sp)
   133d2:	8432                	mv	s0,a2
   133d4:	eb81                	bnez	a5,133e4 <__sprint_r+0x1a>
   133d6:	40b2                	lw	ra,12(sp)
   133d8:	00042223          	sw	zero,4(s0)
   133dc:	4422                	lw	s0,8(sp)
   133de:	4501                	li	a0,0
   133e0:	0141                	addi	sp,sp,16
   133e2:	8082                	ret
   133e4:	2ce9                	jal	136be <__sfvwrite_r>
   133e6:	40b2                	lw	ra,12(sp)
   133e8:	00042423          	sw	zero,8(s0)
   133ec:	00042223          	sw	zero,4(s0)
   133f0:	4422                	lw	s0,8(sp)
   133f2:	0141                	addi	sp,sp,16
   133f4:	8082                	ret

000133f6 <_fclose_r>:
   133f6:	1141                	addi	sp,sp,-16
   133f8:	c606                	sw	ra,12(sp)
   133fa:	c04a                	sw	s2,0(sp)
   133fc:	cd89                	beqz	a1,13416 <_fclose_r+0x20>
   133fe:	c422                	sw	s0,8(sp)
   13400:	c226                	sw	s1,4(sp)
   13402:	842e                	mv	s0,a1
   13404:	84aa                	mv	s1,a0
   13406:	c119                	beqz	a0,1340c <_fclose_r+0x16>
   13408:	595c                	lw	a5,52(a0)
   1340a:	c7d1                	beqz	a5,13496 <_fclose_r+0xa0>
   1340c:	00c41783          	lh	a5,12(s0)
   13410:	eb89                	bnez	a5,13422 <_fclose_r+0x2c>
   13412:	4422                	lw	s0,8(sp)
   13414:	4492                	lw	s1,4(sp)
   13416:	40b2                	lw	ra,12(sp)
   13418:	4901                	li	s2,0
   1341a:	854a                	mv	a0,s2
   1341c:	4902                	lw	s2,0(sp)
   1341e:	0141                	addi	sp,sp,16
   13420:	8082                	ret
   13422:	85a2                	mv	a1,s0
   13424:	8526                	mv	a0,s1
   13426:	28bd                	jal	134a4 <__sflush_r>
   13428:	545c                	lw	a5,44(s0)
   1342a:	892a                	mv	s2,a0
   1342c:	c791                	beqz	a5,13438 <_fclose_r+0x42>
   1342e:	4c4c                	lw	a1,28(s0)
   13430:	8526                	mv	a0,s1
   13432:	9782                	jalr	a5
   13434:	04054663          	bltz	a0,13480 <_fclose_r+0x8a>
   13438:	00c45783          	lhu	a5,12(s0)
   1343c:	0807f793          	andi	a5,a5,128
   13440:	e7b1                	bnez	a5,1348c <_fclose_r+0x96>
   13442:	580c                	lw	a1,48(s0)
   13444:	c991                	beqz	a1,13458 <_fclose_r+0x62>
   13446:	04040793          	addi	a5,s0,64
   1344a:	00f58563          	beq	a1,a5,13454 <_fclose_r+0x5e>
   1344e:	8526                	mv	a0,s1
   13450:	b6bfd0ef          	jal	10fba <_free_r>
   13454:	02042823          	sw	zero,48(s0)
   13458:	406c                	lw	a1,68(s0)
   1345a:	c591                	beqz	a1,13466 <_fclose_r+0x70>
   1345c:	8526                	mv	a0,s1
   1345e:	b5dfd0ef          	jal	10fba <_free_r>
   13462:	04042223          	sw	zero,68(s0)
   13466:	cc2fd0ef          	jal	10928 <__sfp_lock_acquire>
   1346a:	00041623          	sh	zero,12(s0)
   1346e:	cbcfd0ef          	jal	1092a <__sfp_lock_release>
   13472:	40b2                	lw	ra,12(sp)
   13474:	4422                	lw	s0,8(sp)
   13476:	4492                	lw	s1,4(sp)
   13478:	854a                	mv	a0,s2
   1347a:	4902                	lw	s2,0(sp)
   1347c:	0141                	addi	sp,sp,16
   1347e:	8082                	ret
   13480:	00c45783          	lhu	a5,12(s0)
   13484:	597d                	li	s2,-1
   13486:	0807f793          	andi	a5,a5,128
   1348a:	dfc5                	beqz	a5,13442 <_fclose_r+0x4c>
   1348c:	480c                	lw	a1,16(s0)
   1348e:	8526                	mv	a0,s1
   13490:	b2bfd0ef          	jal	10fba <_free_r>
   13494:	b77d                	j	13442 <_fclose_r+0x4c>
   13496:	c7cfd0ef          	jal	10912 <__sinit>
   1349a:	bf8d                	j	1340c <_fclose_r+0x16>

0001349c <fclose>:
   1349c:	85aa                	mv	a1,a0
   1349e:	f141a503          	lw	a0,-236(gp) # 1b724 <_impure_ptr>
   134a2:	bf91                	j	133f6 <_fclose_r>

000134a4 <__sflush_r>:
   134a4:	00c59703          	lh	a4,12(a1)
   134a8:	1101                	addi	sp,sp,-32
   134aa:	cc22                	sw	s0,24(sp)
   134ac:	c64e                	sw	s3,12(sp)
   134ae:	ce06                	sw	ra,28(sp)
   134b0:	00877793          	andi	a5,a4,8
   134b4:	842e                	mv	s0,a1
   134b6:	89aa                	mv	s3,a0
   134b8:	e7e1                	bnez	a5,13580 <__sflush_r+0xdc>
   134ba:	6785                	lui	a5,0x1
   134bc:	80078793          	addi	a5,a5,-2048 # 800 <exit-0xf894>
   134c0:	41d4                	lw	a3,4(a1)
   134c2:	8fd9                	or	a5,a5,a4
   134c4:	00f59623          	sh	a5,12(a1)
   134c8:	10d05563          	blez	a3,135d2 <__sflush_r+0x12e>
   134cc:	02842803          	lw	a6,40(s0)
   134d0:	0a080263          	beqz	a6,13574 <__sflush_r+0xd0>
   134d4:	ca26                	sw	s1,20(sp)
   134d6:	01371693          	slli	a3,a4,0x13
   134da:	0009a483          	lw	s1,0(s3)
   134de:	0009a023          	sw	zero,0(s3)
   134e2:	4c4c                	lw	a1,28(s0)
   134e4:	0e06ce63          	bltz	a3,135e0 <__sflush_r+0x13c>
   134e8:	4601                	li	a2,0
   134ea:	4685                	li	a3,1
   134ec:	854e                	mv	a0,s3
   134ee:	9802                	jalr	a6
   134f0:	57fd                	li	a5,-1
   134f2:	862a                	mv	a2,a0
   134f4:	10f50f63          	beq	a0,a5,13612 <__sflush_r+0x16e>
   134f8:	00c41783          	lh	a5,12(s0)
   134fc:	02842803          	lw	a6,40(s0)
   13500:	4c4c                	lw	a1,28(s0)
   13502:	8b91                	andi	a5,a5,4
   13504:	c799                	beqz	a5,13512 <__sflush_r+0x6e>
   13506:	4058                	lw	a4,4(s0)
   13508:	581c                	lw	a5,48(s0)
   1350a:	8e19                	sub	a2,a2,a4
   1350c:	c399                	beqz	a5,13512 <__sflush_r+0x6e>
   1350e:	5c5c                	lw	a5,60(s0)
   13510:	8e1d                	sub	a2,a2,a5
   13512:	4681                	li	a3,0
   13514:	854e                	mv	a0,s3
   13516:	9802                	jalr	a6
   13518:	57fd                	li	a5,-1
   1351a:	0cf51563          	bne	a0,a5,135e4 <__sflush_r+0x140>
   1351e:	0009a683          	lw	a3,0(s3)
   13522:	47f5                	li	a5,29
   13524:	00c41703          	lh	a4,12(s0)
   13528:	10d7e163          	bltu	a5,a3,1362a <__sflush_r+0x186>
   1352c:	204007b7          	lui	a5,0x20400
   13530:	0785                	addi	a5,a5,1 # 20400001 <__BSS_END__+0x203e45a5>
   13532:	00d7d7b3          	srl	a5,a5,a3
   13536:	8b85                	andi	a5,a5,1
   13538:	cbed                	beqz	a5,1362a <__sflush_r+0x186>
   1353a:	4810                	lw	a2,16(s0)
   1353c:	77fd                	lui	a5,0xfffff
   1353e:	7ff78793          	addi	a5,a5,2047 # fffff7ff <__BSS_END__+0xfffe3da3>
   13542:	8ff9                	and	a5,a5,a4
   13544:	00f41623          	sh	a5,12(s0)
   13548:	00042223          	sw	zero,4(s0)
   1354c:	c010                	sw	a2,0(s0)
   1354e:	01371793          	slli	a5,a4,0x13
   13552:	0007d363          	bgez	a5,13558 <__sflush_r+0xb4>
   13556:	c6dd                	beqz	a3,13604 <__sflush_r+0x160>
   13558:	580c                	lw	a1,48(s0)
   1355a:	0099a023          	sw	s1,0(s3)
   1355e:	c9c5                	beqz	a1,1360e <__sflush_r+0x16a>
   13560:	04040793          	addi	a5,s0,64
   13564:	00f58563          	beq	a1,a5,1356e <__sflush_r+0xca>
   13568:	854e                	mv	a0,s3
   1356a:	a51fd0ef          	jal	10fba <_free_r>
   1356e:	44d2                	lw	s1,20(sp)
   13570:	02042823          	sw	zero,48(s0)
   13574:	4501                	li	a0,0
   13576:	40f2                	lw	ra,28(sp)
   13578:	4462                	lw	s0,24(sp)
   1357a:	49b2                	lw	s3,12(sp)
   1357c:	6105                	addi	sp,sp,32
   1357e:	8082                	ret
   13580:	c84a                	sw	s2,16(sp)
   13582:	0105a903          	lw	s2,16(a1)
   13586:	04090b63          	beqz	s2,135dc <__sflush_r+0x138>
   1358a:	ca26                	sw	s1,20(sp)
   1358c:	4184                	lw	s1,0(a1)
   1358e:	8b0d                	andi	a4,a4,3
   13590:	0125a023          	sw	s2,0(a1)
   13594:	412484b3          	sub	s1,s1,s2
   13598:	4781                	li	a5,0
   1359a:	e311                	bnez	a4,1359e <__sflush_r+0xfa>
   1359c:	49dc                	lw	a5,20(a1)
   1359e:	c41c                	sw	a5,8(s0)
   135a0:	00904663          	bgtz	s1,135ac <__sflush_r+0x108>
   135a4:	a81d                	j	135da <__sflush_r+0x136>
   135a6:	992a                	add	s2,s2,a0
   135a8:	02905963          	blez	s1,135da <__sflush_r+0x136>
   135ac:	505c                	lw	a5,36(s0)
   135ae:	4c4c                	lw	a1,28(s0)
   135b0:	86a6                	mv	a3,s1
   135b2:	864a                	mv	a2,s2
   135b4:	854e                	mv	a0,s3
   135b6:	9782                	jalr	a5
   135b8:	8c89                	sub	s1,s1,a0
   135ba:	fea046e3          	bgtz	a0,135a6 <__sflush_r+0x102>
   135be:	00c41703          	lh	a4,12(s0)
   135c2:	4942                	lw	s2,16(sp)
   135c4:	04076713          	ori	a4,a4,64
   135c8:	44d2                	lw	s1,20(sp)
   135ca:	00e41623          	sh	a4,12(s0)
   135ce:	557d                	li	a0,-1
   135d0:	b75d                	j	13576 <__sflush_r+0xd2>
   135d2:	5dd4                	lw	a3,60(a1)
   135d4:	eed04ce3          	bgtz	a3,134cc <__sflush_r+0x28>
   135d8:	bf71                	j	13574 <__sflush_r+0xd0>
   135da:	44d2                	lw	s1,20(sp)
   135dc:	4942                	lw	s2,16(sp)
   135de:	bf59                	j	13574 <__sflush_r+0xd0>
   135e0:	4830                	lw	a2,80(s0)
   135e2:	b705                	j	13502 <__sflush_r+0x5e>
   135e4:	00c41703          	lh	a4,12(s0)
   135e8:	4814                	lw	a3,16(s0)
   135ea:	77fd                	lui	a5,0xfffff
   135ec:	7ff78793          	addi	a5,a5,2047 # fffff7ff <__BSS_END__+0xfffe3da3>
   135f0:	8ff9                	and	a5,a5,a4
   135f2:	00f41623          	sh	a5,12(s0)
   135f6:	00042223          	sw	zero,4(s0)
   135fa:	c014                	sw	a3,0(s0)
   135fc:	01371793          	slli	a5,a4,0x13
   13600:	f407dce3          	bgez	a5,13558 <__sflush_r+0xb4>
   13604:	580c                	lw	a1,48(s0)
   13606:	c828                	sw	a0,80(s0)
   13608:	0099a023          	sw	s1,0(s3)
   1360c:	f9b1                	bnez	a1,13560 <__sflush_r+0xbc>
   1360e:	44d2                	lw	s1,20(sp)
   13610:	b795                	j	13574 <__sflush_r+0xd0>
   13612:	0009a783          	lw	a5,0(s3)
   13616:	ee0781e3          	beqz	a5,134f8 <__sflush_r+0x54>
   1361a:	4775                	li	a4,29
   1361c:	00e78a63          	beq	a5,a4,13630 <__sflush_r+0x18c>
   13620:	4759                	li	a4,22
   13622:	00e78763          	beq	a5,a4,13630 <__sflush_r+0x18c>
   13626:	00c41703          	lh	a4,12(s0)
   1362a:	04076713          	ori	a4,a4,64
   1362e:	bf69                	j	135c8 <__sflush_r+0x124>
   13630:	0099a023          	sw	s1,0(s3)
   13634:	44d2                	lw	s1,20(sp)
   13636:	bf3d                	j	13574 <__sflush_r+0xd0>

00013638 <_fflush_r>:
   13638:	1101                	addi	sp,sp,-32
   1363a:	cc22                	sw	s0,24(sp)
   1363c:	ce06                	sw	ra,28(sp)
   1363e:	842a                	mv	s0,a0
   13640:	c119                	beqz	a0,13646 <_fflush_r+0xe>
   13642:	595c                	lw	a5,52(a0)
   13644:	cf91                	beqz	a5,13660 <_fflush_r+0x28>
   13646:	00c59783          	lh	a5,12(a1)
   1364a:	e791                	bnez	a5,13656 <_fflush_r+0x1e>
   1364c:	40f2                	lw	ra,28(sp)
   1364e:	4462                	lw	s0,24(sp)
   13650:	4501                	li	a0,0
   13652:	6105                	addi	sp,sp,32
   13654:	8082                	ret
   13656:	8522                	mv	a0,s0
   13658:	4462                	lw	s0,24(sp)
   1365a:	40f2                	lw	ra,28(sp)
   1365c:	6105                	addi	sp,sp,32
   1365e:	b599                	j	134a4 <__sflush_r>
   13660:	c62e                	sw	a1,12(sp)
   13662:	ab0fd0ef          	jal	10912 <__sinit>
   13666:	45b2                	lw	a1,12(sp)
   13668:	bff9                	j	13646 <_fflush_r+0xe>

0001366a <fflush>:
   1366a:	cd05                	beqz	a0,136a2 <fflush+0x38>
   1366c:	85aa                	mv	a1,a0
   1366e:	f141a503          	lw	a0,-236(gp) # 1b724 <_impure_ptr>
   13672:	c119                	beqz	a0,13678 <fflush+0xe>
   13674:	595c                	lw	a5,52(a0)
   13676:	c799                	beqz	a5,13684 <fflush+0x1a>
   13678:	00c59783          	lh	a5,12(a1)
   1367c:	e399                	bnez	a5,13682 <fflush+0x18>
   1367e:	4501                	li	a0,0
   13680:	8082                	ret
   13682:	b50d                	j	134a4 <__sflush_r>
   13684:	1101                	addi	sp,sp,-32
   13686:	c62e                	sw	a1,12(sp)
   13688:	c42a                	sw	a0,8(sp)
   1368a:	ce06                	sw	ra,28(sp)
   1368c:	a86fd0ef          	jal	10912 <__sinit>
   13690:	45b2                	lw	a1,12(sp)
   13692:	4522                	lw	a0,8(sp)
   13694:	00c59783          	lh	a5,12(a1)
   13698:	e385                	bnez	a5,136b8 <fflush+0x4e>
   1369a:	40f2                	lw	ra,28(sp)
   1369c:	4501                	li	a0,0
   1369e:	6105                	addi	sp,sp,32
   136a0:	8082                	ret
   136a2:	666d                	lui	a2,0x1b
   136a4:	65cd                	lui	a1,0x13
   136a6:	656d                	lui	a0,0x1b
   136a8:	01060613          	addi	a2,a2,16 # 1b010 <__sglue>
   136ac:	63858593          	addi	a1,a1,1592 # 13638 <_fflush_r>
   136b0:	02050513          	addi	a0,a0,32 # 1b020 <_impure_data>
   136b4:	a98fd06f          	j	1094c <_fwalk_sglue>
   136b8:	40f2                	lw	ra,28(sp)
   136ba:	6105                	addi	sp,sp,32
   136bc:	b3e5                	j	134a4 <__sflush_r>

000136be <__sfvwrite_r>:
   136be:	461c                	lw	a5,8(a2)
   136c0:	1c078c63          	beqz	a5,13898 <__sfvwrite_r+0x1da>
   136c4:	00c59683          	lh	a3,12(a1)
   136c8:	7179                	addi	sp,sp,-48
   136ca:	d422                	sw	s0,40(sp)
   136cc:	cc52                	sw	s4,24(sp)
   136ce:	c85a                	sw	s6,16(sp)
   136d0:	d606                	sw	ra,44(sp)
   136d2:	0086f793          	andi	a5,a3,8
   136d6:	8b32                	mv	s6,a2
   136d8:	8a2a                	mv	s4,a0
   136da:	842e                	mv	s0,a1
   136dc:	c7ad                	beqz	a5,13746 <__sfvwrite_r+0x88>
   136de:	499c                	lw	a5,16(a1)
   136e0:	c3bd                	beqz	a5,13746 <__sfvwrite_r+0x88>
   136e2:	d226                	sw	s1,36(sp)
   136e4:	d04a                	sw	s2,32(sp)
   136e6:	ce4e                	sw	s3,28(sp)
   136e8:	ca56                	sw	s5,20(sp)
   136ea:	0026f793          	andi	a5,a3,2
   136ee:	000b2483          	lw	s1,0(s6)
   136f2:	cbb5                	beqz	a5,13766 <__sfvwrite_r+0xa8>
   136f4:	505c                	lw	a5,36(s0)
   136f6:	4c4c                	lw	a1,28(s0)
   136f8:	80000ab7          	lui	s5,0x80000
   136fc:	4981                	li	s3,0
   136fe:	4901                	li	s2,0
   13700:	c00a8a93          	addi	s5,s5,-1024 # 7ffffc00 <__BSS_END__+0x7ffe41a4>
   13704:	864e                	mv	a2,s3
   13706:	8552                	mv	a0,s4
   13708:	02090963          	beqz	s2,1373a <__sfvwrite_r+0x7c>
   1370c:	86ca                	mv	a3,s2
   1370e:	012af363          	bgeu	s5,s2,13714 <__sfvwrite_r+0x56>
   13712:	86d6                	mv	a3,s5
   13714:	9782                	jalr	a5
   13716:	2ca05c63          	blez	a0,139ee <__sfvwrite_r+0x330>
   1371a:	008b2783          	lw	a5,8(s6)
   1371e:	99aa                	add	s3,s3,a0
   13720:	40a90933          	sub	s2,s2,a0
   13724:	8f89                	sub	a5,a5,a0
   13726:	00fb2423          	sw	a5,8(s6)
   1372a:	12078563          	beqz	a5,13854 <__sfvwrite_r+0x196>
   1372e:	505c                	lw	a5,36(s0)
   13730:	4c4c                	lw	a1,28(s0)
   13732:	864e                	mv	a2,s3
   13734:	8552                	mv	a0,s4
   13736:	fc091be3          	bnez	s2,1370c <__sfvwrite_r+0x4e>
   1373a:	0004a983          	lw	s3,0(s1)
   1373e:	0044a903          	lw	s2,4(s1)
   13742:	04a1                	addi	s1,s1,8
   13744:	b7c1                	j	13704 <__sfvwrite_r+0x46>
   13746:	85a2                	mv	a1,s0
   13748:	8552                	mv	a0,s4
   1374a:	2c75                	jal	13a06 <__swsetup_r>
   1374c:	12051f63          	bnez	a0,1388a <__sfvwrite_r+0x1cc>
   13750:	00c41683          	lh	a3,12(s0)
   13754:	d226                	sw	s1,36(sp)
   13756:	d04a                	sw	s2,32(sp)
   13758:	ce4e                	sw	s3,28(sp)
   1375a:	ca56                	sw	s5,20(sp)
   1375c:	0026f793          	andi	a5,a3,2
   13760:	000b2483          	lw	s1,0(s6)
   13764:	fbc1                	bnez	a5,136f4 <__sfvwrite_r+0x36>
   13766:	c65e                	sw	s7,12(sp)
   13768:	c462                	sw	s8,8(sp)
   1376a:	0016f793          	andi	a5,a3,1
   1376e:	12079763          	bnez	a5,1389c <__sfvwrite_r+0x1de>
   13772:	401c                	lw	a5,0(s0)
   13774:	4418                	lw	a4,8(s0)
   13776:	80000ab7          	lui	s5,0x80000
   1377a:	c266                	sw	s9,4(sp)
   1377c:	4b81                	li	s7,0
   1377e:	4981                	li	s3,0
   13780:	1afd                	addi	s5,s5,-1 # 7fffffff <__BSS_END__+0x7ffe45a3>
   13782:	853e                	mv	a0,a5
   13784:	8c3a                	mv	s8,a4
   13786:	0a098e63          	beqz	s3,13842 <__sfvwrite_r+0x184>
   1378a:	2006f613          	andi	a2,a3,512
   1378e:	1a060563          	beqz	a2,13938 <__sfvwrite_r+0x27a>
   13792:	8cba                	mv	s9,a4
   13794:	20e9e563          	bltu	s3,a4,1399e <__sfvwrite_r+0x2e0>
   13798:	4806f713          	andi	a4,a3,1152
   1379c:	c73d                	beqz	a4,1380a <__sfvwrite_r+0x14c>
   1379e:	4850                	lw	a2,20(s0)
   137a0:	480c                	lw	a1,16(s0)
   137a2:	00161713          	slli	a4,a2,0x1
   137a6:	9732                	add	a4,a4,a2
   137a8:	40b78933          	sub	s2,a5,a1
   137ac:	01f75c13          	srli	s8,a4,0x1f
   137b0:	9c3a                	add	s8,s8,a4
   137b2:	00190793          	addi	a5,s2,1
   137b6:	401c5c13          	srai	s8,s8,0x1
   137ba:	97ce                	add	a5,a5,s3
   137bc:	8662                	mv	a2,s8
   137be:	00fc7463          	bgeu	s8,a5,137c6 <__sfvwrite_r+0x108>
   137c2:	8c3e                	mv	s8,a5
   137c4:	863e                	mv	a2,a5
   137c6:	4006f693          	andi	a3,a3,1024
   137ca:	1e068963          	beqz	a3,139bc <__sfvwrite_r+0x2fe>
   137ce:	85b2                	mv	a1,a2
   137d0:	8552                	mv	a0,s4
   137d2:	a0bfd0ef          	jal	111dc <_malloc_r>
   137d6:	8caa                	mv	s9,a0
   137d8:	20050e63          	beqz	a0,139f4 <__sfvwrite_r+0x336>
   137dc:	480c                	lw	a1,16(s0)
   137de:	864a                	mv	a2,s2
   137e0:	2b81                	jal	13d30 <memcpy>
   137e2:	00c45783          	lhu	a5,12(s0)
   137e6:	b7f7f793          	andi	a5,a5,-1153
   137ea:	0807e793          	ori	a5,a5,128
   137ee:	00f41623          	sh	a5,12(s0)
   137f2:	012c8533          	add	a0,s9,s2
   137f6:	412c07b3          	sub	a5,s8,s2
   137fa:	01942823          	sw	s9,16(s0)
   137fe:	01842a23          	sw	s8,20(s0)
   13802:	c008                	sw	a0,0(s0)
   13804:	8c4e                	mv	s8,s3
   13806:	c41c                	sw	a5,8(s0)
   13808:	8cce                	mv	s9,s3
   1380a:	8666                	mv	a2,s9
   1380c:	85de                	mv	a1,s7
   1380e:	2999                	jal	13c64 <memmove>
   13810:	4418                	lw	a4,8(s0)
   13812:	401c                	lw	a5,0(s0)
   13814:	894e                	mv	s2,s3
   13816:	41870733          	sub	a4,a4,s8
   1381a:	97e6                	add	a5,a5,s9
   1381c:	c418                	sw	a4,8(s0)
   1381e:	c01c                	sw	a5,0(s0)
   13820:	4981                	li	s3,0
   13822:	008b2783          	lw	a5,8(s6)
   13826:	9bca                	add	s7,s7,s2
   13828:	412787b3          	sub	a5,a5,s2
   1382c:	00fb2423          	sw	a5,8(s6)
   13830:	cf99                	beqz	a5,1384e <__sfvwrite_r+0x190>
   13832:	401c                	lw	a5,0(s0)
   13834:	4418                	lw	a4,8(s0)
   13836:	00c41683          	lh	a3,12(s0)
   1383a:	853e                	mv	a0,a5
   1383c:	8c3a                	mv	s8,a4
   1383e:	f40996e3          	bnez	s3,1378a <__sfvwrite_r+0xcc>
   13842:	0004ab83          	lw	s7,0(s1)
   13846:	0044a983          	lw	s3,4(s1)
   1384a:	04a1                	addi	s1,s1,8
   1384c:	bf1d                	j	13782 <__sfvwrite_r+0xc4>
   1384e:	4bb2                	lw	s7,12(sp)
   13850:	4c22                	lw	s8,8(sp)
   13852:	4c92                	lw	s9,4(sp)
   13854:	50b2                	lw	ra,44(sp)
   13856:	5422                	lw	s0,40(sp)
   13858:	5492                	lw	s1,36(sp)
   1385a:	5902                	lw	s2,32(sp)
   1385c:	49f2                	lw	s3,28(sp)
   1385e:	4ad2                	lw	s5,20(sp)
   13860:	4a62                	lw	s4,24(sp)
   13862:	4b42                	lw	s6,16(sp)
   13864:	4501                	li	a0,0
   13866:	6145                	addi	sp,sp,48
   13868:	8082                	ret
   1386a:	85a2                	mv	a1,s0
   1386c:	8552                	mv	a0,s4
   1386e:	33e9                	jal	13638 <_fflush_r>
   13870:	c93d                	beqz	a0,138e6 <__sfvwrite_r+0x228>
   13872:	00c41783          	lh	a5,12(s0)
   13876:	4bb2                	lw	s7,12(sp)
   13878:	4c22                	lw	s8,8(sp)
   1387a:	5492                	lw	s1,36(sp)
   1387c:	5902                	lw	s2,32(sp)
   1387e:	49f2                	lw	s3,28(sp)
   13880:	4ad2                	lw	s5,20(sp)
   13882:	0407e793          	ori	a5,a5,64
   13886:	00f41623          	sh	a5,12(s0)
   1388a:	50b2                	lw	ra,44(sp)
   1388c:	5422                	lw	s0,40(sp)
   1388e:	4a62                	lw	s4,24(sp)
   13890:	4b42                	lw	s6,16(sp)
   13892:	557d                	li	a0,-1
   13894:	6145                	addi	sp,sp,48
   13896:	8082                	ret
   13898:	4501                	li	a0,0
   1389a:	8082                	ret
   1389c:	4a81                	li	s5,0
   1389e:	4501                	li	a0,0
   138a0:	4c01                	li	s8,0
   138a2:	4981                	li	s3,0
   138a4:	04098e63          	beqz	s3,13900 <__sfvwrite_r+0x242>
   138a8:	c525                	beqz	a0,13910 <__sfvwrite_r+0x252>
   138aa:	87d6                	mv	a5,s5
   138ac:	8bce                	mv	s7,s3
   138ae:	0137f363          	bgeu	a5,s3,138b4 <__sfvwrite_r+0x1f6>
   138b2:	8bbe                	mv	s7,a5
   138b4:	4008                	lw	a0,0(s0)
   138b6:	481c                	lw	a5,16(s0)
   138b8:	00842903          	lw	s2,8(s0)
   138bc:	4854                	lw	a3,20(s0)
   138be:	00a7f563          	bgeu	a5,a0,138c8 <__sfvwrite_r+0x20a>
   138c2:	9936                	add	s2,s2,a3
   138c4:	05794f63          	blt	s2,s7,13922 <__sfvwrite_r+0x264>
   138c8:	0cdbce63          	blt	s7,a3,139a4 <__sfvwrite_r+0x2e6>
   138cc:	505c                	lw	a5,36(s0)
   138ce:	4c4c                	lw	a1,28(s0)
   138d0:	8662                	mv	a2,s8
   138d2:	8552                	mv	a0,s4
   138d4:	9782                	jalr	a5
   138d6:	892a                	mv	s2,a0
   138d8:	f8a05de3          	blez	a0,13872 <__sfvwrite_r+0x1b4>
   138dc:	412a8ab3          	sub	s5,s5,s2
   138e0:	4505                	li	a0,1
   138e2:	f80a84e3          	beqz	s5,1386a <__sfvwrite_r+0x1ac>
   138e6:	008b2783          	lw	a5,8(s6)
   138ea:	9c4a                	add	s8,s8,s2
   138ec:	412989b3          	sub	s3,s3,s2
   138f0:	412787b3          	sub	a5,a5,s2
   138f4:	00fb2423          	sw	a5,8(s6)
   138f8:	f7d5                	bnez	a5,138a4 <__sfvwrite_r+0x1e6>
   138fa:	4bb2                	lw	s7,12(sp)
   138fc:	4c22                	lw	s8,8(sp)
   138fe:	bf99                	j	13854 <__sfvwrite_r+0x196>
   13900:	0044a983          	lw	s3,4(s1)
   13904:	87a6                	mv	a5,s1
   13906:	04a1                	addi	s1,s1,8
   13908:	fe098ce3          	beqz	s3,13900 <__sfvwrite_r+0x242>
   1390c:	0007ac03          	lw	s8,0(a5)
   13910:	864e                	mv	a2,s3
   13912:	45a9                	li	a1,10
   13914:	8562                	mv	a0,s8
   13916:	22e9                	jal	13ae0 <memchr>
   13918:	c579                	beqz	a0,139e6 <__sfvwrite_r+0x328>
   1391a:	0505                	addi	a0,a0,1
   1391c:	41850ab3          	sub	s5,a0,s8
   13920:	b769                	j	138aa <__sfvwrite_r+0x1ec>
   13922:	85e2                	mv	a1,s8
   13924:	864a                	mv	a2,s2
   13926:	2e3d                	jal	13c64 <memmove>
   13928:	401c                	lw	a5,0(s0)
   1392a:	85a2                	mv	a1,s0
   1392c:	8552                	mv	a0,s4
   1392e:	97ca                	add	a5,a5,s2
   13930:	c01c                	sw	a5,0(s0)
   13932:	3319                	jal	13638 <_fflush_r>
   13934:	d545                	beqz	a0,138dc <__sfvwrite_r+0x21e>
   13936:	bf35                	j	13872 <__sfvwrite_r+0x1b4>
   13938:	4814                	lw	a3,16(s0)
   1393a:	02f6e863          	bltu	a3,a5,1396a <__sfvwrite_r+0x2ac>
   1393e:	4850                	lw	a2,20(s0)
   13940:	02c9e563          	bltu	s3,a2,1396a <__sfvwrite_r+0x2ac>
   13944:	87ce                	mv	a5,s3
   13946:	013af363          	bgeu	s5,s3,1394c <__sfvwrite_r+0x28e>
   1394a:	87d6                	mv	a5,s5
   1394c:	02c7e6b3          	rem	a3,a5,a2
   13950:	5058                	lw	a4,36(s0)
   13952:	4c4c                	lw	a1,28(s0)
   13954:	865e                	mv	a2,s7
   13956:	8552                	mv	a0,s4
   13958:	40d786b3          	sub	a3,a5,a3
   1395c:	9702                	jalr	a4
   1395e:	892a                	mv	s2,a0
   13960:	02a05963          	blez	a0,13992 <__sfvwrite_r+0x2d4>
   13964:	412989b3          	sub	s3,s3,s2
   13968:	bd6d                	j	13822 <__sfvwrite_r+0x164>
   1396a:	893a                	mv	s2,a4
   1396c:	00e9f363          	bgeu	s3,a4,13972 <__sfvwrite_r+0x2b4>
   13970:	894e                	mv	s2,s3
   13972:	853e                	mv	a0,a5
   13974:	864a                	mv	a2,s2
   13976:	85de                	mv	a1,s7
   13978:	24f5                	jal	13c64 <memmove>
   1397a:	4418                	lw	a4,8(s0)
   1397c:	401c                	lw	a5,0(s0)
   1397e:	41270733          	sub	a4,a4,s2
   13982:	97ca                	add	a5,a5,s2
   13984:	c418                	sw	a4,8(s0)
   13986:	c01c                	sw	a5,0(s0)
   13988:	ff71                	bnez	a4,13964 <__sfvwrite_r+0x2a6>
   1398a:	85a2                	mv	a1,s0
   1398c:	8552                	mv	a0,s4
   1398e:	316d                	jal	13638 <_fflush_r>
