
sim_O2/my_program:     file format elf32-littleriscv


Disassembly of section .text:

00010094 <exit>:
   10094:	1141                	addi	sp,sp,-16
   10096:	4581                	li	a1,0
   10098:	c422                	sw	s0,8(sp)
   1009a:	c606                	sw	ra,12(sp)
   1009c:	842a                	mv	s0,a0
   1009e:	316040ef          	jal	143b4 <__call_exitprocs>
   100a2:	f201a783          	lw	a5,-224(gp) # 1f8d8 <__stdio_exit_handler>
   100a6:	c391                	beqz	a5,100aa <exit+0x16>
   100a8:	9782                	jalr	a5
   100aa:	8522                	mv	a0,s0
   100ac:	1c60b0ef          	jal	1b272 <_exit>

000100b0 <main>:
   100b0:	67f9                	lui	a5,0x1e
   100b2:	94478793          	addi	a5,a5,-1724 # 1d944 <__clzsi2+0x70>
   100b6:	0007a883          	lw	a7,0(a5)
   100ba:	0047a803          	lw	a6,4(a5)
   100be:	4798                	lw	a4,8(a5)
   100c0:	00c7d783          	lhu	a5,12(a5)
   100c4:	715d                	addi	sp,sp,-80
   100c6:	4635                	li	a2,13
   100c8:	4681                	li	a3,0
   100ca:	858a                	mv	a1,sp
   100cc:	0808                	addi	a0,sp,16
   100ce:	c686                	sw	ra,76(sp)
   100d0:	de4e                	sw	s3,60(sp)
   100d2:	c046                	sw	a7,0(sp)
   100d4:	c242                	sw	a6,4(sp)
   100d6:	c43a                	sw	a4,8(sp)
   100d8:	00f11623          	sh	a5,12(sp)
   100dc:	2211                	jal	101e0 <crypto_hash>
   100de:	e921                	bnez	a0,1012e <main+0x7e>
   100e0:	89aa                	mv	s3,a0
   100e2:	6579                	lui	a0,0x1e
   100e4:	858a                	mv	a1,sp
   100e6:	92850513          	addi	a0,a0,-1752 # 1d928 <__clzsi2+0x54>
   100ea:	c4a2                	sw	s0,72(sp)
   100ec:	c2a6                	sw	s1,68(sp)
   100ee:	c0ca                	sw	s2,64(sp)
   100f0:	72d030ef          	jal	1401c <printf>
   100f4:	6579                	lui	a0,0x1e
   100f6:	93450513          	addi	a0,a0,-1740 # 1d934 <__clzsi2+0x60>
   100fa:	723030ef          	jal	1401c <printf>
   100fe:	0800                	addi	s0,sp,16
   10100:	03010913          	addi	s2,sp,48
   10104:	64f9                	lui	s1,0x1e
   10106:	00044583          	lbu	a1,0(s0)
   1010a:	93c48513          	addi	a0,s1,-1732 # 1d93c <__clzsi2+0x68>
   1010e:	0405                	addi	s0,s0,1
   10110:	70d030ef          	jal	1401c <printf>
   10114:	ff2419e3          	bne	s0,s2,10106 <main+0x56>
   10118:	4529                	li	a0,10
   1011a:	735030ef          	jal	1404e <putchar>
   1011e:	4426                	lw	s0,72(sp)
   10120:	4496                	lw	s1,68(sp)
   10122:	4906                	lw	s2,64(sp)
   10124:	40b6                	lw	ra,76(sp)
   10126:	854e                	mv	a0,s3
   10128:	59f2                	lw	s3,60(sp)
   1012a:	6161                	addi	sp,sp,80
   1012c:	8082                	ret
   1012e:	f141a783          	lw	a5,-236(gp) # 1f8cc <_impure_ptr>
   10132:	6579                	lui	a0,0x1e
   10134:	4655                	li	a2,21
   10136:	47d4                	lw	a3,12(a5)
   10138:	4585                	li	a1,1
   1013a:	91050513          	addi	a0,a0,-1776 # 1d910 <__clzsi2+0x3c>
   1013e:	625030ef          	jal	13f62 <fwrite>
   10142:	4985                	li	s3,1
   10144:	b7c5                	j	10124 <main+0x74>

00010146 <register_fini>:
   10146:	00000793          	li	a5,0
   1014a:	c791                	beqz	a5,10156 <register_fini+0x10>
   1014c:	655d                	lui	a0,0x17
   1014e:	39250513          	addi	a0,a0,914 # 17392 <__libc_fini_array>
   10152:	3300406f          	j	14482 <atexit>
   10156:	8082                	ret

00010158 <_start>:
   10158:	00010197          	auipc	gp,0x10
   1015c:	86018193          	addi	gp,gp,-1952 # 1f9b8 <__global_pointer$>
   10160:	f2018513          	addi	a0,gp,-224 # 1f8d8 <__stdio_exit_handler>
   10164:	24c18613          	addi	a2,gp,588 # 1fc04 <__BSS_END__>
   10168:	8e09                	sub	a2,a2,a0
   1016a:	4581                	li	a1,0
   1016c:	1a0040ef          	jal	1430c <memset>
   10170:	00004517          	auipc	a0,0x4
   10174:	31250513          	addi	a0,a0,786 # 14482 <atexit>
   10178:	c519                	beqz	a0,10186 <_start+0x2e>
   1017a:	00007517          	auipc	a0,0x7
   1017e:	21850513          	addi	a0,a0,536 # 17392 <__libc_fini_array>
   10182:	300040ef          	jal	14482 <atexit>
   10186:	114040ef          	jal	1429a <__libc_init_array>
   1018a:	4502                	lw	a0,0(sp)
   1018c:	004c                	addi	a1,sp,4
   1018e:	4601                	li	a2,0
   10190:	3705                	jal	100b0 <main>
   10192:	b709                	j	10094 <exit>

00010194 <__do_global_dtors_aux>:
   10194:	1141                	addi	sp,sp,-16
   10196:	c422                	sw	s0,8(sp)
   10198:	f401c783          	lbu	a5,-192(gp) # 1f8f8 <completed.1>
   1019c:	c606                	sw	ra,12(sp)
   1019e:	ef99                	bnez	a5,101bc <__do_global_dtors_aux+0x28>
   101a0:	00000793          	li	a5,0
   101a4:	cb89                	beqz	a5,101b6 <__do_global_dtors_aux+0x22>
   101a6:	0001f537          	lui	a0,0x1f
   101aa:	1a850513          	addi	a0,a0,424 # 1f1a8 <__EH_FRAME_BEGIN__>
   101ae:	00000097          	auipc	ra,0x0
   101b2:	000000e7          	jalr	zero # 0 <exit-0x10094>
   101b6:	4785                	li	a5,1
   101b8:	f4f18023          	sb	a5,-192(gp) # 1f8f8 <completed.1>
   101bc:	40b2                	lw	ra,12(sp)
   101be:	4422                	lw	s0,8(sp)
   101c0:	0141                	addi	sp,sp,16
   101c2:	8082                	ret

000101c4 <frame_dummy>:
   101c4:	00000793          	li	a5,0
   101c8:	cb99                	beqz	a5,101de <frame_dummy+0x1a>
   101ca:	0001f537          	lui	a0,0x1f
   101ce:	f4418593          	addi	a1,gp,-188 # 1f8fc <object.0>
   101d2:	1a850513          	addi	a0,a0,424 # 1f1a8 <__EH_FRAME_BEGIN__>
   101d6:	00000317          	auipc	t1,0x0
   101da:	00000067          	jr	zero # 0 <exit-0x10094>
   101de:	8082                	ret

000101e0 <crypto_hash>:
   101e0:	7159                	addi	sp,sp,-112
   101e2:	d6a2                	sw	s0,108(sp)
   101e4:	d4a6                	sw	s1,104(sp)
   101e6:	d2ca                	sw	s2,100(sp)
   101e8:	d0ce                	sw	s3,96(sp)
   101ea:	ced2                	sw	s4,92(sp)
   101ec:	ccd6                	sw	s5,88(sp)
   101ee:	cada                	sw	s6,84(sp)
   101f0:	c8de                	sw	s7,80(sp)
   101f2:	c6e2                	sw	s8,76(sp)
   101f4:	c4e6                	sw	s9,72(sp)
   101f6:	c2ea                	sw	s10,68(sp)
   101f8:	c0ee                	sw	s11,64(sp)
   101fa:	da2a                	sw	a0,52(sp)
   101fc:	de2e                	sw	a1,60(sp)
   101fe:	dc32                	sw	a2,56(sp)
   10200:	8836                	mv	a6,a3
   10202:	e299                	bnez	a3,10208 <crypto_hash+0x28>
   10204:	12d0306f          	j	13b30 <crypto_hash+0x3950>
   10208:	55e2                	lw	a1,56(sp)
   1020a:	23be9437          	lui	s0,0x23be9
   1020e:	a13c4937          	lui	s2,0xa13c4
   10212:	c62e                	sw	a1,12(sp)
   10214:	55f2                	lw	a1,60(sp)
   10216:	7f523ab7          	lui	s5,0x7f523
   1021a:	d6f6a3b7          	lui	t2,0xd6f6a
   1021e:	6c764fb7          	lui	t6,0x6c764
   10222:	2ec8e4b7          	lui	s1,0x2ec8e
   10226:	c0ae0737          	lui	a4,0xc0ae0
   1022a:	738ec7b7          	lui	a5,0x738ec
   1022e:	fc653637          	lui	a2,0xfc653
   10232:	014706b7          	lui	a3,0x1470
   10236:	ca42                	sw	a6,20(sp)
   10238:	c82e                	sw	a1,16(sp)
   1023a:	d8740413          	addi	s0,s0,-633 # 23be8d87 <__BSS_END__+0x23bc9183>
   1023e:	2a290913          	addi	s2,s2,674 # a13c42a2 <__BSS_END__+0xa13a469e>
   10242:	77da8a93          	addi	s5,s5,1917 # 7f52377d <__BSS_END__+0x7f503b79>
   10246:	54d38393          	addi	t2,t2,1357 # d6f6a54d <__BSS_END__+0xd6f4a949>
   1024a:	84cf8f93          	addi	t6,t6,-1972 # 6c76384c <__BSS_END__+0x6c743c48>
   1024e:	32948493          	addi	s1,s1,809 # 2ec8e329 <__BSS_END__+0x2ec6e725>
   10252:	fa770713          	addi	a4,a4,-89 # c0adffa7 <__BSS_END__+0xc0ac03a3>
   10256:	38a78793          	addi	a5,a5,906 # 738ec38a <__BSS_END__+0x738cc786>
   1025a:	8a660613          	addi	a2,a2,-1882 # fc6528a6 <__BSS_END__+0xfc632ca2>
   1025e:	19468693          	addi	a3,a3,404 # 1470194 <__BSS_END__+0x1450590>
   10262:	4f7d                	li	t5,31
   10264:	5b61                	li	s6,-8
   10266:	4ec2                	lw	t4,16(sp)
   10268:	03800293          	li	t0,56
   1026c:	4881                	li	a7,0
   1026e:	4b81                	li	s7,0
   10270:	a821                	j	10288 <crypto_hash+0xa8>
   10272:	4801                	li	a6,0
   10274:	00a595b3          	sll	a1,a1,a0
   10278:	12e1                	addi	t0,t0,-8
   1027a:	0108e8b3          	or	a7,a7,a6
   1027e:	00bbebb3          	or	s7,s7,a1
   10282:	0e85                	addi	t4,t4,1
   10284:	03628863          	beq	t0,s6,102b4 <crypto_hash+0xd4>
   10288:	fe028513          	addi	a0,t0,-32
   1028c:	000ec583          	lbu	a1,0(t4)
   10290:	405f0333          	sub	t1,t5,t0
   10294:	fc055fe3          	bgez	a0,10272 <crypto_hash+0x92>
   10298:	0015d513          	srli	a0,a1,0x1
   1029c:	00559833          	sll	a6,a1,t0
   102a0:	006555b3          	srl	a1,a0,t1
   102a4:	12e1                	addi	t0,t0,-8
   102a6:	0108e8b3          	or	a7,a7,a6
   102aa:	00bbebb3          	or	s7,s7,a1
   102ae:	0e85                	addi	t4,t4,1
   102b0:	fd629ce3          	bne	t0,s6,10288 <crypto_hash+0xa8>
   102b4:	01f745b3          	xor	a1,a4,t6
   102b8:	8e21                	xor	a2,a2,s0
   102ba:	8cbd                	xor	s1,s1,a5
   102bc:	011649b3          	xor	s3,a2,a7
   102c0:	0b45ce93          	xori	t4,a1,180
   102c4:	fff74e13          	not	t3,a4
   102c8:	00d946b3          	xor	a3,s2,a3
   102cc:	f4b5c593          	xori	a1,a1,-181
   102d0:	0176c6b3          	xor	a3,a3,s7
   102d4:	0155f5b3          	and	a1,a1,s5
   102d8:	01de7a33          	and	s4,t3,t4
   102dc:	fff7c313          	not	t1,a5
   102e0:	fff9c893          	not	a7,s3
   102e4:	fff4c613          	not	a2,s1
   102e8:	01544533          	xor	a0,s0,s5
   102ec:	013a4e33          	xor	t3,s4,s3
   102f0:	00937333          	and	t1,t1,s1
   102f4:	fffac413          	not	s0,s5
   102f8:	fff6c813          	not	a6,a3
   102fc:	00e8f8b3          	and	a7,a7,a4
   10300:	00767633          	and	a2,a2,t2
   10304:	8f2d                	xor	a4,a4,a1
   10306:	00a8c8b3          	xor	a7,a7,a0
   1030a:	00794933          	xor	s2,s2,t2
   1030e:	8c69                	and	s0,s0,a0
   10310:	00f87833          	and	a6,a6,a5
   10314:	fff54f93          	not	t6,a0
   10318:	8e3d                	xor	a2,a2,a5
   1031a:	00d34533          	xor	a0,t1,a3
   1031e:	01c747b3          	xor	a5,a4,t3
   10322:	8e29                	xor	a2,a2,a0
   10324:	01d44433          	xor	s0,s0,t4
   10328:	85be                	mv	a1,a5
   1032a:	fff94e93          	not	t4,s2
   1032e:	00defeb3          	and	t4,t4,a3
   10332:	01d7d713          	srli	a4,a5,0x1d
   10336:	86ae                	mv	a3,a1
   10338:	00361793          	slli	a5,a2,0x3
   1033c:	058e                	slli	a1,a1,0x3
   1033e:	cc2e                	sw	a1,24(sp)
   10340:	8f5d                	or	a4,a4,a5
   10342:	d23a                	sw	a4,36(sp)
   10344:	4762                	lw	a4,24(sp)
   10346:	01284833          	xor	a6,a6,s2
   1034a:	01054db3          	xor	s11,a0,a6
   1034e:	01d65793          	srli	a5,a2,0x1d
   10352:	0076d513          	srli	a0,a3,0x7
   10356:	ce2a                	sw	a0,28(sp)
   10358:	8fd9                	or	a5,a5,a4
   1035a:	fff3c293          	not	t0,t2
   1035e:	cc3e                	sw	a5,24(sp)
   10360:	0122f2b3          	and	t0,t0,s2
   10364:	47f2                	lw	a5,28(sp)
   10366:	0092c2b3          	xor	t0,t0,s1
   1036a:	0053c333          	xor	t1,t2,t0
   1036e:	008acab3          	xor	s5,s5,s0
   10372:	013fffb3          	and	t6,t6,s3
   10376:	01961d13          	slli	s10,a2,0x19
   1037a:	015fcfb3          	xor	t6,t6,s5
   1037e:	006eceb3          	xor	t4,t4,t1
   10382:	fff44c93          	not	s9,s0
   10386:	01a7ed33          	or	s10,a5,s10
   1038a:	01969413          	slli	s0,a3,0x19
   1038e:	00765793          	srli	a5,a2,0x7
   10392:	00afd393          	srli	t2,t6,0xa
   10396:	8c5d                	or	s0,s0,a5
   10398:	016e9793          	slli	a5,t4,0x16
   1039c:	fff2ca93          	not	s5,t0
   103a0:	0077e3b3          	or	t2,a5,t2
   103a4:	00aed293          	srli	t0,t4,0xa
   103a8:	016f9793          	slli	a5,t6,0x16
   103ac:	011fd713          	srli	a4,t6,0x11
   103b0:	0057e2b3          	or	t0,a5,t0
   103b4:	00fe9793          	slli	a5,t4,0xf
   103b8:	8fd9                	or	a5,a5,a4
   103ba:	ce3e                	sw	a5,28(sp)
   103bc:	011ed713          	srli	a4,t4,0x11
   103c0:	00ff9793          	slli	a5,t6,0xf
   103c4:	8fd9                	or	a5,a5,a4
   103c6:	d43e                	sw	a5,40(sp)
   103c8:	0078d513          	srli	a0,a7,0x7
   103cc:	01981793          	slli	a5,a6,0x19
   103d0:	00785593          	srli	a1,a6,0x7
   103d4:	8d5d                	or	a0,a0,a5
   103d6:	01989793          	slli	a5,a7,0x19
   103da:	01781713          	slli	a4,a6,0x17
   103de:	8ddd                	or	a1,a1,a5
   103e0:	0098d793          	srli	a5,a7,0x9
   103e4:	8fd9                	or	a5,a5,a4
   103e6:	d63e                	sw	a5,44(sp)
   103e8:	01789b93          	slli	s7,a7,0x17
   103ec:	00985793          	srli	a5,a6,0x9
   103f0:	0177ebb3          	or	s7,a5,s7
   103f4:	001cd713          	srli	a4,s9,0x1
   103f8:	01fa9793          	slli	a5,s5,0x1f
   103fc:	01fc9993          	slli	s3,s9,0x1f
   10400:	8fd9                	or	a5,a5,a4
   10402:	001ad713          	srli	a4,s5,0x1
   10406:	00e9e9b3          	or	s3,s3,a4
   1040a:	006cda13          	srli	s4,s9,0x6
   1040e:	01aa9713          	slli	a4,s5,0x1a
   10412:	011e4c33          	xor	s8,t3,a7
   10416:	01476a33          	or	s4,a4,s4
   1041a:	006ad313          	srli	t1,s5,0x6
   1041e:	01ac9713          	slli	a4,s9,0x1a
   10422:	013c5913          	srli	s2,s8,0x13
   10426:	00676333          	or	t1,a4,t1
   1042a:	00dd9713          	slli	a4,s11,0xd
   1042e:	01276933          	or	s2,a4,s2
   10432:	013dd493          	srli	s1,s11,0x13
   10436:	00dc1713          	slli	a4,s8,0xd
   1043a:	8cd9                	or	s1,s1,a4
   1043c:	01cc5e13          	srli	t3,s8,0x1c
   10440:	004d9713          	slli	a4,s11,0x4
   10444:	d036                	sw	a3,32(sp)
   10446:	01c76e33          	or	t3,a4,t3
   1044a:	01cdd693          	srli	a3,s11,0x1c
   1044e:	004c1713          	slli	a4,s8,0x4
   10452:	8ed9                	or	a3,a3,a4
   10454:	4762                	lw	a4,24(sp)
   10456:	0147c7b3          	xor	a5,a5,s4
   1045a:	01754533          	xor	a0,a0,s7
   1045e:	8c39                	xor	s0,s0,a4
   10460:	5712                	lw	a4,36(sp)
   10462:	0069c333          	xor	t1,s3,t1
   10466:	01c94e33          	xor	t3,s2,t3
   1046a:	01a74d33          	xor	s10,a4,s10
   1046e:	4772                	lw	a4,28(sp)
   10470:	8ea5                	xor	a3,a3,s1
   10472:	0197c7b3          	xor	a5,a5,s9
   10476:	00e3c3b3          	xor	t2,t2,a4
   1047a:	5722                	lw	a4,40(sp)
   1047c:	00cd4d33          	xor	s10,s10,a2
   10480:	01f3c3b3          	xor	t2,t2,t6
   10484:	00e2c2b3          	xor	t0,t0,a4
   10488:	5732                	lw	a4,44(sp)
   1048a:	01d2c2b3          	xor	t0,t0,t4
   1048e:	01154533          	xor	a0,a0,a7
   10492:	8db9                	xor	a1,a1,a4
   10494:	5702                	lw	a4,32(sp)
   10496:	0105c5b3          	xor	a1,a1,a6
   1049a:	01534333          	xor	t1,t1,s5
   1049e:	8c39                	xor	s0,s0,a4
   104a0:	8fa1                	xor	a5,a5,s0
   104a2:	018e4e33          	xor	t3,t3,s8
   104a6:	01b6c6b3          	xor	a3,a3,s11
   104aa:	01a34333          	xor	t1,t1,s10
   104ae:	8ead                	xor	a3,a3,a1
   104b0:	00ae4e33          	xor	t3,t3,a0
   104b4:	00b2c5b3          	xor	a1,t0,a1
   104b8:	00a3c533          	xor	a0,t2,a0
   104bc:	0a57c993          	xori	s3,a5,165
   104c0:	fff44a13          	not	s4,s0
   104c4:	fffd4893          	not	a7,s10
   104c8:	fff2c713          	not	a4,t0
   104cc:	f5a7c793          	xori	a5,a5,-166
   104d0:	013a7a33          	and	s4,s4,s3
   104d4:	8f6d                	and	a4,a4,a1
   104d6:	0077f7b3          	and	a5,a5,t2
   104da:	fffe4f93          	not	t6,t3
   104de:	fff34913          	not	s2,t1
   104e2:	fff54493          	not	s1,a0
   104e6:	fff5c613          	not	a2,a1
   104ea:	0068f8b3          	and	a7,a7,t1
   104ee:	00d8c8b3          	xor	a7,a7,a3
   104f2:	00597933          	and	s2,s2,t0
   104f6:	01c4f4b3          	and	s1,s1,t3
   104fa:	fff3c813          	not	a6,t2
   104fe:	01ca4e33          	xor	t3,s4,t3
   10502:	fff6ce93          	not	t4,a3
   10506:	008fffb3          	and	t6,t6,s0
   1050a:	8e75                	and	a2,a2,a3
   1050c:	006746b3          	xor	a3,a4,t1
   10510:	0087c733          	xor	a4,a5,s0
   10514:	00afcfb3          	xor	t6,t6,a0
   10518:	01c747b3          	xor	a5,a4,t3
   1051c:	00a87833          	and	a6,a6,a0
   10520:	01a94533          	xor	a0,s2,s10
   10524:	01154533          	xor	a0,a0,a7
   10528:	843e                	mv	s0,a5
   1052a:	00564633          	xor	a2,a2,t0
   1052e:	8e35                	xor	a2,a2,a3
   10530:	fff6cc13          	not	s8,a3
   10534:	01d7d713          	srli	a4,a5,0x1d
   10538:	86a2                	mv	a3,s0
   1053a:	00351793          	slli	a5,a0,0x3
   1053e:	040e                	slli	s0,s0,0x3
   10540:	cc22                	sw	s0,24(sp)
   10542:	8f5d                	or	a4,a4,a5
   10544:	d23a                	sw	a4,36(sp)
   10546:	4762                	lw	a4,24(sp)
   10548:	01aefeb3          	and	t4,t4,s10
   1054c:	00beceb3          	xor	t4,t4,a1
   10550:	01d55793          	srli	a5,a0,0x1d
   10554:	0074c5b3          	xor	a1,s1,t2
   10558:	0076d493          	srli	s1,a3,0x7
   1055c:	ce26                	sw	s1,28(sp)
   1055e:	8fd9                	or	a5,a5,a4
   10560:	cc3e                	sw	a5,24(sp)
   10562:	47f2                	lw	a5,28(sp)
   10564:	01384833          	xor	a6,a6,s3
   10568:	01951d13          	slli	s10,a0,0x19
   1056c:	0105c5b3          	xor	a1,a1,a6
   10570:	01969413          	slli	s0,a3,0x19
   10574:	01a7ed33          	or	s10,a5,s10
   10578:	00755793          	srli	a5,a0,0x7
   1057c:	00a5d393          	srli	t2,a1,0xa
   10580:	8c5d                	or	s0,s0,a5
   10582:	01661793          	slli	a5,a2,0x16
   10586:	00a65293          	srli	t0,a2,0xa
   1058a:	0077e3b3          	or	t2,a5,t2
   1058e:	01659793          	slli	a5,a1,0x16
   10592:	0115d713          	srli	a4,a1,0x11
   10596:	0057e2b3          	or	t0,a5,t0
   1059a:	00f61793          	slli	a5,a2,0xf
   1059e:	8fd9                	or	a5,a5,a4
   105a0:	ce3e                	sw	a5,28(sp)
   105a2:	01165713          	srli	a4,a2,0x11
   105a6:	00f59793          	slli	a5,a1,0xf
   105aa:	8fd9                	or	a5,a5,a4
   105ac:	01d8cdb3          	xor	s11,a7,t4
   105b0:	d43e                	sw	a5,40(sp)
   105b2:	007fd893          	srli	a7,t6,0x7
   105b6:	019e9793          	slli	a5,t4,0x19
   105ba:	fff84c93          	not	s9,a6
   105be:	0117e8b3          	or	a7,a5,a7
   105c2:	007ed813          	srli	a6,t4,0x7
   105c6:	019f9793          	slli	a5,t6,0x19
   105ca:	017e9713          	slli	a4,t4,0x17
   105ce:	0107e833          	or	a6,a5,a6
   105d2:	009fd793          	srli	a5,t6,0x9
   105d6:	8fd9                	or	a5,a5,a4
   105d8:	d63e                	sw	a5,44(sp)
   105da:	017f9b93          	slli	s7,t6,0x17
   105de:	009ed793          	srli	a5,t4,0x9
   105e2:	0177ebb3          	or	s7,a5,s7
   105e6:	001cd713          	srli	a4,s9,0x1
   105ea:	01fc1793          	slli	a5,s8,0x1f
   105ee:	01fc9993          	slli	s3,s9,0x1f
   105f2:	8fd9                	or	a5,a5,a4
   105f4:	001c5713          	srli	a4,s8,0x1
   105f8:	00e9e9b3          	or	s3,s3,a4
   105fc:	006cda13          	srli	s4,s9,0x6
   10600:	01ac1713          	slli	a4,s8,0x1a
   10604:	01fe4ab3          	xor	s5,t3,t6
   10608:	01476a33          	or	s4,a4,s4
   1060c:	006c5313          	srli	t1,s8,0x6
   10610:	01ac9713          	slli	a4,s9,0x1a
   10614:	013ad913          	srli	s2,s5,0x13
   10618:	00676333          	or	t1,a4,t1
   1061c:	00dd9713          	slli	a4,s11,0xd
   10620:	01276933          	or	s2,a4,s2
   10624:	013dd493          	srli	s1,s11,0x13
   10628:	00da9713          	slli	a4,s5,0xd
   1062c:	8cd9                	or	s1,s1,a4
   1062e:	01cade13          	srli	t3,s5,0x1c
   10632:	004d9713          	slli	a4,s11,0x4
   10636:	d036                	sw	a3,32(sp)
   10638:	01c76e33          	or	t3,a4,t3
   1063c:	01cdd693          	srli	a3,s11,0x1c
   10640:	004a9713          	slli	a4,s5,0x4
   10644:	8ed9                	or	a3,a3,a4
   10646:	4762                	lw	a4,24(sp)
   10648:	0178c8b3          	xor	a7,a7,s7
   1064c:	0147c7b3          	xor	a5,a5,s4
   10650:	8c39                	xor	s0,s0,a4
   10652:	5712                	lw	a4,36(sp)
   10654:	01c94e33          	xor	t3,s2,t3
   10658:	8ea5                	xor	a3,a3,s1
   1065a:	01a74d33          	xor	s10,a4,s10
   1065e:	4772                	lw	a4,28(sp)
   10660:	01f8c8b3          	xor	a7,a7,t6
   10664:	0069c333          	xor	t1,s3,t1
   10668:	00e3c3b3          	xor	t2,t2,a4
   1066c:	5722                	lw	a4,40(sp)
   1066e:	0197c7b3          	xor	a5,a5,s9
   10672:	015e4e33          	xor	t3,t3,s5
   10676:	00e2c2b3          	xor	t0,t0,a4
   1067a:	5732                	lw	a4,44(sp)
   1067c:	01b6c6b3          	xor	a3,a3,s11
   10680:	00ad4d33          	xor	s10,s10,a0
   10684:	00e84833          	xor	a6,a6,a4
   10688:	5702                	lw	a4,32(sp)
   1068a:	01d84833          	xor	a6,a6,t4
   1068e:	00b3c3b3          	xor	t2,t2,a1
   10692:	8c39                	xor	s0,s0,a4
   10694:	00c2c2b3          	xor	t0,t0,a2
   10698:	0106c6b3          	xor	a3,a3,a6
   1069c:	011e4e33          	xor	t3,t3,a7
   106a0:	8fa1                	xor	a5,a5,s0
   106a2:	01834333          	xor	t1,t1,s8
   106a6:	01a34333          	xor	t1,t1,s10
   106aa:	0113c8b3          	xor	a7,t2,a7
   106ae:	0102c833          	xor	a6,t0,a6
   106b2:	0967c913          	xori	s2,a5,150
   106b6:	fff44a13          	not	s4,s0
   106ba:	fffd4993          	not	s3,s10
   106be:	fff2c713          	not	a4,t0
   106c2:	fffe4f93          	not	t6,t3
   106c6:	fff6ce93          	not	t4,a3
   106ca:	f697c793          	xori	a5,a5,-151
   106ce:	012a7a33          	and	s4,s4,s2
   106d2:	01077733          	and	a4,a4,a6
   106d6:	0077f7b3          	and	a5,a5,t2
   106da:	fff3c613          	not	a2,t2
   106de:	fff34493          	not	s1,t1
   106e2:	fff8c593          	not	a1,a7
   106e6:	fff84513          	not	a0,a6
   106ea:	0069f9b3          	and	s3,s3,t1
   106ee:	008fffb3          	and	t6,t6,s0
   106f2:	01aefeb3          	and	t4,t4,s10
   106f6:	011fcfb3          	xor	t6,t6,a7
   106fa:	010eceb3          	xor	t4,t4,a6
   106fe:	00d9c9b3          	xor	s3,s3,a3
   10702:	0054f4b3          	and	s1,s1,t0
   10706:	01c5f5b3          	and	a1,a1,t3
   1070a:	01167633          	and	a2,a2,a7
   1070e:	01ca4e33          	xor	t3,s4,t3
   10712:	8d75                	and	a0,a0,a3
   10714:	006746b3          	xor	a3,a4,t1
   10718:	0087c733          	xor	a4,a5,s0
   1071c:	01c74733          	xor	a4,a4,t3
   10720:	01264633          	xor	a2,a2,s2
   10724:	01a4c8b3          	xor	a7,s1,s10
   10728:	8972                	mv	s2,t3
   1072a:	0075c833          	xor	a6,a1,t2
   1072e:	007fd493          	srli	s1,t6,0x7
   10732:	007ed413          	srli	s0,t4,0x7
   10736:	017e9593          	slli	a1,t4,0x17
   1073a:	017f9793          	slli	a5,t6,0x17
   1073e:	00554533          	xor	a0,a0,t0
   10742:	019e9393          	slli	t2,t4,0x19
   10746:	019f9e13          	slli	t3,t6,0x19
   1074a:	009fd313          	srli	t1,t6,0x9
   1074e:	009ed293          	srli	t0,t4,0x9
   10752:	0138c8b3          	xor	a7,a7,s3
   10756:	0093e3b3          	or	t2,t2,s1
   1075a:	008e6e33          	or	t3,t3,s0
   1075e:	00b36333          	or	t1,t1,a1
   10762:	00f2e2b3          	or	t0,t0,a5
   10766:	0053c2b3          	xor	t0,t2,t0
   1076a:	006e4333          	xor	t1,t3,t1
   1076e:	01d75393          	srli	t2,a4,0x1d
   10772:	00389e13          	slli	t3,a7,0x3
   10776:	d04a                	sw	s2,32(sp)
   10778:	cc16                	sw	t0,24(sp)
   1077a:	01c3e2b3          	or	t0,t2,t3
   1077e:	00371e13          	slli	t3,a4,0x3
   10782:	01d8d393          	srli	t2,a7,0x1d
   10786:	01989a13          	slli	s4,a7,0x19
   1078a:	01c3e3b3          	or	t2,t2,t3
   1078e:	00775e13          	srli	t3,a4,0x7
   10792:	00c84833          	xor	a6,a6,a2
   10796:	8d35                	xor	a0,a0,a3
   10798:	014e6a33          	or	s4,t3,s4
   1079c:	0078da93          	srli	s5,a7,0x7
   107a0:	01971e13          	slli	t3,a4,0x19
   107a4:	ce1a                	sw	t1,28(sp)
   107a6:	01caeab3          	or	s5,s5,t3
   107aa:	00a85313          	srli	t1,a6,0xa
   107ae:	01651e13          	slli	t3,a0,0x16
   107b2:	d476                	sw	t4,40(sp)
   107b4:	01d9cdb3          	xor	s11,s3,t4
   107b8:	006e6e33          	or	t3,t3,t1
   107bc:	00a55e93          	srli	t4,a0,0xa
   107c0:	01681313          	slli	t1,a6,0x16
   107c4:	d24e                	sw	s3,36(sp)
   107c6:	01d36333          	or	t1,t1,t4
   107ca:	01185993          	srli	s3,a6,0x11
   107ce:	00f51e93          	slli	t4,a0,0xf
   107d2:	01f94cb3          	xor	s9,s2,t6
   107d6:	fff64613          	not	a2,a2
   107da:	fff6c693          	not	a3,a3
   107de:	013ee9b3          	or	s3,t4,s3
   107e2:	01155913          	srli	s2,a0,0x11
   107e6:	00f81e93          	slli	t4,a6,0xf
   107ea:	0066db93          	srli	s7,a3,0x6
   107ee:	012ee933          	or	s2,t4,s2
   107f2:	0016d413          	srli	s0,a3,0x1
   107f6:	01f61e93          	slli	t4,a2,0x1f
   107fa:	01a61593          	slli	a1,a2,0x1a
   107fe:	01f69d13          	slli	s10,a3,0x1f
   10802:	01a69c13          	slli	s8,a3,0x1a
   10806:	008ee433          	or	s0,t4,s0
   1080a:	00165493          	srli	s1,a2,0x1
   1080e:	00dc9e93          	slli	t4,s9,0xd
   10812:	00665793          	srli	a5,a2,0x6
   10816:	0175e5b3          	or	a1,a1,s7
   1081a:	013ddb93          	srli	s7,s11,0x13
   1081e:	009d64b3          	or	s1,s10,s1
   10822:	00fc67b3          	or	a5,s8,a5
   10826:	00dd9d13          	slli	s10,s11,0xd
   1082a:	013cdc13          	srli	s8,s9,0x13
   1082e:	013e4e33          	xor	t3,t3,s3
   10832:	017eebb3          	or	s7,t4,s7
   10836:	5992                	lw	s3,36(sp)
   10838:	4ef2                	lw	t4,28(sp)
   1083a:	018d6c33          	or	s8,s10,s8
   1083e:	01234333          	xor	t1,t1,s2
   10842:	4d62                	lw	s10,24(sp)
   10844:	5902                	lw	s2,32(sp)
   10846:	0153c3b3          	xor	t2,t2,s5
   1084a:	00e3c3b3          	xor	t2,t2,a4
   1084e:	013ec9b3          	xor	s3,t4,s3
   10852:	8776                	mv	a4,t4
   10854:	5ea2                	lw	t4,40(sp)
   10856:	01cdda93          	srli	s5,s11,0x1c
   1085a:	0142c2b3          	xor	t0,t0,s4
   1085e:	8fa5                	xor	a5,a5,s1
   10860:	8da1                	xor	a1,a1,s0
   10862:	004d9493          	slli	s1,s11,0x4
   10866:	012d4433          	xor	s0,s10,s2
   1086a:	004c9a13          	slli	s4,s9,0x4
   1086e:	01ccd913          	srli	s2,s9,0x1c
   10872:	0112c2b3          	xor	t0,t0,a7
   10876:	0124e4b3          	or	s1,s1,s2
   1087a:	015a6a33          	or	s4,s4,s5
   1087e:	8fb1                	xor	a5,a5,a2
   10880:	8db5                	xor	a1,a1,a3
   10882:	008c4433          	xor	s0,s8,s0
   10886:	013bcbb3          	xor	s7,s7,s3
   1088a:	010e4e33          	xor	t3,t3,a6
   1088e:	00a34333          	xor	t1,t1,a0
   10892:	0055c5b3          	xor	a1,a1,t0
   10896:	014bcbb3          	xor	s7,s7,s4
   1089a:	8c25                	xor	s0,s0,s1
   1089c:	01fd4933          	xor	s2,s10,t6
   108a0:	01d74733          	xor	a4,a4,t4
   108a4:	0077c7b3          	xor	a5,a5,t2
   108a8:	006744b3          	xor	s1,a4,t1
   108ac:	01c94933          	xor	s2,s2,t3
   108b0:	0877c713          	xori	a4,a5,135
   108b4:	fff3ca13          	not	s4,t2
   108b8:	fff2c993          	not	s3,t0
   108bc:	fffe4613          	not	a2,t3
   108c0:	fff44f93          	not	t6,s0
   108c4:	fffbce93          	not	t4,s7
   108c8:	fff5c893          	not	a7,a1
   108cc:	f787c793          	xori	a5,a5,-136
   108d0:	00ea7a33          	and	s4,s4,a4
   108d4:	00b9f9b3          	and	s3,s3,a1
   108d8:	01c7f7b3          	and	a5,a5,t3
   108dc:	fff34693          	not	a3,t1
   108e0:	fff94813          	not	a6,s2
   108e4:	fff4c513          	not	a0,s1
   108e8:	01267633          	and	a2,a2,s2
   108ec:	007fffb3          	and	t6,t6,t2
   108f0:	005efeb3          	and	t4,t4,t0
   108f4:	0068f8b3          	and	a7,a7,t1
   108f8:	012fcfb3          	xor	t6,t6,s2
   108fc:	009eceb3          	xor	t4,t4,s1
   10900:	8e39                	xor	a2,a2,a4
   10902:	8ee5                	and	a3,a3,s1
   10904:	0077c733          	xor	a4,a5,t2
   10908:	0179c4b3          	xor	s1,s3,s7
   1090c:	00887833          	and	a6,a6,s0
   10910:	01757533          	and	a0,a0,s7
   10914:	008a4433          	xor	s0,s4,s0
   10918:	0058c8b3          	xor	a7,a7,t0
   1091c:	8f21                	xor	a4,a4,s0
   1091e:	0098c8b3          	xor	a7,a7,s1
   10922:	8922                	mv	s2,s0
   10924:	89a6                	mv	s3,s1
   10926:	8ead                	xor	a3,a3,a1
   10928:	007fd493          	srli	s1,t6,0x7
   1092c:	007ed413          	srli	s0,t4,0x7
   10930:	017e9593          	slli	a1,t4,0x17
   10934:	017f9793          	slli	a5,t6,0x17
   10938:	01c84833          	xor	a6,a6,t3
   1093c:	00654533          	xor	a0,a0,t1
   10940:	019e9393          	slli	t2,t4,0x19
   10944:	019f9e13          	slli	t3,t6,0x19
   10948:	009fd313          	srli	t1,t6,0x9
   1094c:	009ed293          	srli	t0,t4,0x9
   10950:	0093e3b3          	or	t2,t2,s1
   10954:	008e6e33          	or	t3,t3,s0
   10958:	00b36333          	or	t1,t1,a1
   1095c:	00f2e2b3          	or	t0,t0,a5
   10960:	0053c2b3          	xor	t0,t2,t0
   10964:	006e4333          	xor	t1,t3,t1
   10968:	00389393          	slli	t2,a7,0x3
   1096c:	01d75e13          	srli	t3,a4,0x1d
   10970:	cc16                	sw	t0,24(sp)
   10972:	007e62b3          	or	t0,t3,t2
   10976:	01d8de13          	srli	t3,a7,0x1d
   1097a:	00371393          	slli	t2,a4,0x3
   1097e:	01989a13          	slli	s4,a7,0x19
   10982:	007e63b3          	or	t2,t3,t2
   10986:	00775e13          	srli	t3,a4,0x7
   1098a:	00c84833          	xor	a6,a6,a2
   1098e:	8d35                	xor	a0,a0,a3
   10990:	014e6a33          	or	s4,t3,s4
   10994:	0078da93          	srli	s5,a7,0x7
   10998:	01971e13          	slli	t3,a4,0x19
   1099c:	ce1a                	sw	t1,28(sp)
   1099e:	01caeab3          	or	s5,s5,t3
   109a2:	00a85313          	srli	t1,a6,0xa
   109a6:	01651e13          	slli	t3,a0,0x16
   109aa:	01d9cdb3          	xor	s11,s3,t4
   109ae:	d476                	sw	t4,40(sp)
   109b0:	006e6e33          	or	t3,t3,t1
   109b4:	00a55e93          	srli	t4,a0,0xa
   109b8:	01681313          	slli	t1,a6,0x16
   109bc:	fff64613          	not	a2,a2
   109c0:	fff6c693          	not	a3,a3
   109c4:	d24e                	sw	s3,36(sp)
   109c6:	01d36333          	or	t1,t1,t4
   109ca:	01185993          	srli	s3,a6,0x11
   109ce:	00f51e93          	slli	t4,a0,0xf
   109d2:	01f94cb3          	xor	s9,s2,t6
   109d6:	d04a                	sw	s2,32(sp)
   109d8:	01f69d13          	slli	s10,a3,0x1f
   109dc:	01a69c13          	slli	s8,a3,0x1a
   109e0:	013ee9b3          	or	s3,t4,s3
   109e4:	01155913          	srli	s2,a0,0x11
   109e8:	00f81e93          	slli	t4,a6,0xf
   109ec:	00165493          	srli	s1,a2,0x1
   109f0:	00665793          	srli	a5,a2,0x6
   109f4:	0066db93          	srli	s7,a3,0x6
   109f8:	012ee933          	or	s2,t4,s2
   109fc:	009d64b3          	or	s1,s10,s1
   10a00:	01f61e93          	slli	t4,a2,0x1f
   10a04:	00dd9d13          	slli	s10,s11,0xd
   10a08:	0016d413          	srli	s0,a3,0x1
   10a0c:	01a61593          	slli	a1,a2,0x1a
   10a10:	00fc67b3          	or	a5,s8,a5
   10a14:	013cdc13          	srli	s8,s9,0x13
   10a18:	008ee433          	or	s0,t4,s0
   10a1c:	018d6c33          	or	s8,s10,s8
   10a20:	00dc9e93          	slli	t4,s9,0xd
   10a24:	4d62                	lw	s10,24(sp)
   10a26:	0175e5b3          	or	a1,a1,s7
   10a2a:	01234333          	xor	t1,t1,s2
   10a2e:	013ddb93          	srli	s7,s11,0x13
   10a32:	5902                	lw	s2,32(sp)
   10a34:	013e4e33          	xor	t3,t3,s3
   10a38:	017eebb3          	or	s7,t4,s7
   10a3c:	5992                	lw	s3,36(sp)
   10a3e:	4ef2                	lw	t4,28(sp)
   10a40:	8fa5                	xor	a5,a5,s1
   10a42:	8da1                	xor	a1,a1,s0
   10a44:	004d9493          	slli	s1,s11,0x4
   10a48:	012d4433          	xor	s0,s10,s2
   10a4c:	01ccd913          	srli	s2,s9,0x1c
   10a50:	013ec9b3          	xor	s3,t4,s3
   10a54:	0124e4b3          	or	s1,s1,s2
   10a58:	8976                	mv	s2,t4
   10a5a:	5ea2                	lw	t4,40(sp)
   10a5c:	0153c3b3          	xor	t2,t2,s5
   10a60:	0142c2b3          	xor	t0,t0,s4
   10a64:	01cdda93          	srli	s5,s11,0x1c
   10a68:	004c9a13          	slli	s4,s9,0x4
   10a6c:	00e3c3b3          	xor	t2,t2,a4
   10a70:	0112c2b3          	xor	t0,t0,a7
   10a74:	010e4e33          	xor	t3,t3,a6
   10a78:	8db5                	xor	a1,a1,a3
   10a7a:	015a6a33          	or	s4,s4,s5
   10a7e:	01fd46b3          	xor	a3,s10,t6
   10a82:	8fb1                	xor	a5,a5,a2
   10a84:	008c4433          	xor	s0,s8,s0
   10a88:	013bcbb3          	xor	s7,s7,s3
   10a8c:	00a34333          	xor	t1,t1,a0
   10a90:	01c6c833          	xor	a6,a3,t3
   10a94:	014bcbb3          	xor	s7,s7,s4
   10a98:	8c25                	xor	s0,s0,s1
   10a9a:	01d94733          	xor	a4,s2,t4
   10a9e:	0077c7b3          	xor	a5,a5,t2
   10aa2:	0055c933          	xor	s2,a1,t0
   10aa6:	00674733          	xor	a4,a4,t1
   10aaa:	0787c493          	xori	s1,a5,120
   10aae:	fff3ca13          	not	s4,t2
   10ab2:	fff2c993          	not	s3,t0
   10ab6:	fffe4513          	not	a0,t3
   10aba:	fff44613          	not	a2,s0
   10abe:	fffbc693          	not	a3,s7
   10ac2:	fff94e93          	not	t4,s2
   10ac6:	fff84f93          	not	t6,a6
   10aca:	f877c793          	xori	a5,a5,-121
   10ace:	009a7a33          	and	s4,s4,s1
   10ad2:	01c7f7b3          	and	a5,a5,t3
   10ad6:	008fffb3          	and	t6,t6,s0
   10ada:	fff34593          	not	a1,t1
   10ade:	fff74893          	not	a7,a4
   10ae2:	0129f9b3          	and	s3,s3,s2
   10ae6:	01057533          	and	a0,a0,a6
   10aea:	00767633          	and	a2,a2,t2
   10aee:	0056f6b3          	and	a3,a3,t0
   10af2:	006efeb3          	and	t4,t4,t1
   10af6:	8eb9                	xor	a3,a3,a4
   10af8:	01064633          	xor	a2,a2,a6
   10afc:	0179c9b3          	xor	s3,s3,s7
   10b00:	008a4433          	xor	s0,s4,s0
   10b04:	01cfc833          	xor	a6,t6,t3
   10b08:	8d25                	xor	a0,a0,s1
   10b0a:	005eceb3          	xor	t4,t4,t0
   10b0e:	8df9                	and	a1,a1,a4
   10b10:	0178f8b3          	and	a7,a7,s7
   10b14:	0077c733          	xor	a4,a5,t2
   10b18:	013ece33          	xor	t3,t4,s3
   10b1c:	8f21                	xor	a4,a4,s0
   10b1e:	0125c5b3          	xor	a1,a1,s2
   10b22:	00765493          	srli	s1,a2,0x7
   10b26:	8922                	mv	s2,s0
   10b28:	01761793          	slli	a5,a2,0x17
   10b2c:	0076d413          	srli	s0,a3,0x7
   10b30:	0068c8b3          	xor	a7,a7,t1
   10b34:	01969393          	slli	t2,a3,0x19
   10b38:	00a84333          	xor	t1,a6,a0
   10b3c:	01961f93          	slli	t6,a2,0x19
   10b40:	01769813          	slli	a6,a3,0x17
   10b44:	00965e93          	srli	t4,a2,0x9
   10b48:	0096d293          	srli	t0,a3,0x9
   10b4c:	0093e3b3          	or	t2,t2,s1
   10b50:	008fefb3          	or	t6,t6,s0
   10b54:	010eeeb3          	or	t4,t4,a6
   10b58:	00f2e2b3          	or	t0,t0,a5
   10b5c:	0053c2b3          	xor	t0,t2,t0
   10b60:	01dfceb3          	xor	t4,t6,t4
   10b64:	003e1393          	slli	t2,t3,0x3
   10b68:	01d75f93          	srli	t6,a4,0x1d
   10b6c:	d216                	sw	t0,36(sp)
   10b6e:	007fe2b3          	or	t0,t6,t2
   10b72:	01de5f93          	srli	t6,t3,0x1d
   10b76:	00371393          	slli	t2,a4,0x3
   10b7a:	019e1a13          	slli	s4,t3,0x19
   10b7e:	007fe3b3          	or	t2,t6,t2
   10b82:	00775f93          	srli	t6,a4,0x7
   10b86:	00b8c8b3          	xor	a7,a7,a1
   10b8a:	014fea33          	or	s4,t6,s4
   10b8e:	007e5a93          	srli	s5,t3,0x7
   10b92:	01971f93          	slli	t6,a4,0x19
   10b96:	d476                	sw	t4,40(sp)
   10b98:	01faeab3          	or	s5,s5,t6
   10b9c:	00a35e93          	srli	t4,t1,0xa
   10ba0:	01689f93          	slli	t6,a7,0x16
   10ba4:	00d9cdb3          	xor	s11,s3,a3
   10ba8:	d036                	sw	a3,32(sp)
   10baa:	01dfefb3          	or	t6,t6,t4
   10bae:	00a8d693          	srli	a3,a7,0xa
   10bb2:	01631e93          	slli	t4,t1,0x16
   10bb6:	ce4e                	sw	s3,28(sp)
   10bb8:	00deeeb3          	or	t4,t4,a3
   10bbc:	01135993          	srli	s3,t1,0x11
   10bc0:	00f89693          	slli	a3,a7,0xf
   10bc4:	00c94cb3          	xor	s9,s2,a2
   10bc8:	fff54513          	not	a0,a0
   10bcc:	fff5c593          	not	a1,a1
   10bd0:	cc4a                	sw	s2,24(sp)
   10bd2:	0136e9b3          	or	s3,a3,s3
   10bd6:	0118d913          	srli	s2,a7,0x11
   10bda:	00f31693          	slli	a3,t1,0xf
   10bde:	0065db93          	srli	s7,a1,0x6
   10be2:	0126e933          	or	s2,a3,s2
   10be6:	0015d413          	srli	s0,a1,0x1
   10bea:	01f51693          	slli	a3,a0,0x1f
   10bee:	01a51813          	slli	a6,a0,0x1a
   10bf2:	01f59d13          	slli	s10,a1,0x1f
   10bf6:	01a59c13          	slli	s8,a1,0x1a
   10bfa:	8c55                	or	s0,s0,a3
   10bfc:	00155493          	srli	s1,a0,0x1
   10c00:	00dc9693          	slli	a3,s9,0xd
   10c04:	00655793          	srli	a5,a0,0x6
   10c08:	01786833          	or	a6,a6,s7
   10c0c:	013ddb93          	srli	s7,s11,0x13
   10c10:	009d64b3          	or	s1,s10,s1
   10c14:	00fc67b3          	or	a5,s8,a5
   10c18:	00dd9d13          	slli	s10,s11,0xd
   10c1c:	013cdc13          	srli	s8,s9,0x13
   10c20:	013fcfb3          	xor	t6,t6,s3
   10c24:	0176ebb3          	or	s7,a3,s7
   10c28:	49f2                	lw	s3,28(sp)
   10c2a:	56a2                	lw	a3,40(sp)
   10c2c:	018d6c33          	or	s8,s10,s8
   10c30:	012eceb3          	xor	t4,t4,s2
   10c34:	5d12                	lw	s10,36(sp)
   10c36:	4962                	lw	s2,24(sp)
   10c38:	0153c3b3          	xor	t2,t2,s5
   10c3c:	00e3c3b3          	xor	t2,t2,a4
   10c40:	00d9c9b3          	xor	s3,s3,a3
   10c44:	8736                	mv	a4,a3
   10c46:	5682                	lw	a3,32(sp)
   10c48:	01cdda93          	srli	s5,s11,0x1c
   10c4c:	0142c2b3          	xor	t0,t0,s4
   10c50:	8fa5                	xor	a5,a5,s1
   10c52:	01044833          	xor	a6,s0,a6
   10c56:	004d9493          	slli	s1,s11,0x4
   10c5a:	01a94433          	xor	s0,s2,s10
   10c5e:	004c9a13          	slli	s4,s9,0x4
   10c62:	01ccd913          	srli	s2,s9,0x1c
   10c66:	01c2c2b3          	xor	t0,t0,t3
   10c6a:	0124e4b3          	or	s1,s1,s2
   10c6e:	015a6a33          	or	s4,s4,s5
   10c72:	8fa9                	xor	a5,a5,a0
   10c74:	00b84833          	xor	a6,a6,a1
   10c78:	008c4433          	xor	s0,s8,s0
   10c7c:	013bcbb3          	xor	s7,s7,s3
   10c80:	006fcfb3          	xor	t6,t6,t1
   10c84:	011eceb3          	xor	t4,t4,a7
   10c88:	00584833          	xor	a6,a6,t0
   10c8c:	014bcbb3          	xor	s7,s7,s4
   10c90:	8c25                	xor	s0,s0,s1
   10c92:	01a64633          	xor	a2,a2,s10
   10c96:	8eb9                	xor	a3,a3,a4
   10c98:	0077c7b3          	xor	a5,a5,t2
   10c9c:	01f64933          	xor	s2,a2,t6
   10ca0:	01d6c4b3          	xor	s1,a3,t4
   10ca4:	0697c713          	xori	a4,a5,105
   10ca8:	fff3ca13          	not	s4,t2
   10cac:	fff2c993          	not	s3,t0
   10cb0:	ffffc513          	not	a0,t6
   10cb4:	fff44613          	not	a2,s0
   10cb8:	fffbc693          	not	a3,s7
   10cbc:	fff84e13          	not	t3,a6
   10cc0:	f967c793          	xori	a5,a5,-106
   10cc4:	00ea7a33          	and	s4,s4,a4
   10cc8:	0109f9b3          	and	s3,s3,a6
   10ccc:	01f7f7b3          	and	a5,a5,t6
   10cd0:	fffec593          	not	a1,t4
   10cd4:	fff94313          	not	t1,s2
   10cd8:	fff4c893          	not	a7,s1
   10cdc:	01257533          	and	a0,a0,s2
   10ce0:	00767633          	and	a2,a2,t2
   10ce4:	0056f6b3          	and	a3,a3,t0
   10ce8:	01de7e33          	and	t3,t3,t4
   10cec:	8ea5                	xor	a3,a3,s1
   10cee:	01264633          	xor	a2,a2,s2
   10cf2:	8d39                	xor	a0,a0,a4
   10cf4:	8de5                	and	a1,a1,s1
   10cf6:	0077c733          	xor	a4,a5,t2
   10cfa:	0179c4b3          	xor	s1,s3,s7
   10cfe:	00837333          	and	t1,t1,s0
   10d02:	0178f8b3          	and	a7,a7,s7
   10d06:	008a4433          	xor	s0,s4,s0
   10d0a:	005e4e33          	xor	t3,t3,t0
   10d0e:	8f21                	xor	a4,a4,s0
   10d10:	009e4e33          	xor	t3,t3,s1
   10d14:	8922                	mv	s2,s0
   10d16:	89a6                	mv	s3,s1
   10d18:	0105c5b3          	xor	a1,a1,a6
   10d1c:	00765493          	srli	s1,a2,0x7
   10d20:	0076d413          	srli	s0,a3,0x7
   10d24:	01769813          	slli	a6,a3,0x17
   10d28:	01761793          	slli	a5,a2,0x17
   10d2c:	01f34333          	xor	t1,t1,t6
   10d30:	01d8c8b3          	xor	a7,a7,t4
   10d34:	01969393          	slli	t2,a3,0x19
   10d38:	01961f93          	slli	t6,a2,0x19
   10d3c:	00965e93          	srli	t4,a2,0x9
   10d40:	0096d293          	srli	t0,a3,0x9
   10d44:	0093e3b3          	or	t2,t2,s1
   10d48:	008fefb3          	or	t6,t6,s0
   10d4c:	010eeeb3          	or	t4,t4,a6
   10d50:	00f2e2b3          	or	t0,t0,a5
   10d54:	0053c2b3          	xor	t0,t2,t0
   10d58:	01dfceb3          	xor	t4,t6,t4
   10d5c:	003e1393          	slli	t2,t3,0x3
   10d60:	01d75f93          	srli	t6,a4,0x1d
   10d64:	cc4a                	sw	s2,24(sp)
   10d66:	ce4e                	sw	s3,28(sp)
   10d68:	d036                	sw	a3,32(sp)
   10d6a:	d216                	sw	t0,36(sp)
   10d6c:	007fe2b3          	or	t0,t6,t2
   10d70:	01de5f93          	srli	t6,t3,0x1d
   10d74:	00371393          	slli	t2,a4,0x3
   10d78:	019e1a13          	slli	s4,t3,0x19
   10d7c:	007fe3b3          	or	t2,t6,t2
   10d80:	00775f93          	srli	t6,a4,0x7
   10d84:	00a34333          	xor	t1,t1,a0
   10d88:	00b8c8b3          	xor	a7,a7,a1
   10d8c:	014fea33          	or	s4,t6,s4
   10d90:	007e5a93          	srli	s5,t3,0x7
   10d94:	01971f93          	slli	t6,a4,0x19
   10d98:	d476                	sw	t4,40(sp)
   10d9a:	01faeab3          	or	s5,s5,t6
   10d9e:	00a35e93          	srli	t4,t1,0xa
   10da2:	01689f93          	slli	t6,a7,0x16
   10da6:	00d9cdb3          	xor	s11,s3,a3
   10daa:	01dfefb3          	or	t6,t6,t4
   10dae:	00a8d693          	srli	a3,a7,0xa
   10db2:	01631e93          	slli	t4,t1,0x16
   10db6:	01135993          	srli	s3,t1,0x11
   10dba:	00deeeb3          	or	t4,t4,a3
   10dbe:	00f89693          	slli	a3,a7,0xf
   10dc2:	00c94cb3          	xor	s9,s2,a2
   10dc6:	fff54513          	not	a0,a0
   10dca:	fff5c593          	not	a1,a1
   10dce:	0136e9b3          	or	s3,a3,s3
   10dd2:	0118d913          	srli	s2,a7,0x11
   10dd6:	00f31693          	slli	a3,t1,0xf
   10dda:	0065db93          	srli	s7,a1,0x6
   10dde:	0126e933          	or	s2,a3,s2
   10de2:	0015d413          	srli	s0,a1,0x1
   10de6:	01f51693          	slli	a3,a0,0x1f
   10dea:	01a51813          	slli	a6,a0,0x1a
   10dee:	01f59d13          	slli	s10,a1,0x1f
   10df2:	01a59c13          	slli	s8,a1,0x1a
   10df6:	8c55                	or	s0,s0,a3
   10df8:	00155493          	srli	s1,a0,0x1
   10dfc:	00dc9693          	slli	a3,s9,0xd
   10e00:	00655793          	srli	a5,a0,0x6
   10e04:	01786833          	or	a6,a6,s7
   10e08:	013ddb93          	srli	s7,s11,0x13
   10e0c:	009d64b3          	or	s1,s10,s1
   10e10:	00fc67b3          	or	a5,s8,a5
   10e14:	00dd9d13          	slli	s10,s11,0xd
   10e18:	013cdc13          	srli	s8,s9,0x13
   10e1c:	013fcfb3          	xor	t6,t6,s3
   10e20:	0176ebb3          	or	s7,a3,s7
   10e24:	49f2                	lw	s3,28(sp)
   10e26:	56a2                	lw	a3,40(sp)
   10e28:	018d6c33          	or	s8,s10,s8
   10e2c:	012eceb3          	xor	t4,t4,s2
   10e30:	5d12                	lw	s10,36(sp)
   10e32:	4962                	lw	s2,24(sp)
   10e34:	0153c3b3          	xor	t2,t2,s5
   10e38:	00e3c3b3          	xor	t2,t2,a4
   10e3c:	00d9c9b3          	xor	s3,s3,a3
   10e40:	8736                	mv	a4,a3
   10e42:	5682                	lw	a3,32(sp)
   10e44:	01cdda93          	srli	s5,s11,0x1c
   10e48:	0142c2b3          	xor	t0,t0,s4
   10e4c:	8fa5                	xor	a5,a5,s1
   10e4e:	01044833          	xor	a6,s0,a6
   10e52:	004d9493          	slli	s1,s11,0x4
   10e56:	01a94433          	xor	s0,s2,s10
   10e5a:	004c9a13          	slli	s4,s9,0x4
   10e5e:	01ccd913          	srli	s2,s9,0x1c
   10e62:	01c2c2b3          	xor	t0,t0,t3
   10e66:	0124e4b3          	or	s1,s1,s2
   10e6a:	015a6a33          	or	s4,s4,s5
   10e6e:	8fa9                	xor	a5,a5,a0
   10e70:	00b84833          	xor	a6,a6,a1
   10e74:	008c4433          	xor	s0,s8,s0
   10e78:	013bcbb3          	xor	s7,s7,s3
   10e7c:	006fcfb3          	xor	t6,t6,t1
   10e80:	011eceb3          	xor	t4,t4,a7
   10e84:	00584833          	xor	a6,a6,t0
   10e88:	8c25                	xor	s0,s0,s1
   10e8a:	014bcbb3          	xor	s7,s7,s4
   10e8e:	01a64633          	xor	a2,a2,s10
   10e92:	0077c7b3          	xor	a5,a5,t2
   10e96:	8eb9                	xor	a3,a3,a4
   10e98:	01f644b3          	xor	s1,a2,t6
   10e9c:	01d6c733          	xor	a4,a3,t4
   10ea0:	05a7c913          	xori	s2,a5,90
   10ea4:	fff3ca13          	not	s4,t2
   10ea8:	fff2c993          	not	s3,t0
   10eac:	fff44613          	not	a2,s0
   10eb0:	fffbc693          	not	a3,s7
   10eb4:	fff84e13          	not	t3,a6
   10eb8:	fa57c793          	xori	a5,a5,-91
   10ebc:	012a7a33          	and	s4,s4,s2
   10ec0:	0109f9b3          	and	s3,s3,a6
   10ec4:	ffffc513          	not	a0,t6
   10ec8:	fffec593          	not	a1,t4
   10ecc:	fff4c313          	not	t1,s1
   10ed0:	fff74893          	not	a7,a4
   10ed4:	00767633          	and	a2,a2,t2
   10ed8:	0056f6b3          	and	a3,a3,t0
   10edc:	01f7f7b3          	and	a5,a5,t6
   10ee0:	01de7e33          	and	t3,t3,t4
   10ee4:	8eb9                	xor	a3,a3,a4
   10ee6:	8e25                	xor	a2,a2,s1
   10ee8:	8d65                	and	a0,a0,s1
   10eea:	8df9                	and	a1,a1,a4
   10eec:	00837333          	and	t1,t1,s0
   10ef0:	008a4733          	xor	a4,s4,s0
   10ef4:	0178f8b3          	and	a7,a7,s7
   10ef8:	0179c433          	xor	s0,s3,s7
   10efc:	0077c7b3          	xor	a5,a5,t2
   10f00:	005e4e33          	xor	t3,t3,t0
   10f04:	8fb9                	xor	a5,a5,a4
   10f06:	008e4e33          	xor	t3,t3,s0
   10f0a:	89a2                	mv	s3,s0
   10f0c:	01254533          	xor	a0,a0,s2
   10f10:	0105c5b3          	xor	a1,a1,a6
   10f14:	893a                	mv	s2,a4
   10f16:	00765493          	srli	s1,a2,0x7
   10f1a:	0076d413          	srli	s0,a3,0x7
   10f1e:	01769813          	slli	a6,a3,0x17
   10f22:	01761713          	slli	a4,a2,0x17
   10f26:	01f34333          	xor	t1,t1,t6
   10f2a:	01d8c8b3          	xor	a7,a7,t4
   10f2e:	01969393          	slli	t2,a3,0x19
   10f32:	01961f93          	slli	t6,a2,0x19
   10f36:	00965e93          	srli	t4,a2,0x9
   10f3a:	0096d293          	srli	t0,a3,0x9
   10f3e:	0093e3b3          	or	t2,t2,s1
   10f42:	008fefb3          	or	t6,t6,s0
   10f46:	010eeeb3          	or	t4,t4,a6
   10f4a:	00e2e2b3          	or	t0,t0,a4
   10f4e:	0053c2b3          	xor	t0,t2,t0
   10f52:	01dfceb3          	xor	t4,t6,t4
   10f56:	003e1393          	slli	t2,t3,0x3
   10f5a:	01d7df93          	srli	t6,a5,0x1d
   10f5e:	d216                	sw	t0,36(sp)
   10f60:	007fe2b3          	or	t0,t6,t2
   10f64:	01de5f93          	srli	t6,t3,0x1d
   10f68:	00379393          	slli	t2,a5,0x3
   10f6c:	019e1a13          	slli	s4,t3,0x19
   10f70:	007fe3b3          	or	t2,t6,t2
   10f74:	0077df93          	srli	t6,a5,0x7
   10f78:	00a34333          	xor	t1,t1,a0
   10f7c:	00b8c8b3          	xor	a7,a7,a1
   10f80:	014fea33          	or	s4,t6,s4
   10f84:	007e5a93          	srli	s5,t3,0x7
   10f88:	01979f93          	slli	t6,a5,0x19
   10f8c:	d476                	sw	t4,40(sp)
   10f8e:	01faeab3          	or	s5,s5,t6
   10f92:	00a35e93          	srli	t4,t1,0xa
   10f96:	01689f93          	slli	t6,a7,0x16
   10f9a:	00d9cdb3          	xor	s11,s3,a3
   10f9e:	d036                	sw	a3,32(sp)
   10fa0:	01dfefb3          	or	t6,t6,t4
   10fa4:	00a8d693          	srli	a3,a7,0xa
   10fa8:	01631e93          	slli	t4,t1,0x16
   10fac:	ce4e                	sw	s3,28(sp)
   10fae:	00deeeb3          	or	t4,t4,a3
   10fb2:	01135993          	srli	s3,t1,0x11
   10fb6:	00f89693          	slli	a3,a7,0xf
   10fba:	00c94cb3          	xor	s9,s2,a2
   10fbe:	fff54513          	not	a0,a0
   10fc2:	fff5c593          	not	a1,a1
   10fc6:	cc4a                	sw	s2,24(sp)
   10fc8:	0136e9b3          	or	s3,a3,s3
   10fcc:	0118d913          	srli	s2,a7,0x11
   10fd0:	00f31693          	slli	a3,t1,0xf
   10fd4:	0065db93          	srli	s7,a1,0x6
   10fd8:	0126e933          	or	s2,a3,s2
   10fdc:	0015d413          	srli	s0,a1,0x1
   10fe0:	01f51693          	slli	a3,a0,0x1f
   10fe4:	01a51813          	slli	a6,a0,0x1a
   10fe8:	8c55                	or	s0,s0,a3
   10fea:	01786833          	or	a6,a6,s7
   10fee:	00dc9693          	slli	a3,s9,0xd
   10ff2:	013ddb93          	srli	s7,s11,0x13
   10ff6:	01f59d13          	slli	s10,a1,0x1f
   10ffa:	01a59c13          	slli	s8,a1,0x1a
   10ffe:	00155493          	srli	s1,a0,0x1
   11002:	00655713          	srli	a4,a0,0x6
   11006:	013fcfb3          	xor	t6,t6,s3
   1100a:	0176ebb3          	or	s7,a3,s7
   1100e:	49f2                	lw	s3,28(sp)
   11010:	56a2                	lw	a3,40(sp)
   11012:	009d64b3          	or	s1,s10,s1
   11016:	00ec6733          	or	a4,s8,a4
   1101a:	00dd9d13          	slli	s10,s11,0xd
   1101e:	013cdc13          	srli	s8,s9,0x13
   11022:	018d6c33          	or	s8,s10,s8
   11026:	012eceb3          	xor	t4,t4,s2
   1102a:	5d12                	lw	s10,36(sp)
   1102c:	4962                	lw	s2,24(sp)
   1102e:	01044833          	xor	a6,s0,a6
   11032:	00d9c9b3          	xor	s3,s3,a3
   11036:	00b84833          	xor	a6,a6,a1
   1103a:	85b6                	mv	a1,a3
   1103c:	5682                	lw	a3,32(sp)
   1103e:	0142c2b3          	xor	t0,t0,s4
   11042:	01a94433          	xor	s0,s2,s10
   11046:	0153c3b3          	xor	t2,t2,s5
   1104a:	01ccd913          	srli	s2,s9,0x1c
   1104e:	8f25                	xor	a4,a4,s1
   11050:	004d9493          	slli	s1,s11,0x4
   11054:	00f3c3b3          	xor	t2,t2,a5
   11058:	011eceb3          	xor	t4,t4,a7
   1105c:	01c2c7b3          	xor	a5,t0,t3
   11060:	01cdda93          	srli	s5,s11,0x1c
   11064:	008c4433          	xor	s0,s8,s0
   11068:	0124e4b3          	or	s1,s1,s2
   1106c:	004c9a13          	slli	s4,s9,0x4
   11070:	8ead                	xor	a3,a3,a1
   11072:	00f84933          	xor	s2,a6,a5
   11076:	01d6c5b3          	xor	a1,a3,t4
   1107a:	015a6a33          	or	s4,s4,s5
   1107e:	013bcbb3          	xor	s7,s7,s3
   11082:	009449b3          	xor	s3,s0,s1
   11086:	006fcfb3          	xor	t6,t6,t1
   1108a:	014bcbb3          	xor	s7,s7,s4
   1108e:	01a64633          	xor	a2,a2,s10
   11092:	8f29                	xor	a4,a4,a0
   11094:	fffec813          	not	a6,t4
   11098:	fff9c413          	not	s0,s3
   1109c:	fff94493          	not	s1,s2
   110a0:	fff5c313          	not	t1,a1
   110a4:	01f64533          	xor	a0,a2,t6
   110a8:	00774733          	xor	a4,a4,t2
   110ac:	01d4f4b3          	and	s1,s1,t4
   110b0:	01737333          	and	t1,t1,s7
   110b4:	fff7c693          	not	a3,a5
   110b8:	ffffc893          	not	a7,t6
   110bc:	fffbc293          	not	t0,s7
   110c0:	00b87833          	and	a6,a6,a1
   110c4:	00747433          	and	s0,s0,t2
   110c8:	8c29                	xor	s0,s0,a0
   110ca:	04b74a13          	xori	s4,a4,75
   110ce:	01284833          	xor	a6,a6,s2
   110d2:	fff3c613          	not	a2,t2
   110d6:	fff54e13          	not	t3,a0
   110da:	0126f6b3          	and	a3,a3,s2
   110de:	00a8f8b3          	and	a7,a7,a0
   110e2:	00f2f2b3          	and	t0,t0,a5
   110e6:	00f4c533          	xor	a0,s1,a5
   110ea:	fb474713          	xori	a4,a4,-76
   110ee:	01d347b3          	xor	a5,t1,t4
   110f2:	0176c6b3          	xor	a3,a3,s7
   110f6:	01467633          	and	a2,a2,s4
   110fa:	0107cbb3          	xor	s7,a5,a6
   110fe:	01f77733          	and	a4,a4,t6
   11102:	47b2                	lw	a5,12(sp)
   11104:	00b2c2b3          	xor	t0,t0,a1
   11108:	01364633          	xor	a2,a2,s3
   1110c:	00774733          	xor	a4,a4,t2
   11110:	00c74933          	xor	s2,a4,a2
   11114:	013e7e33          	and	t3,t3,s3
   11118:	0056c733          	xor	a4,a3,t0
   1111c:	00d543b3          	xor	t2,a0,a3
   11120:	0148c8b3          	xor	a7,a7,s4
   11124:	01fe45b3          	xor	a1,t3,t6
   11128:	ff878693          	addi	a3,a5,-8
   1112c:	87ba                	mv	a5,a4
   1112e:	0115cc33          	xor	s8,a1,a7
   11132:	fff8cd93          	not	s11,a7
   11136:	00479d13          	slli	s10,a5,0x4
   1113a:	01c7d893          	srli	a7,a5,0x1c
   1113e:	d03e                	sw	a5,32(sp)
   11140:	47b2                	lw	a5,12(sp)
   11142:	8e21                	xor	a2,a2,s0
   11144:	fff84493          	not	s1,a6
   11148:	00f6b7b3          	sltu	a5,a3,a5
   1114c:	00d71813          	slli	a6,a4,0xd
   11150:	d836                	sw	a3,48(sp)
   11152:	834d                	srli	a4,a4,0x13
   11154:	00d61693          	slli	a3,a2,0xd
   11158:	ce46                	sw	a7,28(sp)
   1115a:	8f55                	or	a4,a4,a3
   1115c:	01c65693          	srli	a3,a2,0x1c
   11160:	00dd6d33          	or	s10,s10,a3
   11164:	46f2                	lw	a3,28(sp)
   11166:	00461c93          	slli	s9,a2,0x4
   1116a:	00339f93          	slli	t6,t2,0x3
   1116e:	00dcecb3          	or	s9,s9,a3
   11172:	01d95693          	srli	a3,s2,0x1d
   11176:	00391e93          	slli	t4,s2,0x3
   1117a:	01f6efb3          	or	t6,a3,t6
   1117e:	01d3d693          	srli	a3,t2,0x1d
   11182:	01939a13          	slli	s4,t2,0x19
   11186:	c63e                	sw	a5,12(sp)
   11188:	01d6eeb3          	or	t4,a3,t4
   1118c:	01365793          	srli	a5,a2,0x13
   11190:	00795693          	srli	a3,s2,0x7
   11194:	00f867b3          	or	a5,a6,a5
   11198:	0146e833          	or	a6,a3,s4
   1119c:	0073da13          	srli	s4,t2,0x7
   111a0:	01991693          	slli	a3,s2,0x19
   111a4:	00da66b3          	or	a3,s4,a3
   111a8:	001dd593          	srli	a1,s11,0x1
   111ac:	01f49a13          	slli	s4,s1,0x1f
   111b0:	0014de13          	srli	t3,s1,0x1
   111b4:	00ba65b3          	or	a1,s4,a1
   111b8:	01fd9a13          	slli	s4,s11,0x1f
   111bc:	01a49a93          	slli	s5,s1,0x1a
   111c0:	01ca6e33          	or	t3,s4,t3
   111c4:	006dda13          	srli	s4,s11,0x6
   111c8:	cc36                	sw	a3,24(sp)
   111ca:	014aeab3          	or	s5,s5,s4
   111ce:	0064d693          	srli	a3,s1,0x6
   111d2:	01ad9a13          	slli	s4,s11,0x1a
   111d6:	00da6a33          	or	s4,s4,a3
   111da:	d252                	sw	s4,36(sp)
   111dc:	00ac5893          	srli	a7,s8,0xa
   111e0:	016b9a13          	slli	s4,s7,0x16
   111e4:	011a68b3          	or	a7,s4,a7
   111e8:	00abd313          	srli	t1,s7,0xa
   111ec:	016c1a13          	slli	s4,s8,0x16
   111f0:	006a6333          	or	t1,s4,t1
   111f4:	00fb9693          	slli	a3,s7,0xf
   111f8:	011c5a13          	srli	s4,s8,0x11
   111fc:	ce42                	sw	a6,28(sp)
   111fe:	0146ea33          	or	s4,a3,s4
   11202:	011bd813          	srli	a6,s7,0x11
   11206:	00fc1693          	slli	a3,s8,0xf
   1120a:	0106e833          	or	a6,a3,a6
   1120e:	00745513          	srli	a0,s0,0x7
   11212:	d442                	sw	a6,40(sp)
   11214:	01929813          	slli	a6,t0,0x19
   11218:	00a86533          	or	a0,a6,a0
   1121c:	0072d693          	srli	a3,t0,0x7
   11220:	01941813          	slli	a6,s0,0x19
   11224:	00d86833          	or	a6,a6,a3
   11228:	d642                	sw	a6,44(sp)
   1122a:	01729693          	slli	a3,t0,0x17
   1122e:	00945813          	srli	a6,s0,0x9
   11232:	01741993          	slli	s3,s0,0x17
   11236:	00d86833          	or	a6,a6,a3
   1123a:	0092d693          	srli	a3,t0,0x9
   1123e:	0136e9b3          	or	s3,a3,s3
   11242:	01a7c7b3          	xor	a5,a5,s10
   11246:	01974733          	xor	a4,a4,s9
   1124a:	46d2                	lw	a3,20(sp)
   1124c:	4cf2                	lw	s9,28(sp)
   1124e:	0155c5b3          	xor	a1,a1,s5
   11252:	01354533          	xor	a0,a0,s3
   11256:	5a92                	lw	s5,36(sp)
   11258:	4d62                	lw	s10,24(sp)
   1125a:	0148c8b3          	xor	a7,a7,s4
   1125e:	8e3d                	xor	a2,a2,a5
   11260:	5a22                	lw	s4,40(sp)
   11262:	49b2                	lw	s3,12(sp)
   11264:	5782                	lw	a5,32(sp)
   11266:	16fd                	addi	a3,a3,-1
   11268:	019fcfb3          	xor	t6,t6,s9
   1126c:	8c29                	xor	s0,s0,a0
   1126e:	4542                	lw	a0,16(sp)
   11270:	01434333          	xor	t1,t1,s4
   11274:	99b6                	add	s3,s3,a3
   11276:	5a32                	lw	s4,44(sp)
   11278:	00f746b3          	xor	a3,a4,a5
   1127c:	007fc7b3          	xor	a5,t6,t2
   11280:	01b5cfb3          	xor	t6,a1,s11
   11284:	55c2                	lw	a1,48(sp)
   11286:	0521                	addi	a0,a0,8
   11288:	015e4e33          	xor	t3,t3,s5
   1128c:	01aeceb3          	xor	t4,t4,s10
   11290:	010a4833          	xor	a6,s4,a6
   11294:	ca4e                	sw	s3,20(sp)
   11296:	c82a                	sw	a0,16(sp)
   11298:	c62e                	sw	a1,12(sp)
   1129a:	012ec733          	xor	a4,t4,s2
   1129e:	009e44b3          	xor	s1,t3,s1
   112a2:	0188cab3          	xor	s5,a7,s8
   112a6:	017343b3          	xor	t2,t1,s7
   112aa:	00584933          	xor	s2,a6,t0
   112ae:	00098463          	beqz	s3,112b6 <crypto_hash+0x10d6>
   112b2:	fb5fe06f          	j	10266 <crypto_hash+0x86>
   112b6:	451d                	li	a0,7
   112b8:	00b57463          	bgeu	a0,a1,112c0 <crypto_hash+0x10e0>
   112bc:	fabfe06f          	j	10266 <crypto_hash+0x86>
   112c0:	5e62                	lw	t3,56(sp)
   112c2:	0123c333          	xor	t1,t2,s2
   112c6:	fff3c813          	not	a6,t2
   112ca:	5ef2                	lw	t4,60(sp)
   112cc:	c81a                	sw	t1,16(sp)
   112ce:	00687833          	and	a6,a6,t1
   112d2:	ff8e0313          	addi	t1,t3,-8
   112d6:	ff837313          	andi	t1,t1,-8
   112da:	0321                	addi	t1,t1,8 # 101de <frame_dummy+0x1a>
   112dc:	01f745b3          	xor	a1,a4,t6
   112e0:	9376                	add	t1,t1,t4
   112e2:	008acfb3          	xor	t6,s5,s0
   112e6:	fffac893          	not	a7,s5
   112ea:	0097c533          	xor	a0,a5,s1
   112ee:	01f8f8b3          	and	a7,a7,t6
   112f2:	0f05c493          	xori	s1,a1,240
   112f6:	de1a                	sw	t1,60(sp)
   112f8:	5362                	lw	t1,56(sp)
   112fa:	0098c8b3          	xor	a7,a7,s1
   112fe:	00a84833          	xor	a6,a6,a0
   11302:	fff54e13          	not	t3,a0
   11306:	fff8cc13          	not	s8,a7
   1130a:	fff84d93          	not	s11,a6
   1130e:	fff74293          	not	t0,a4
   11312:	007e7e33          	and	t3,t3,t2
   11316:	f0f5c593          	xori	a1,a1,-241
   1131a:	00737e93          	andi	t4,t1,7
   1131e:	0155f5b3          	and	a1,a1,s5
   11322:	0092f333          	and	t1,t0,s1
   11326:	001c5d13          	srli	s10,s8,0x1
   1132a:	01fc1c93          	slli	s9,s8,0x1f
   1132e:	001ddb13          	srli	s6,s11,0x1
   11332:	00fe42b3          	xor	t0,t3,a5
   11336:	01fd9e13          	slli	t3,s11,0x1f
   1133a:	01ad9b93          	slli	s7,s11,0x1a
   1133e:	006c5f13          	srli	t5,s8,0x6
   11342:	00e5c4b3          	xor	s1,a1,a4
   11346:	01ae6d33          	or	s10,t3,s10
   1134a:	45c2                	lw	a1,16(sp)
   1134c:	016cee33          	or	t3,s9,s6
   11350:	01ac1a13          	slli	s4,s8,0x1a
   11354:	006dd993          	srli	s3,s11,0x6
   11358:	dc76                	sw	t4,56(sp)
   1135a:	cc72                	sw	t3,24(sp)
   1135c:	fff7ce93          	not	t4,a5
   11360:	01ebee33          	or	t3,s7,t5
   11364:	00aef533          	and	a0,t4,a0
   11368:	c672                	sw	t3,12(sp)
   1136a:	ffffce93          	not	t4,t6
   1136e:	013a6e33          	or	t3,s4,s3
   11372:	ca76                	sw	t4,20(sp)
   11374:	fff5c593          	not	a1,a1
   11378:	ce72                	sw	t3,28(sp)
   1137a:	011ac9b3          	xor	s3,s5,a7
   1137e:	0103ca33          	xor	s4,t2,a6
   11382:	8c31                	xor	s0,s0,a2
   11384:	0126c933          	xor	s2,a3,s2
   11388:	56e2                	lw	a3,56(sp)
   1138a:	e299                	bnez	a3,11390 <crypto_hash+0x11b0>
   1138c:	79c0206f          	j	13b28 <crypto_hash+0x3948>
   11390:	5872                	lw	a6,60(sp)
   11392:	4cb2                	lw	s9,12(sp)
   11394:	4e81                	li	t4,0
   11396:	00d80bb3          	add	s7,a6,a3
   1139a:	4e01                	li	t3,0
   1139c:	03800693          	li	a3,56
   113a0:	4b7d                	li	s6,31
   113a2:	a821                	j	113ba <crypto_hash+0x11da>
   113a4:	4f01                	li	t5,0
   113a6:	01161633          	sll	a2,a2,a7
   113aa:	0805                	addi	a6,a6,1
   113ac:	01eeeeb3          	or	t4,t4,t5
   113b0:	00ce6e33          	or	t3,t3,a2
   113b4:	16e1                	addi	a3,a3,-8
   113b6:	030b8863          	beq	s7,a6,113e6 <crypto_hash+0x1206>
   113ba:	fe068893          	addi	a7,a3,-32
   113be:	00084603          	lbu	a2,0(a6)
   113c2:	40db03b3          	sub	t2,s6,a3
   113c6:	fc08dfe3          	bgez	a7,113a4 <crypto_hash+0x11c4>
   113ca:	00165893          	srli	a7,a2,0x1
   113ce:	00d61f33          	sll	t5,a2,a3
   113d2:	0805                	addi	a6,a6,1
   113d4:	0078d633          	srl	a2,a7,t2
   113d8:	01eeeeb3          	or	t4,t4,t5
   113dc:	00ce6e33          	or	t3,t3,a2
   113e0:	16e1                	addi	a3,a3,-8
   113e2:	fd0b9ce3          	bne	s7,a6,113ba <crypto_hash+0x11da>
   113e6:	c666                	sw	s9,12(sp)
   113e8:	5662                	lw	a2,56(sp)
   113ea:	469d                	li	a3,7
   113ec:	8e91                	sub	a3,a3,a2
   113ee:	068e                	slli	a3,a3,0x3
   113f0:	fe068813          	addi	a6,a3,-32
   113f4:	00085463          	bgez	a6,113fc <crypto_hash+0x121c>
   113f8:	7160206f          	j	13b0e <crypto_hash+0x392e>
   113fc:	08000613          	li	a2,128
   11400:	01061633          	sll	a2,a2,a6
   11404:	4681                	li	a3,0
   11406:	01264633          	xor	a2,a2,s2
   1140a:	01c64633          	xor	a2,a2,t3
   1140e:	fff64e13          	not	t3,a2
   11412:	00fe7e33          	and	t3,t3,a5
   11416:	47c2                	lw	a5,16(sp)
   11418:	8ea1                	xor	a3,a3,s0
   1141a:	01d6c6b3          	xor	a3,a3,t4
   1141e:	00fe4e33          	xor	t3,t3,a5
   11422:	47d2                	lw	a5,20(sp)
   11424:	0066c8b3          	xor	a7,a3,t1
   11428:	0098c3b3          	xor	t2,a7,s1
   1142c:	00a64833          	xor	a6,a2,a0
   11430:	fff6ce93          	not	t4,a3
   11434:	005842b3          	xor	t0,a6,t0
   11438:	00eefeb3          	and	t4,t4,a4
   1143c:	00f6f733          	and	a4,a3,a5
   11440:	01d3d693          	srli	a3,t2,0x1d
   11444:	01374733          	xor	a4,a4,s3
   11448:	00b677b3          	and	a5,a2,a1
   1144c:	00329993          	slli	s3,t0,0x3
   11450:	85b6                	mv	a1,a3
   11452:	0135e9b3          	or	s3,a1,s3
   11456:	01d2d313          	srli	t1,t0,0x1d
   1145a:	00339593          	slli	a1,t2,0x3
   1145e:	0073d913          	srli	s2,t2,0x7
   11462:	00b36333          	or	t1,t1,a1
   11466:	01929593          	slli	a1,t0,0x19
   1146a:	0147c7b3          	xor	a5,a5,s4
   1146e:	01939b93          	slli	s7,t2,0x19
   11472:	00b96933          	or	s2,s2,a1
   11476:	0072d593          	srli	a1,t0,0x7
   1147a:	01feceb3          	xor	t4,t4,t6
   1147e:	0175ebb3          	or	s7,a1,s7
   11482:	00a75f93          	srli	t6,a4,0xa
   11486:	01679593          	slli	a1,a5,0x16
   1148a:	00a7da93          	srli	s5,a5,0xa
   1148e:	01f5efb3          	or	t6,a1,t6
   11492:	01671593          	slli	a1,a4,0x16
   11496:	0155eab3          	or	s5,a1,s5
   1149a:	01175b13          	srli	s6,a4,0x11
   1149e:	00f79593          	slli	a1,a5,0xf
   114a2:	01c84833          	xor	a6,a6,t3
   114a6:	0165eb33          	or	s6,a1,s6
   114aa:	0117df13          	srli	t5,a5,0x11
   114ae:	00f71593          	slli	a1,a4,0xf
   114b2:	01c85493          	srli	s1,a6,0x1c
   114b6:	007eda13          	srli	s4,t4,0x7
   114ba:	01e5ef33          	or	t5,a1,t5
   114be:	019e1593          	slli	a1,t3,0x19
   114c2:	8ca6                	mv	s9,s1
   114c4:	0145ea33          	or	s4,a1,s4
   114c8:	007e5493          	srli	s1,t3,0x7
   114cc:	019e9593          	slli	a1,t4,0x19
   114d0:	8ccd                	or	s1,s1,a1
   114d2:	c826                	sw	s1,16(sp)
   114d4:	009ed593          	srli	a1,t4,0x9
   114d8:	017e1693          	slli	a3,t3,0x17
   114dc:	0129c933          	xor	s2,s3,s2
   114e0:	49c2                	lw	s3,16(sp)
   114e2:	009e5613          	srli	a2,t3,0x9
   114e6:	8ecd                	or	a3,a3,a1
   114e8:	017e9593          	slli	a1,t4,0x17
   114ec:	01d8c8b3          	xor	a7,a7,t4
   114f0:	8e4d                	or	a2,a2,a1
   114f2:	00d9c6b3          	xor	a3,s3,a3
   114f6:	0138d593          	srli	a1,a7,0x13
   114fa:	00d81493          	slli	s1,a6,0xd
   114fe:	016fcfb3          	xor	t6,t6,s6
   11502:	01eacf33          	xor	t5,s5,t5
   11506:	00ca4633          	xor	a2,s4,a2
   1150a:	4a62                	lw	s4,24(sp)
   1150c:	00efcfb3          	xor	t6,t6,a4
   11510:	00ff4f33          	xor	t5,t5,a5
   11514:	01c6c733          	xor	a4,a3,t3
   11518:	47b2                	lw	a5,12(sp)
   1151a:	46f2                	lw	a3,28(sp)
   1151c:	8ccd                	or	s1,s1,a1
   1151e:	00d89413          	slli	s0,a7,0xd
   11522:	01385593          	srli	a1,a6,0x13
   11526:	8c4d                	or	s0,s0,a1
   11528:	00481513          	slli	a0,a6,0x4
   1152c:	01c8d593          	srli	a1,a7,0x1c
   11530:	01ac49b3          	xor	s3,s8,s10
   11534:	8d4d                	or	a0,a0,a1
   11536:	01734333          	xor	t1,t1,s7
   1153a:	85e6                	mv	a1,s9
   1153c:	014dca33          	xor	s4,s11,s4
   11540:	00489c93          	slli	s9,a7,0x4
   11544:	00734333          	xor	t1,t1,t2
   11548:	00594933          	xor	s2,s2,t0
   1154c:	00da4a33          	xor	s4,s4,a3
   11550:	00bce5b3          	or	a1,s9,a1
   11554:	8d25                	xor	a0,a0,s1
   11556:	00f9c7b3          	xor	a5,s3,a5
   1155a:	01d64633          	xor	a2,a2,t4
   1155e:	01154533          	xor	a0,a0,a7
   11562:	0067c7b3          	xor	a5,a5,t1
   11566:	012a48b3          	xor	a7,s4,s2
   1156a:	8da1                	xor	a1,a1,s0
   1156c:	00c543b3          	xor	t2,a0,a2
   11570:	0e17ca13          	xori	s4,a5,225
   11574:	0105c5b3          	xor	a1,a1,a6
   11578:	fff94693          	not	a3,s2
   1157c:	00cfc833          	xor	a6,t6,a2
   11580:	fff8ce93          	not	t4,a7
   11584:	fff34613          	not	a2,t1
   11588:	f1e7c793          	xori	a5,a5,-226
   1158c:	00e5c2b3          	xor	t0,a1,a4
   11590:	01467633          	and	a2,a2,s4
   11594:	00ef4733          	xor	a4,t5,a4
   11598:	0116f6b3          	and	a3,a3,a7
   1159c:	01f7f7b3          	and	a5,a5,t6
   115a0:	01eefeb3          	and	t4,t4,t5
   115a4:	00764633          	xor	a2,a2,t2
   115a8:	0056c6b3          	xor	a3,a3,t0
   115ac:	fff3c493          	not	s1,t2
   115b0:	fff74993          	not	s3,a4
   115b4:	0067c7b3          	xor	a5,a5,t1
   115b8:	012eceb3          	xor	t4,t4,s2
   115bc:	8fb1                	xor	a5,a5,a2
   115be:	00deceb3          	xor	t4,t4,a3
   115c2:	0059f9b3          	and	s3,s3,t0
   115c6:	ffffc513          	not	a0,t6
   115ca:	fff84e13          	not	t3,a6
   115ce:	0064f4b3          	and	s1,s1,t1
   115d2:	0104c4b3          	xor	s1,s1,a6
   115d6:	01e9c333          	xor	t1,s3,t5
   115da:	ffff4593          	not	a1,t5
   115de:	01057533          	and	a0,a0,a6
   115e2:	007e7e33          	and	t3,t3,t2
   115e6:	003e9813          	slli	a6,t4,0x3
   115ea:	01d7df13          	srli	t5,a5,0x1d
   115ee:	8df9                	and	a1,a1,a4
   115f0:	01fe4e33          	xor	t3,t3,t6
   115f4:	010f6f33          	or	t5,t5,a6
   115f8:	01dedf93          	srli	t6,t4,0x1d
   115fc:	00379813          	slli	a6,a5,0x3
   11600:	01454533          	xor	a0,a0,s4
   11604:	0115c5b3          	xor	a1,a1,a7
   11608:	0077d993          	srli	s3,a5,0x7
   1160c:	010fefb3          	or	t6,t6,a6
   11610:	019e9813          	slli	a6,t4,0x19
   11614:	00ae4e33          	xor	t3,t3,a0
   11618:	00b34333          	xor	t1,t1,a1
   1161c:	0109e9b3          	or	s3,s3,a6
   11620:	007eda13          	srli	s4,t4,0x7
   11624:	01979813          	slli	a6,a5,0x19
   11628:	010a6a33          	or	s4,s4,a6
   1162c:	00ae5a93          	srli	s5,t3,0xa
   11630:	01631813          	slli	a6,t1,0x16
   11634:	01586ab3          	or	s5,a6,s5
   11638:	00a35b93          	srli	s7,t1,0xa
   1163c:	016e1813          	slli	a6,t3,0x16
   11640:	01786bb3          	or	s7,a6,s7
   11644:	c65e                	sw	s7,12(sp)
   11646:	00f31813          	slli	a6,t1,0xf
   1164a:	fff2c413          	not	s0,t0
   1164e:	011e5b93          	srli	s7,t3,0x11
   11652:	01786bb3          	or	s7,a6,s7
   11656:	01247433          	and	s0,s0,s2
   1165a:	c85e                	sw	s7,16(sp)
   1165c:	8c39                	xor	s0,s0,a4
   1165e:	00fe1813          	slli	a6,t3,0xf
   11662:	01135b93          	srli	s7,t1,0x11
   11666:	01786bb3          	or	s7,a6,s7
   1166a:	0074dd13          	srli	s10,s1,0x7
   1166e:	01941813          	slli	a6,s0,0x19
   11672:	01a86d33          	or	s10,a6,s10
   11676:	00745c93          	srli	s9,s0,0x7
   1167a:	01949813          	slli	a6,s1,0x19
   1167e:	01986cb3          	or	s9,a6,s9
   11682:	01741293          	slli	t0,s0,0x17
   11686:	0094d813          	srli	a6,s1,0x9
   1168a:	fff54513          	not	a0,a0
   1168e:	fff5c593          	not	a1,a1
   11692:	01749393          	slli	t2,s1,0x17
   11696:	005862b3          	or	t0,a6,t0
   1169a:	00945813          	srli	a6,s0,0x9
   1169e:	00155c13          	srli	s8,a0,0x1
   116a2:	007863b3          	or	t2,a6,t2
   116a6:	01f59813          	slli	a6,a1,0x1f
   116aa:	ca5e                	sw	s7,20(sp)
   116ac:	01886c33          	or	s8,a6,s8
   116b0:	0015db93          	srli	s7,a1,0x1
   116b4:	01f51813          	slli	a6,a0,0x1f
   116b8:	01786bb3          	or	s7,a6,s7
   116bc:	00655713          	srli	a4,a0,0x6
   116c0:	01a59813          	slli	a6,a1,0x1a
   116c4:	8e25                	xor	a2,a2,s1
   116c6:	8ea1                	xor	a3,a3,s0
   116c8:	00e86733          	or	a4,a6,a4
   116cc:	0065d913          	srli	s2,a1,0x6
   116d0:	01a51813          	slli	a6,a0,0x1a
   116d4:	0136d893          	srli	a7,a3,0x13
   116d8:	01365b13          	srli	s6,a2,0x13
   116dc:	01286933          	or	s2,a6,s2
   116e0:	00d69813          	slli	a6,a3,0xd
   116e4:	01686b33          	or	s6,a6,s6
   116e8:	8dc6                	mv	s11,a7
   116ea:	00d61813          	slli	a6,a2,0xd
   116ee:	013f4f33          	xor	t5,t5,s3
   116f2:	49c2                	lw	s3,16(sp)
   116f4:	01b86db3          	or	s11,a6,s11
   116f8:	01c65893          	srli	a7,a2,0x1c
   116fc:	00469813          	slli	a6,a3,0x4
   11700:	cc3a                	sw	a4,24(sp)
   11702:	011868b3          	or	a7,a6,a7
   11706:	00461713          	slli	a4,a2,0x4
   1170a:	01c6d813          	srli	a6,a3,0x1c
   1170e:	01076833          	or	a6,a4,a6
   11712:	014fcfb3          	xor	t6,t6,s4
   11716:	4762                	lw	a4,24(sp)
   11718:	4a32                	lw	s4,12(sp)
   1171a:	013ac9b3          	xor	s3,s5,s3
   1171e:	4ad2                	lw	s5,20(sp)
   11720:	005cc2b3          	xor	t0,s9,t0
   11724:	00ec4733          	xor	a4,s8,a4
   11728:	015a4a33          	xor	s4,s4,s5
   1172c:	007d43b3          	xor	t2,s10,t2
   11730:	011b48b3          	xor	a7,s6,a7
   11734:	010dc833          	xor	a6,s11,a6
   11738:	00ffcfb3          	xor	t6,t6,a5
   1173c:	006a4a33          	xor	s4,s4,t1
   11740:	0093c3b3          	xor	t2,t2,s1
   11744:	0082c333          	xor	t1,t0,s0
   11748:	00a747b3          	xor	a5,a4,a0
   1174c:	012bc933          	xor	s2,s7,s2
   11750:	00c8c8b3          	xor	a7,a7,a2
   11754:	00d84833          	xor	a6,a6,a3
   11758:	01df4f33          	xor	t5,t5,t4
   1175c:	0078c8b3          	xor	a7,a7,t2
   11760:	00684833          	xor	a6,a6,t1
   11764:	01f7c7b3          	xor	a5,a5,t6
   11768:	00b94933          	xor	s2,s2,a1
   1176c:	01c9c9b3          	xor	s3,s3,t3
   11770:	006a4733          	xor	a4,s4,t1
   11774:	01e94933          	xor	s2,s2,t5
   11778:	0d27c293          	xori	t0,a5,210
   1177c:	ffffc493          	not	s1,t6
   11780:	fff8c613          	not	a2,a7
   11784:	fff84693          	not	a3,a6
   11788:	f2d7c793          	xori	a5,a5,-211
   1178c:	0079c3b3          	xor	t2,s3,t2
   11790:	0137f7b3          	and	a5,a5,s3
   11794:	ffff4413          	not	s0,t5
   11798:	fff9c513          	not	a0,s3
   1179c:	fffa4593          	not	a1,s4
   117a0:	fff94e13          	not	t3,s2
   117a4:	fff74e93          	not	t4,a4
   117a8:	0054f4b3          	and	s1,s1,t0
   117ac:	01f67633          	and	a2,a2,t6
   117b0:	01e6f6b3          	and	a3,a3,t5
   117b4:	00764633          	xor	a2,a2,t2
   117b8:	8eb9                	xor	a3,a3,a4
   117ba:	0114c4b3          	xor	s1,s1,a7
   117be:	01247433          	and	s0,s0,s2
   117c2:	010efeb3          	and	t4,t4,a6
   117c6:	fff3c313          	not	t1,t2
   117ca:	00757533          	and	a0,a0,t2
   117ce:	8df9                	and	a1,a1,a4
   117d0:	014e7e33          	and	t3,t3,s4
   117d4:	01f7c733          	xor	a4,a5,t6
   117d8:	8f25                	xor	a4,a4,s1
   117da:	01044bb3          	xor	s7,s0,a6
   117de:	00554533          	xor	a0,a0,t0
   117e2:	0125c5b3          	xor	a1,a1,s2
   117e6:	8426                	mv	s0,s1
   117e8:	00765393          	srli	t2,a2,0x7
   117ec:	0076d293          	srli	t0,a3,0x7
   117f0:	01769813          	slli	a6,a3,0x17
   117f4:	01761793          	slli	a5,a2,0x17
   117f8:	01137333          	and	t1,t1,a7
   117fc:	01ee4e33          	xor	t3,t3,t5
   11800:	014ec8b3          	xor	a7,t4,s4
   11804:	01969913          	slli	s2,a3,0x19
   11808:	01961493          	slli	s1,a2,0x19
   1180c:	00965e93          	srli	t4,a2,0x9
   11810:	0096db13          	srli	s6,a3,0x9
   11814:	017e4e33          	xor	t3,t3,s7
   11818:	010eeeb3          	or	t4,t4,a6
   1181c:	00fb6b33          	or	s6,s6,a5
   11820:	00796933          	or	s2,s2,t2
   11824:	0054e4b3          	or	s1,s1,t0
   11828:	01694933          	xor	s2,s2,s6
   1182c:	01d4c4b3          	xor	s1,s1,t4
   11830:	003e1b13          	slli	s6,t3,0x3
   11834:	01d75e93          	srli	t4,a4,0x1d
   11838:	016eeb33          	or	s6,t4,s6
   1183c:	01de5c93          	srli	s9,t3,0x1d
   11840:	00371e93          	slli	t4,a4,0x3
   11844:	01dcecb3          	or	s9,s9,t4
   11848:	01334333          	xor	t1,t1,s3
   1184c:	019e1e93          	slli	t4,t3,0x19
   11850:	00775c13          	srli	s8,a4,0x7
   11854:	00a34333          	xor	t1,t1,a0
   11858:	00b8c8b3          	xor	a7,a7,a1
   1185c:	01971f93          	slli	t6,a4,0x19
   11860:	01dc6c33          	or	s8,s8,t4
   11864:	007e5e93          	srli	t4,t3,0x7
   11868:	fff5c593          	not	a1,a1
   1186c:	fff54513          	not	a0,a0
   11870:	00a35f13          	srli	t5,t1,0xa
   11874:	01feefb3          	or	t6,t4,t6
   11878:	01689e93          	slli	t4,a7,0x16
   1187c:	c85a                	sw	s6,16(sp)
   1187e:	0015dd13          	srli	s10,a1,0x1
   11882:	0065d293          	srli	t0,a1,0x6
   11886:	01f51a13          	slli	s4,a0,0x1f
   1188a:	01a51813          	slli	a6,a0,0x1a
   1188e:	01eeef33          	or	t5,t4,t5
   11892:	00a8db13          	srli	s6,a7,0xa
   11896:	01631e93          	slli	t4,t1,0x16
   1189a:	c622                	sw	s0,12(sp)
   1189c:	01135d93          	srli	s11,t1,0x11
   118a0:	016eeb33          	or	s6,t4,s6
   118a4:	01aa6a33          	or	s4,s4,s10
   118a8:	00f89e93          	slli	t4,a7,0xf
   118ac:	00586833          	or	a6,a6,t0
   118b0:	01fccfb3          	xor	t6,s9,t6
   118b4:	4cc2                	lw	s9,16(sp)
   118b6:	00155393          	srli	t2,a0,0x1
   118ba:	01beeeb3          	or	t4,t4,s11
   118be:	01f59a93          	slli	s5,a1,0x1f
   118c2:	010a4833          	xor	a6,s4,a6
   118c6:	4a32                	lw	s4,12(sp)
   118c8:	ca76                	sw	t4,20(sp)
   118ca:	00dbc9b3          	xor	s3,s7,a3
   118ce:	8c31                	xor	s0,s0,a2
   118d0:	0118dd93          	srli	s11,a7,0x11
   118d4:	007aeab3          	or	s5,s5,t2
   118d8:	00655793          	srli	a5,a0,0x6
   118dc:	01a59393          	slli	t2,a1,0x1a
   118e0:	00f31e93          	slli	t4,t1,0xf
   118e4:	00d41d13          	slli	s10,s0,0xd
   118e8:	01beeeb3          	or	t4,t4,s11
   118ec:	00f3e7b3          	or	a5,t2,a5
   118f0:	00d99d93          	slli	s11,s3,0xd
   118f4:	01345393          	srli	t2,s0,0x13
   118f8:	0139d293          	srli	t0,s3,0x13
   118fc:	018ccc33          	xor	s8,s9,s8
   11900:	4cd2                	lw	s9,20(sp)
   11902:	00fac7b3          	xor	a5,s5,a5
   11906:	009bcbb3          	xor	s7,s7,s1
   1190a:	01c45a93          	srli	s5,s0,0x1c
   1190e:	01db4eb3          	xor	t4,s6,t4
   11912:	007de3b3          	or	t2,s11,t2
   11916:	012a4b33          	xor	s6,s4,s2
   1191a:	005d62b3          	or	t0,s10,t0
   1191e:	00499a13          	slli	s4,s3,0x4
   11922:	0412                	slli	s0,s0,0x4
   11924:	01c9d993          	srli	s3,s3,0x1c
   11928:	00efcfb3          	xor	t6,t6,a4
   1192c:	011eceb3          	xor	t4,t4,a7
   11930:	8d3d                	xor	a0,a0,a5
   11932:	015a6a33          	or	s4,s4,s5
   11936:	01346433          	or	s0,s0,s3
   1193a:	8ea5                	xor	a3,a3,s1
   1193c:	0163c3b3          	xor	t2,t2,s6
   11940:	0172c2b3          	xor	t0,t0,s7
   11944:	01cc4c33          	xor	s8,s8,t3
   11948:	01d6c7b3          	xor	a5,a3,t4
   1194c:	0143c3b3          	xor	t2,t2,s4
   11950:	0082c2b3          	xor	t0,t0,s0
   11954:	01f546b3          	xor	a3,a0,t6
   11958:	00b84833          	xor	a6,a6,a1
   1195c:	019f4f33          	xor	t5,t5,s9
   11960:	006f4f33          	xor	t5,t5,t1
   11964:	018844b3          	xor	s1,a6,s8
   11968:	01264733          	xor	a4,a2,s2
   1196c:	ffffca13          	not	s4,t6
   11970:	0c36c913          	xori	s2,a3,195
   11974:	fff3c613          	not	a2,t2
   11978:	fff2c813          	not	a6,t0
   1197c:	f3c6c693          	xori	a3,a3,-196
   11980:	01e74733          	xor	a4,a4,t5
   11984:	01e6f433          	and	s0,a3,t5
   11988:	012a7a33          	and	s4,s4,s2
   1198c:	01887833          	and	a6,a6,s8
   11990:	fffc4993          	not	s3,s8
   11994:	ffff4513          	not	a0,t5
   11998:	fffec593          	not	a1,t4
   1199c:	fff4ce13          	not	t3,s1
   119a0:	fff7c893          	not	a7,a5
   119a4:	01f67633          	and	a2,a2,t6
   119a8:	8e39                	xor	a2,a2,a4
   119aa:	00f846b3          	xor	a3,a6,a5
   119ae:	0099f9b3          	and	s3,s3,s1
   119b2:	fff74313          	not	t1,a4
   119b6:	8d79                	and	a0,a0,a4
   119b8:	8dfd                	and	a1,a1,a5
   119ba:	01f44733          	xor	a4,s0,t6
   119be:	007a47b3          	xor	a5,s4,t2
   119c2:	01de7e33          	and	t3,t3,t4
   119c6:	0058f8b3          	and	a7,a7,t0
   119ca:	8f3d                	xor	a4,a4,a5
   119cc:	0059cbb3          	xor	s7,s3,t0
   119d0:	01254533          	xor	a0,a0,s2
   119d4:	8da5                	xor	a1,a1,s1
   119d6:	843e                	mv	s0,a5
   119d8:	0076d293          	srli	t0,a3,0x7
   119dc:	01769813          	slli	a6,a3,0x17
   119e0:	01761793          	slli	a5,a2,0x17
   119e4:	00737333          	and	t1,t1,t2
   119e8:	018e4e33          	xor	t3,t3,s8
   119ec:	00765393          	srli	t2,a2,0x7
   119f0:	01d8c8b3          	xor	a7,a7,t4
   119f4:	01969913          	slli	s2,a3,0x19
   119f8:	01961493          	slli	s1,a2,0x19
   119fc:	00965e93          	srli	t4,a2,0x9
   11a00:	0096db13          	srli	s6,a3,0x9
   11a04:	017e4e33          	xor	t3,t3,s7
   11a08:	010eeeb3          	or	t4,t4,a6
   11a0c:	00fb6b33          	or	s6,s6,a5
   11a10:	00796933          	or	s2,s2,t2
   11a14:	0054e4b3          	or	s1,s1,t0
   11a18:	01694933          	xor	s2,s2,s6
   11a1c:	01d4c4b3          	xor	s1,s1,t4
   11a20:	003e1b13          	slli	s6,t3,0x3
   11a24:	01d75e93          	srli	t4,a4,0x1d
   11a28:	016eeb33          	or	s6,t4,s6
   11a2c:	01de5c93          	srli	s9,t3,0x1d
   11a30:	00371e93          	slli	t4,a4,0x3
   11a34:	01dcecb3          	or	s9,s9,t4
   11a38:	01e34333          	xor	t1,t1,t5
   11a3c:	019e1e93          	slli	t4,t3,0x19
   11a40:	00775c13          	srli	s8,a4,0x7
   11a44:	00a34333          	xor	t1,t1,a0
   11a48:	00b8c8b3          	xor	a7,a7,a1
   11a4c:	01971f93          	slli	t6,a4,0x19
   11a50:	01dc6c33          	or	s8,s8,t4
   11a54:	007e5e93          	srli	t4,t3,0x7
   11a58:	fff5c593          	not	a1,a1
   11a5c:	fff54513          	not	a0,a0
   11a60:	00a35f13          	srli	t5,t1,0xa
   11a64:	01feefb3          	or	t6,t4,t6
   11a68:	01689e93          	slli	t4,a7,0x16
   11a6c:	c85a                	sw	s6,16(sp)
   11a6e:	0015dd13          	srli	s10,a1,0x1
   11a72:	0065d293          	srli	t0,a1,0x6
   11a76:	01f51a13          	slli	s4,a0,0x1f
   11a7a:	01a51813          	slli	a6,a0,0x1a
   11a7e:	01eeef33          	or	t5,t4,t5
   11a82:	00a8db13          	srli	s6,a7,0xa
   11a86:	01631e93          	slli	t4,t1,0x16
   11a8a:	c622                	sw	s0,12(sp)
   11a8c:	01135d93          	srli	s11,t1,0x11
   11a90:	016eeb33          	or	s6,t4,s6
   11a94:	01aa6a33          	or	s4,s4,s10
   11a98:	00f89e93          	slli	t4,a7,0xf
   11a9c:	00586833          	or	a6,a6,t0
   11aa0:	01fccfb3          	xor	t6,s9,t6
   11aa4:	4cc2                	lw	s9,16(sp)
   11aa6:	00155393          	srli	t2,a0,0x1
   11aaa:	01beeeb3          	or	t4,t4,s11
   11aae:	01f59a93          	slli	s5,a1,0x1f
   11ab2:	010a4833          	xor	a6,s4,a6
   11ab6:	4a32                	lw	s4,12(sp)
   11ab8:	00dbc9b3          	xor	s3,s7,a3
   11abc:	8c31                	xor	s0,s0,a2
   11abe:	ca76                	sw	t4,20(sp)
   11ac0:	0118dd93          	srli	s11,a7,0x11
   11ac4:	007aeab3          	or	s5,s5,t2
   11ac8:	00655793          	srli	a5,a0,0x6
   11acc:	01a59393          	slli	t2,a1,0x1a
   11ad0:	00f31e93          	slli	t4,t1,0xf
   11ad4:	00d41d13          	slli	s10,s0,0xd
   11ad8:	01beeeb3          	or	t4,t4,s11
   11adc:	00f3e7b3          	or	a5,t2,a5
   11ae0:	00d99d93          	slli	s11,s3,0xd
   11ae4:	01345393          	srli	t2,s0,0x13
   11ae8:	0139d293          	srli	t0,s3,0x13
   11aec:	018ccc33          	xor	s8,s9,s8
   11af0:	4cd2                	lw	s9,20(sp)
   11af2:	00fac7b3          	xor	a5,s5,a5
   11af6:	009bcbb3          	xor	s7,s7,s1
   11afa:	01c45a93          	srli	s5,s0,0x1c
   11afe:	01db4eb3          	xor	t4,s6,t4
   11b02:	007de3b3          	or	t2,s11,t2
   11b06:	012a4b33          	xor	s6,s4,s2
   11b0a:	005d62b3          	or	t0,s10,t0
   11b0e:	00499a13          	slli	s4,s3,0x4
   11b12:	0412                	slli	s0,s0,0x4
   11b14:	01c9d993          	srli	s3,s3,0x1c
   11b18:	00efcfb3          	xor	t6,t6,a4
   11b1c:	011eceb3          	xor	t4,t4,a7
   11b20:	8d3d                	xor	a0,a0,a5
   11b22:	015a6a33          	or	s4,s4,s5
   11b26:	01346433          	or	s0,s0,s3
   11b2a:	8ea5                	xor	a3,a3,s1
   11b2c:	0163c3b3          	xor	t2,t2,s6
   11b30:	0172c2b3          	xor	t0,t0,s7
   11b34:	01cc4c33          	xor	s8,s8,t3
   11b38:	01d6c7b3          	xor	a5,a3,t4
   11b3c:	0143c3b3          	xor	t2,t2,s4
   11b40:	0082c2b3          	xor	t0,t0,s0
   11b44:	01f546b3          	xor	a3,a0,t6
   11b48:	00b84833          	xor	a6,a6,a1
   11b4c:	019f4f33          	xor	t5,t5,s9
   11b50:	006f4f33          	xor	t5,t5,t1
   11b54:	018844b3          	xor	s1,a6,s8
   11b58:	01264733          	xor	a4,a2,s2
   11b5c:	ffffca13          	not	s4,t6
   11b60:	0b46c913          	xori	s2,a3,180
   11b64:	fff3c613          	not	a2,t2
   11b68:	fff2c813          	not	a6,t0
   11b6c:	f4b6c693          	xori	a3,a3,-181
   11b70:	01e74733          	xor	a4,a4,t5
   11b74:	01e6f433          	and	s0,a3,t5
   11b78:	012a7a33          	and	s4,s4,s2
   11b7c:	01887833          	and	a6,a6,s8
   11b80:	fffc4993          	not	s3,s8
   11b84:	ffff4513          	not	a0,t5
   11b88:	fffec593          	not	a1,t4
   11b8c:	fff4ce13          	not	t3,s1
   11b90:	fff7c893          	not	a7,a5
   11b94:	01f67633          	and	a2,a2,t6
   11b98:	8e39                	xor	a2,a2,a4
   11b9a:	00f846b3          	xor	a3,a6,a5
   11b9e:	0099f9b3          	and	s3,s3,s1
   11ba2:	fff74313          	not	t1,a4
   11ba6:	8d79                	and	a0,a0,a4
   11ba8:	8dfd                	and	a1,a1,a5
   11baa:	01f44733          	xor	a4,s0,t6
   11bae:	007a47b3          	xor	a5,s4,t2
   11bb2:	01de7e33          	and	t3,t3,t4
   11bb6:	0058f8b3          	and	a7,a7,t0
   11bba:	8f3d                	xor	a4,a4,a5
   11bbc:	0059cbb3          	xor	s7,s3,t0
   11bc0:	01254533          	xor	a0,a0,s2
   11bc4:	8da5                	xor	a1,a1,s1
   11bc6:	843e                	mv	s0,a5
   11bc8:	0076d293          	srli	t0,a3,0x7
   11bcc:	01769813          	slli	a6,a3,0x17
   11bd0:	01761793          	slli	a5,a2,0x17
   11bd4:	00737333          	and	t1,t1,t2
   11bd8:	018e4e33          	xor	t3,t3,s8
   11bdc:	00765393          	srli	t2,a2,0x7
   11be0:	01d8c8b3          	xor	a7,a7,t4
   11be4:	01969913          	slli	s2,a3,0x19
   11be8:	01961493          	slli	s1,a2,0x19
   11bec:	00965e93          	srli	t4,a2,0x9
   11bf0:	0096db13          	srli	s6,a3,0x9
   11bf4:	017e4e33          	xor	t3,t3,s7
   11bf8:	010eeeb3          	or	t4,t4,a6
   11bfc:	00fb6b33          	or	s6,s6,a5
   11c00:	00796933          	or	s2,s2,t2
   11c04:	0054e4b3          	or	s1,s1,t0
   11c08:	01694933          	xor	s2,s2,s6
   11c0c:	01d4c4b3          	xor	s1,s1,t4
   11c10:	003e1b13          	slli	s6,t3,0x3
   11c14:	01d75e93          	srli	t4,a4,0x1d
   11c18:	016eeb33          	or	s6,t4,s6
   11c1c:	01de5c93          	srli	s9,t3,0x1d
   11c20:	00371e93          	slli	t4,a4,0x3
   11c24:	01dcecb3          	or	s9,s9,t4
   11c28:	01e34333          	xor	t1,t1,t5
   11c2c:	019e1e93          	slli	t4,t3,0x19
   11c30:	00775c13          	srli	s8,a4,0x7
   11c34:	00a34333          	xor	t1,t1,a0
   11c38:	00b8c8b3          	xor	a7,a7,a1
   11c3c:	01971f93          	slli	t6,a4,0x19
   11c40:	01dc6c33          	or	s8,s8,t4
   11c44:	007e5e93          	srli	t4,t3,0x7
   11c48:	00a35f13          	srli	t5,t1,0xa
   11c4c:	01feefb3          	or	t6,t4,t6
   11c50:	01689e93          	slli	t4,a7,0x16
   11c54:	c85a                	sw	s6,16(sp)
   11c56:	01eeef33          	or	t5,t4,t5
   11c5a:	00a8db13          	srli	s6,a7,0xa
   11c5e:	01631e93          	slli	t4,t1,0x16
   11c62:	fff5c593          	not	a1,a1
   11c66:	fff54513          	not	a0,a0
   11c6a:	01135d93          	srli	s11,t1,0x11
   11c6e:	016eeb33          	or	s6,t4,s6
   11c72:	01fccfb3          	xor	t6,s9,t6
   11c76:	00f89e93          	slli	t4,a7,0xf
   11c7a:	4cc2                	lw	s9,16(sp)
   11c7c:	0015dd13          	srli	s10,a1,0x1
   11c80:	0065d293          	srli	t0,a1,0x6
   11c84:	01beeeb3          	or	t4,t4,s11
   11c88:	01f51a13          	slli	s4,a0,0x1f
   11c8c:	01a51813          	slli	a6,a0,0x1a
   11c90:	ca76                	sw	t4,20(sp)
   11c92:	01aa6a33          	or	s4,s4,s10
   11c96:	c622                	sw	s0,12(sp)
   11c98:	00586833          	or	a6,a6,t0
   11c9c:	00155393          	srli	t2,a0,0x1
   11ca0:	01f59a93          	slli	s5,a1,0x1f
   11ca4:	018ccc33          	xor	s8,s9,s8
   11ca8:	010a4833          	xor	a6,s4,a6
   11cac:	4cd2                	lw	s9,20(sp)
   11cae:	4a32                	lw	s4,12(sp)
   11cb0:	00dbc9b3          	xor	s3,s7,a3
   11cb4:	8c31                	xor	s0,s0,a2
   11cb6:	0118dd93          	srli	s11,a7,0x11
   11cba:	007aeab3          	or	s5,s5,t2
   11cbe:	00655793          	srli	a5,a0,0x6
   11cc2:	01a59393          	slli	t2,a1,0x1a
   11cc6:	00f31e93          	slli	t4,t1,0xf
   11cca:	00d41d13          	slli	s10,s0,0xd
   11cce:	01beeeb3          	or	t4,t4,s11
   11cd2:	00f3e7b3          	or	a5,t2,a5
   11cd6:	00d99d93          	slli	s11,s3,0xd
   11cda:	01345393          	srli	t2,s0,0x13
   11cde:	0139d293          	srli	t0,s3,0x13
   11ce2:	00fac7b3          	xor	a5,s5,a5
   11ce6:	009bcbb3          	xor	s7,s7,s1
   11cea:	01c45a93          	srli	s5,s0,0x1c
   11cee:	01db4eb3          	xor	t4,s6,t4
   11cf2:	007de3b3          	or	t2,s11,t2
   11cf6:	012a4b33          	xor	s6,s4,s2
   11cfa:	005d62b3          	or	t0,s10,t0
   11cfe:	00499a13          	slli	s4,s3,0x4
   11d02:	0412                	slli	s0,s0,0x4
   11d04:	01c9d993          	srli	s3,s3,0x1c
   11d08:	00efcfb3          	xor	t6,t6,a4
   11d0c:	011eceb3          	xor	t4,t4,a7
   11d10:	8d3d                	xor	a0,a0,a5
   11d12:	015a6a33          	or	s4,s4,s5
   11d16:	01346433          	or	s0,s0,s3
   11d1a:	8ea5                	xor	a3,a3,s1
   11d1c:	0163c3b3          	xor	t2,t2,s6
   11d20:	0172c2b3          	xor	t0,t0,s7
   11d24:	01cc4c33          	xor	s8,s8,t3
   11d28:	01d6c7b3          	xor	a5,a3,t4
   11d2c:	0143c3b3          	xor	t2,t2,s4
   11d30:	0082c2b3          	xor	t0,t0,s0
   11d34:	01f546b3          	xor	a3,a0,t6
   11d38:	00b84833          	xor	a6,a6,a1
   11d3c:	019f4f33          	xor	t5,t5,s9
   11d40:	006f4f33          	xor	t5,t5,t1
   11d44:	018844b3          	xor	s1,a6,s8
   11d48:	01264733          	xor	a4,a2,s2
   11d4c:	ffffca13          	not	s4,t6
   11d50:	0a56c913          	xori	s2,a3,165
   11d54:	fff3c613          	not	a2,t2
   11d58:	fff2c813          	not	a6,t0
   11d5c:	f5a6c693          	xori	a3,a3,-166
   11d60:	01e74733          	xor	a4,a4,t5
   11d64:	01e6f433          	and	s0,a3,t5
   11d68:	012a7a33          	and	s4,s4,s2
   11d6c:	01887833          	and	a6,a6,s8
   11d70:	fffc4993          	not	s3,s8
   11d74:	ffff4513          	not	a0,t5
   11d78:	fffec593          	not	a1,t4
   11d7c:	fff4ce13          	not	t3,s1
   11d80:	fff7c893          	not	a7,a5
   11d84:	01f67633          	and	a2,a2,t6
   11d88:	8e39                	xor	a2,a2,a4
   11d8a:	00f846b3          	xor	a3,a6,a5
   11d8e:	0099f9b3          	and	s3,s3,s1
   11d92:	fff74313          	not	t1,a4
   11d96:	8d79                	and	a0,a0,a4
   11d98:	8dfd                	and	a1,a1,a5
   11d9a:	01f44733          	xor	a4,s0,t6
   11d9e:	007a47b3          	xor	a5,s4,t2
   11da2:	01de7e33          	and	t3,t3,t4
   11da6:	0058f8b3          	and	a7,a7,t0
   11daa:	8f3d                	xor	a4,a4,a5
   11dac:	0059cbb3          	xor	s7,s3,t0
   11db0:	01254533          	xor	a0,a0,s2
   11db4:	8da5                	xor	a1,a1,s1
   11db6:	843e                	mv	s0,a5
   11db8:	0076d293          	srli	t0,a3,0x7
   11dbc:	01769813          	slli	a6,a3,0x17
   11dc0:	01761793          	slli	a5,a2,0x17
   11dc4:	00737333          	and	t1,t1,t2
   11dc8:	018e4e33          	xor	t3,t3,s8
   11dcc:	00765393          	srli	t2,a2,0x7
   11dd0:	01d8c8b3          	xor	a7,a7,t4
   11dd4:	01969913          	slli	s2,a3,0x19
   11dd8:	01961493          	slli	s1,a2,0x19
   11ddc:	00965e93          	srli	t4,a2,0x9
   11de0:	0096db13          	srli	s6,a3,0x9
   11de4:	017e4e33          	xor	t3,t3,s7
   11de8:	010eeeb3          	or	t4,t4,a6
   11dec:	00fb6b33          	or	s6,s6,a5
   11df0:	00796933          	or	s2,s2,t2
   11df4:	0054e4b3          	or	s1,s1,t0
   11df8:	01694933          	xor	s2,s2,s6
   11dfc:	01d4c4b3          	xor	s1,s1,t4
   11e00:	003e1b13          	slli	s6,t3,0x3
   11e04:	01d75e93          	srli	t4,a4,0x1d
   11e08:	016eeb33          	or	s6,t4,s6
   11e0c:	01de5c93          	srli	s9,t3,0x1d
   11e10:	00371e93          	slli	t4,a4,0x3
   11e14:	01dcecb3          	or	s9,s9,t4
   11e18:	01e34333          	xor	t1,t1,t5
   11e1c:	019e1e93          	slli	t4,t3,0x19
   11e20:	00775c13          	srli	s8,a4,0x7
   11e24:	00a34333          	xor	t1,t1,a0
   11e28:	00b8c8b3          	xor	a7,a7,a1
   11e2c:	01971f93          	slli	t6,a4,0x19
   11e30:	01dc6c33          	or	s8,s8,t4
   11e34:	007e5e93          	srli	t4,t3,0x7
   11e38:	fff5c593          	not	a1,a1
   11e3c:	fff54513          	not	a0,a0
   11e40:	00a35f13          	srli	t5,t1,0xa
   11e44:	01feefb3          	or	t6,t4,t6
   11e48:	01689e93          	slli	t4,a7,0x16
   11e4c:	c85a                	sw	s6,16(sp)
   11e4e:	0015dd13          	srli	s10,a1,0x1
   11e52:	0065d293          	srli	t0,a1,0x6
   11e56:	01f51a13          	slli	s4,a0,0x1f
   11e5a:	01a51813          	slli	a6,a0,0x1a
   11e5e:	01eeef33          	or	t5,t4,t5
   11e62:	00a8db13          	srli	s6,a7,0xa
   11e66:	01631e93          	slli	t4,t1,0x16
   11e6a:	c622                	sw	s0,12(sp)
   11e6c:	01135d93          	srli	s11,t1,0x11
   11e70:	016eeb33          	or	s6,t4,s6
   11e74:	01aa6a33          	or	s4,s4,s10
   11e78:	00f89e93          	slli	t4,a7,0xf
   11e7c:	00586833          	or	a6,a6,t0
   11e80:	01fccfb3          	xor	t6,s9,t6
   11e84:	4cc2                	lw	s9,16(sp)
   11e86:	00155393          	srli	t2,a0,0x1
   11e8a:	01beeeb3          	or	t4,t4,s11
   11e8e:	01f59a93          	slli	s5,a1,0x1f
   11e92:	010a4833          	xor	a6,s4,a6
   11e96:	4a32                	lw	s4,12(sp)
   11e98:	ca76                	sw	t4,20(sp)
   11e9a:	00dbc9b3          	xor	s3,s7,a3
   11e9e:	8c31                	xor	s0,s0,a2
   11ea0:	0118dd93          	srli	s11,a7,0x11
   11ea4:	007aeab3          	or	s5,s5,t2
   11ea8:	00655793          	srli	a5,a0,0x6
   11eac:	01a59393          	slli	t2,a1,0x1a
   11eb0:	00f31e93          	slli	t4,t1,0xf
   11eb4:	00d41d13          	slli	s10,s0,0xd
   11eb8:	01beeeb3          	or	t4,t4,s11
   11ebc:	00f3e7b3          	or	a5,t2,a5
   11ec0:	00d99d93          	slli	s11,s3,0xd
   11ec4:	01345393          	srli	t2,s0,0x13
   11ec8:	0139d293          	srli	t0,s3,0x13
   11ecc:	018ccc33          	xor	s8,s9,s8
   11ed0:	4cd2                	lw	s9,20(sp)
   11ed2:	00fac7b3          	xor	a5,s5,a5
   11ed6:	009bcbb3          	xor	s7,s7,s1
   11eda:	01c45a93          	srli	s5,s0,0x1c
   11ede:	01db4eb3          	xor	t4,s6,t4
   11ee2:	007de3b3          	or	t2,s11,t2
   11ee6:	012a4b33          	xor	s6,s4,s2
   11eea:	005d62b3          	or	t0,s10,t0
   11eee:	00499a13          	slli	s4,s3,0x4
   11ef2:	0412                	slli	s0,s0,0x4
   11ef4:	01c9d993          	srli	s3,s3,0x1c
   11ef8:	00efcfb3          	xor	t6,t6,a4
   11efc:	011eceb3          	xor	t4,t4,a7
   11f00:	8d3d                	xor	a0,a0,a5
   11f02:	015a6a33          	or	s4,s4,s5
   11f06:	01346433          	or	s0,s0,s3
   11f0a:	8ea5                	xor	a3,a3,s1
   11f0c:	0163c3b3          	xor	t2,t2,s6
   11f10:	0172c2b3          	xor	t0,t0,s7
   11f14:	01cc4c33          	xor	s8,s8,t3
   11f18:	01d6c7b3          	xor	a5,a3,t4
   11f1c:	0143c3b3          	xor	t2,t2,s4
   11f20:	0082c2b3          	xor	t0,t0,s0
   11f24:	01f546b3          	xor	a3,a0,t6
   11f28:	00b84833          	xor	a6,a6,a1
   11f2c:	019f4f33          	xor	t5,t5,s9
   11f30:	006f4f33          	xor	t5,t5,t1
   11f34:	018844b3          	xor	s1,a6,s8
   11f38:	01264733          	xor	a4,a2,s2
   11f3c:	ffffca13          	not	s4,t6
   11f40:	0966c913          	xori	s2,a3,150
   11f44:	fff3c613          	not	a2,t2
   11f48:	fff2c813          	not	a6,t0
   11f4c:	f696c693          	xori	a3,a3,-151
   11f50:	01e74733          	xor	a4,a4,t5
   11f54:	01e6f433          	and	s0,a3,t5
   11f58:	012a7a33          	and	s4,s4,s2
   11f5c:	01887833          	and	a6,a6,s8
   11f60:	fffc4993          	not	s3,s8
   11f64:	ffff4513          	not	a0,t5
   11f68:	fffec593          	not	a1,t4
   11f6c:	fff4ce13          	not	t3,s1
   11f70:	fff7c893          	not	a7,a5
   11f74:	01f67633          	and	a2,a2,t6
   11f78:	8e39                	xor	a2,a2,a4
   11f7a:	00f846b3          	xor	a3,a6,a5
   11f7e:	0099f9b3          	and	s3,s3,s1
   11f82:	fff74313          	not	t1,a4
   11f86:	8d79                	and	a0,a0,a4
   11f88:	8dfd                	and	a1,a1,a5
   11f8a:	01f44733          	xor	a4,s0,t6
   11f8e:	007a47b3          	xor	a5,s4,t2
   11f92:	01de7e33          	and	t3,t3,t4
   11f96:	0058f8b3          	and	a7,a7,t0
   11f9a:	8f3d                	xor	a4,a4,a5
   11f9c:	0059cbb3          	xor	s7,s3,t0
   11fa0:	01254533          	xor	a0,a0,s2
   11fa4:	8da5                	xor	a1,a1,s1
   11fa6:	843e                	mv	s0,a5
   11fa8:	0076d293          	srli	t0,a3,0x7
   11fac:	01769813          	slli	a6,a3,0x17
   11fb0:	01761793          	slli	a5,a2,0x17
   11fb4:	00737333          	and	t1,t1,t2
   11fb8:	018e4e33          	xor	t3,t3,s8
   11fbc:	00765393          	srli	t2,a2,0x7
   11fc0:	01d8c8b3          	xor	a7,a7,t4
   11fc4:	01969913          	slli	s2,a3,0x19
   11fc8:	01961493          	slli	s1,a2,0x19
   11fcc:	00965e93          	srli	t4,a2,0x9
   11fd0:	0096db13          	srli	s6,a3,0x9
   11fd4:	017e4e33          	xor	t3,t3,s7
   11fd8:	010eeeb3          	or	t4,t4,a6
   11fdc:	00fb6b33          	or	s6,s6,a5
   11fe0:	00796933          	or	s2,s2,t2
   11fe4:	0054e4b3          	or	s1,s1,t0
   11fe8:	01694933          	xor	s2,s2,s6
   11fec:	01d4c4b3          	xor	s1,s1,t4
   11ff0:	003e1b13          	slli	s6,t3,0x3
   11ff4:	01d75e93          	srli	t4,a4,0x1d
   11ff8:	016eeb33          	or	s6,t4,s6
   11ffc:	01de5c93          	srli	s9,t3,0x1d
   12000:	00371e93          	slli	t4,a4,0x3
   12004:	01dcecb3          	or	s9,s9,t4
   12008:	01e34333          	xor	t1,t1,t5
   1200c:	019e1e93          	slli	t4,t3,0x19
   12010:	00775c13          	srli	s8,a4,0x7
   12014:	00a34333          	xor	t1,t1,a0
   12018:	00b8c8b3          	xor	a7,a7,a1
   1201c:	01971f93          	slli	t6,a4,0x19
   12020:	01dc6c33          	or	s8,s8,t4
   12024:	007e5e93          	srli	t4,t3,0x7
   12028:	fff5c593          	not	a1,a1
   1202c:	fff54513          	not	a0,a0
   12030:	00a35f13          	srli	t5,t1,0xa
   12034:	01feefb3          	or	t6,t4,t6
   12038:	01689e93          	slli	t4,a7,0x16
   1203c:	c85a                	sw	s6,16(sp)
   1203e:	0015dd13          	srli	s10,a1,0x1
   12042:	0065d293          	srli	t0,a1,0x6
   12046:	01f51a13          	slli	s4,a0,0x1f
   1204a:	01a51813          	slli	a6,a0,0x1a
   1204e:	01eeef33          	or	t5,t4,t5
   12052:	00a8db13          	srli	s6,a7,0xa
   12056:	01631e93          	slli	t4,t1,0x16
   1205a:	c622                	sw	s0,12(sp)
   1205c:	01135d93          	srli	s11,t1,0x11
   12060:	016eeb33          	or	s6,t4,s6
   12064:	01aa6a33          	or	s4,s4,s10
   12068:	00f89e93          	slli	t4,a7,0xf
   1206c:	00586833          	or	a6,a6,t0
   12070:	01fccfb3          	xor	t6,s9,t6
   12074:	4cc2                	lw	s9,16(sp)
   12076:	00155393          	srli	t2,a0,0x1
   1207a:	01beeeb3          	or	t4,t4,s11
   1207e:	01f59a93          	slli	s5,a1,0x1f
   12082:	010a4833          	xor	a6,s4,a6
   12086:	4a32                	lw	s4,12(sp)
   12088:	ca76                	sw	t4,20(sp)
   1208a:	00dbc9b3          	xor	s3,s7,a3
   1208e:	8c31                	xor	s0,s0,a2
   12090:	0118dd93          	srli	s11,a7,0x11
   12094:	007aeab3          	or	s5,s5,t2
   12098:	00655793          	srli	a5,a0,0x6
   1209c:	01a59393          	slli	t2,a1,0x1a
   120a0:	00f31e93          	slli	t4,t1,0xf
   120a4:	00d41d13          	slli	s10,s0,0xd
   120a8:	01beeeb3          	or	t4,t4,s11
   120ac:	00f3e7b3          	or	a5,t2,a5
   120b0:	00d99d93          	slli	s11,s3,0xd
   120b4:	01345393          	srli	t2,s0,0x13
   120b8:	0139d293          	srli	t0,s3,0x13
   120bc:	018ccc33          	xor	s8,s9,s8
   120c0:	4cd2                	lw	s9,20(sp)
   120c2:	00fac7b3          	xor	a5,s5,a5
   120c6:	009bcbb3          	xor	s7,s7,s1
   120ca:	01c45a93          	srli	s5,s0,0x1c
   120ce:	01db4eb3          	xor	t4,s6,t4
   120d2:	007de3b3          	or	t2,s11,t2
   120d6:	012a4b33          	xor	s6,s4,s2
   120da:	005d62b3          	or	t0,s10,t0
   120de:	00499a13          	slli	s4,s3,0x4
   120e2:	0412                	slli	s0,s0,0x4
   120e4:	01c9d993          	srli	s3,s3,0x1c
   120e8:	00efcfb3          	xor	t6,t6,a4
   120ec:	011eceb3          	xor	t4,t4,a7
   120f0:	8d3d                	xor	a0,a0,a5
   120f2:	015a6a33          	or	s4,s4,s5
   120f6:	01346433          	or	s0,s0,s3
   120fa:	8ea5                	xor	a3,a3,s1
   120fc:	0163c3b3          	xor	t2,t2,s6
   12100:	0172c2b3          	xor	t0,t0,s7
   12104:	01cc4c33          	xor	s8,s8,t3
   12108:	01d6c7b3          	xor	a5,a3,t4
   1210c:	0143c3b3          	xor	t2,t2,s4
   12110:	0082c2b3          	xor	t0,t0,s0
   12114:	01f546b3          	xor	a3,a0,t6
   12118:	00b84833          	xor	a6,a6,a1
   1211c:	019f4f33          	xor	t5,t5,s9
   12120:	006f4f33          	xor	t5,t5,t1
   12124:	018844b3          	xor	s1,a6,s8
   12128:	01264733          	xor	a4,a2,s2
   1212c:	ffffca13          	not	s4,t6
   12130:	0876c913          	xori	s2,a3,135
   12134:	fff3c613          	not	a2,t2
   12138:	fff2c813          	not	a6,t0
   1213c:	f786c693          	xori	a3,a3,-136
   12140:	01e74733          	xor	a4,a4,t5
   12144:	01e6f433          	and	s0,a3,t5
   12148:	012a7a33          	and	s4,s4,s2
   1214c:	01887833          	and	a6,a6,s8
   12150:	fffc4993          	not	s3,s8
   12154:	ffff4513          	not	a0,t5
   12158:	fffec593          	not	a1,t4
   1215c:	fff4ce13          	not	t3,s1
   12160:	fff7c893          	not	a7,a5
   12164:	01f67633          	and	a2,a2,t6
   12168:	8e39                	xor	a2,a2,a4
   1216a:	00f846b3          	xor	a3,a6,a5
   1216e:	0099f9b3          	and	s3,s3,s1
   12172:	fff74313          	not	t1,a4
   12176:	8d79                	and	a0,a0,a4
   12178:	8dfd                	and	a1,a1,a5
   1217a:	01f44733          	xor	a4,s0,t6
   1217e:	007a47b3          	xor	a5,s4,t2
   12182:	01de7e33          	and	t3,t3,t4
   12186:	0058f8b3          	and	a7,a7,t0
   1218a:	8f3d                	xor	a4,a4,a5
   1218c:	0059cbb3          	xor	s7,s3,t0
   12190:	01254533          	xor	a0,a0,s2
   12194:	8da5                	xor	a1,a1,s1
   12196:	843e                	mv	s0,a5
   12198:	0076d293          	srli	t0,a3,0x7
   1219c:	01769813          	slli	a6,a3,0x17
   121a0:	01761793          	slli	a5,a2,0x17
   121a4:	00737333          	and	t1,t1,t2
   121a8:	018e4e33          	xor	t3,t3,s8
   121ac:	00765393          	srli	t2,a2,0x7
   121b0:	01d8c8b3          	xor	a7,a7,t4
   121b4:	01969913          	slli	s2,a3,0x19
   121b8:	01961493          	slli	s1,a2,0x19
   121bc:	00965e93          	srli	t4,a2,0x9
   121c0:	0096db13          	srli	s6,a3,0x9
   121c4:	017e4e33          	xor	t3,t3,s7
   121c8:	010eeeb3          	or	t4,t4,a6
   121cc:	00fb6b33          	or	s6,s6,a5
   121d0:	00796933          	or	s2,s2,t2
   121d4:	0054e4b3          	or	s1,s1,t0
   121d8:	01694933          	xor	s2,s2,s6
   121dc:	01d4c4b3          	xor	s1,s1,t4
   121e0:	003e1b13          	slli	s6,t3,0x3
   121e4:	01d75e93          	srli	t4,a4,0x1d
   121e8:	016eeb33          	or	s6,t4,s6
   121ec:	01de5c93          	srli	s9,t3,0x1d
   121f0:	00371e93          	slli	t4,a4,0x3
   121f4:	01dcecb3          	or	s9,s9,t4
   121f8:	01e34333          	xor	t1,t1,t5
   121fc:	019e1e93          	slli	t4,t3,0x19
   12200:	00775c13          	srli	s8,a4,0x7
   12204:	00a34333          	xor	t1,t1,a0
   12208:	00b8c8b3          	xor	a7,a7,a1
   1220c:	01971f93          	slli	t6,a4,0x19
   12210:	01dc6c33          	or	s8,s8,t4
   12214:	007e5e93          	srli	t4,t3,0x7
   12218:	fff5c593          	not	a1,a1
   1221c:	fff54513          	not	a0,a0
   12220:	00a35f13          	srli	t5,t1,0xa
   12224:	01feefb3          	or	t6,t4,t6
   12228:	01689e93          	slli	t4,a7,0x16
   1222c:	c85a                	sw	s6,16(sp)
   1222e:	0015dd13          	srli	s10,a1,0x1
   12232:	0065d293          	srli	t0,a1,0x6
   12236:	01f51a13          	slli	s4,a0,0x1f
   1223a:	01a51813          	slli	a6,a0,0x1a
   1223e:	01eeef33          	or	t5,t4,t5
   12242:	00a8db13          	srli	s6,a7,0xa
   12246:	01631e93          	slli	t4,t1,0x16
   1224a:	c622                	sw	s0,12(sp)
   1224c:	01135d93          	srli	s11,t1,0x11
   12250:	016eeb33          	or	s6,t4,s6
   12254:	01aa6a33          	or	s4,s4,s10
   12258:	00f89e93          	slli	t4,a7,0xf
   1225c:	00586833          	or	a6,a6,t0
   12260:	01fccfb3          	xor	t6,s9,t6
   12264:	4cc2                	lw	s9,16(sp)
   12266:	00155393          	srli	t2,a0,0x1
   1226a:	01beeeb3          	or	t4,t4,s11
   1226e:	01f59a93          	slli	s5,a1,0x1f
   12272:	010a4833          	xor	a6,s4,a6
   12276:	4a32                	lw	s4,12(sp)
   12278:	ca76                	sw	t4,20(sp)
   1227a:	00dbc9b3          	xor	s3,s7,a3
   1227e:	8c31                	xor	s0,s0,a2
   12280:	0118dd93          	srli	s11,a7,0x11
   12284:	007aeab3          	or	s5,s5,t2
   12288:	00655793          	srli	a5,a0,0x6
   1228c:	01a59393          	slli	t2,a1,0x1a
   12290:	00f31e93          	slli	t4,t1,0xf
   12294:	00d41d13          	slli	s10,s0,0xd
   12298:	01beeeb3          	or	t4,t4,s11
   1229c:	00f3e7b3          	or	a5,t2,a5
   122a0:	00d99d93          	slli	s11,s3,0xd
   122a4:	01345393          	srli	t2,s0,0x13
   122a8:	0139d293          	srli	t0,s3,0x13
   122ac:	018ccc33          	xor	s8,s9,s8
   122b0:	4cd2                	lw	s9,20(sp)
   122b2:	00fac7b3          	xor	a5,s5,a5
   122b6:	009bcbb3          	xor	s7,s7,s1
   122ba:	01c45a93          	srli	s5,s0,0x1c
   122be:	01db4eb3          	xor	t4,s6,t4
   122c2:	007de3b3          	or	t2,s11,t2
   122c6:	012a4b33          	xor	s6,s4,s2
   122ca:	005d62b3          	or	t0,s10,t0
   122ce:	00499a13          	slli	s4,s3,0x4
   122d2:	0412                	slli	s0,s0,0x4
   122d4:	01c9d993          	srli	s3,s3,0x1c
   122d8:	00efcfb3          	xor	t6,t6,a4
   122dc:	011eceb3          	xor	t4,t4,a7
   122e0:	8d3d                	xor	a0,a0,a5
   122e2:	015a6a33          	or	s4,s4,s5
   122e6:	01346433          	or	s0,s0,s3
   122ea:	8ea5                	xor	a3,a3,s1
   122ec:	0163c3b3          	xor	t2,t2,s6
   122f0:	0172c2b3          	xor	t0,t0,s7
   122f4:	01cc4c33          	xor	s8,s8,t3
   122f8:	01d6c7b3          	xor	a5,a3,t4
   122fc:	0143c3b3          	xor	t2,t2,s4
   12300:	0082c2b3          	xor	t0,t0,s0
   12304:	01f546b3          	xor	a3,a0,t6
   12308:	00b84833          	xor	a6,a6,a1
   1230c:	019f4f33          	xor	t5,t5,s9
   12310:	006f4f33          	xor	t5,t5,t1
   12314:	018844b3          	xor	s1,a6,s8
   12318:	01264733          	xor	a4,a2,s2
   1231c:	ffffca13          	not	s4,t6
   12320:	0786c913          	xori	s2,a3,120
   12324:	fff3c613          	not	a2,t2
   12328:	fff2c813          	not	a6,t0
   1232c:	f876c693          	xori	a3,a3,-121
   12330:	01e74733          	xor	a4,a4,t5
   12334:	01e6f433          	and	s0,a3,t5
   12338:	012a7a33          	and	s4,s4,s2
   1233c:	01887833          	and	a6,a6,s8
   12340:	fffc4993          	not	s3,s8
   12344:	ffff4513          	not	a0,t5
   12348:	fffec593          	not	a1,t4
   1234c:	fff4ce13          	not	t3,s1
   12350:	fff7c893          	not	a7,a5
   12354:	01f67633          	and	a2,a2,t6
   12358:	8e39                	xor	a2,a2,a4
   1235a:	00f846b3          	xor	a3,a6,a5
   1235e:	0099f9b3          	and	s3,s3,s1
   12362:	fff74313          	not	t1,a4
   12366:	8d79                	and	a0,a0,a4
   12368:	8dfd                	and	a1,a1,a5
   1236a:	01f44733          	xor	a4,s0,t6
   1236e:	007a47b3          	xor	a5,s4,t2
   12372:	01de7e33          	and	t3,t3,t4
   12376:	0058f8b3          	and	a7,a7,t0
   1237a:	8f3d                	xor	a4,a4,a5
   1237c:	0059cbb3          	xor	s7,s3,t0
   12380:	01254533          	xor	a0,a0,s2
   12384:	8da5                	xor	a1,a1,s1
   12386:	843e                	mv	s0,a5
   12388:	0076d293          	srli	t0,a3,0x7
   1238c:	01769813          	slli	a6,a3,0x17
   12390:	01761793          	slli	a5,a2,0x17
   12394:	00737333          	and	t1,t1,t2
   12398:	018e4e33          	xor	t3,t3,s8
   1239c:	00765393          	srli	t2,a2,0x7
   123a0:	01d8c8b3          	xor	a7,a7,t4
   123a4:	01969913          	slli	s2,a3,0x19
   123a8:	01961493          	slli	s1,a2,0x19
   123ac:	00965e93          	srli	t4,a2,0x9
   123b0:	0096db13          	srli	s6,a3,0x9
   123b4:	017e4e33          	xor	t3,t3,s7
   123b8:	010eeeb3          	or	t4,t4,a6
   123bc:	00fb6b33          	or	s6,s6,a5
   123c0:	00796933          	or	s2,s2,t2
   123c4:	0054e4b3          	or	s1,s1,t0
   123c8:	01694933          	xor	s2,s2,s6
   123cc:	01d4c4b3          	xor	s1,s1,t4
   123d0:	003e1b13          	slli	s6,t3,0x3
   123d4:	01d75e93          	srli	t4,a4,0x1d
   123d8:	016eeb33          	or	s6,t4,s6
   123dc:	01de5c93          	srli	s9,t3,0x1d
   123e0:	00371e93          	slli	t4,a4,0x3
   123e4:	01dcecb3          	or	s9,s9,t4
   123e8:	01e34333          	xor	t1,t1,t5
   123ec:	019e1e93          	slli	t4,t3,0x19
   123f0:	00775c13          	srli	s8,a4,0x7
   123f4:	00a34333          	xor	t1,t1,a0
   123f8:	00b8c8b3          	xor	a7,a7,a1
   123fc:	01971f93          	slli	t6,a4,0x19
   12400:	01dc6c33          	or	s8,s8,t4
   12404:	007e5e93          	srli	t4,t3,0x7
   12408:	fff5c593          	not	a1,a1
   1240c:	fff54513          	not	a0,a0
   12410:	00a35f13          	srli	t5,t1,0xa
   12414:	01feefb3          	or	t6,t4,t6
   12418:	01689e93          	slli	t4,a7,0x16
   1241c:	c85a                	sw	s6,16(sp)
   1241e:	0015dd13          	srli	s10,a1,0x1
   12422:	0065d293          	srli	t0,a1,0x6
   12426:	01f51a13          	slli	s4,a0,0x1f
   1242a:	01a51813          	slli	a6,a0,0x1a
   1242e:	01eeef33          	or	t5,t4,t5
   12432:	00a8db13          	srli	s6,a7,0xa
   12436:	01631e93          	slli	t4,t1,0x16
   1243a:	c622                	sw	s0,12(sp)
   1243c:	01135d93          	srli	s11,t1,0x11
   12440:	016eeb33          	or	s6,t4,s6
   12444:	01aa6a33          	or	s4,s4,s10
   12448:	00f89e93          	slli	t4,a7,0xf
   1244c:	00586833          	or	a6,a6,t0
   12450:	01fccfb3          	xor	t6,s9,t6
   12454:	4cc2                	lw	s9,16(sp)
   12456:	00155393          	srli	t2,a0,0x1
   1245a:	01beeeb3          	or	t4,t4,s11
   1245e:	01f59a93          	slli	s5,a1,0x1f
   12462:	010a4833          	xor	a6,s4,a6
   12466:	4a32                	lw	s4,12(sp)
   12468:	00dbc9b3          	xor	s3,s7,a3
   1246c:	8c31                	xor	s0,s0,a2
   1246e:	ca76                	sw	t4,20(sp)
   12470:	0118dd93          	srli	s11,a7,0x11
   12474:	007aeab3          	or	s5,s5,t2
   12478:	00655793          	srli	a5,a0,0x6
   1247c:	01a59393          	slli	t2,a1,0x1a
   12480:	00f31e93          	slli	t4,t1,0xf
   12484:	00d41d13          	slli	s10,s0,0xd
   12488:	01beeeb3          	or	t4,t4,s11
   1248c:	00f3e7b3          	or	a5,t2,a5
   12490:	00d99d93          	slli	s11,s3,0xd
   12494:	01345393          	srli	t2,s0,0x13
   12498:	0139d293          	srli	t0,s3,0x13
   1249c:	018ccc33          	xor	s8,s9,s8
   124a0:	4cd2                	lw	s9,20(sp)
   124a2:	00fac7b3          	xor	a5,s5,a5
   124a6:	009bcbb3          	xor	s7,s7,s1
   124aa:	01c45a93          	srli	s5,s0,0x1c
   124ae:	01db4eb3          	xor	t4,s6,t4
   124b2:	007de3b3          	or	t2,s11,t2
   124b6:	012a4b33          	xor	s6,s4,s2
   124ba:	005d62b3          	or	t0,s10,t0
   124be:	00499a13          	slli	s4,s3,0x4
   124c2:	0412                	slli	s0,s0,0x4
   124c4:	01c9d993          	srli	s3,s3,0x1c
   124c8:	00efcfb3          	xor	t6,t6,a4
   124cc:	011eceb3          	xor	t4,t4,a7
   124d0:	8d3d                	xor	a0,a0,a5
   124d2:	015a6a33          	or	s4,s4,s5
   124d6:	01346433          	or	s0,s0,s3
   124da:	8ea5                	xor	a3,a3,s1
   124dc:	0163c3b3          	xor	t2,t2,s6
   124e0:	0172c2b3          	xor	t0,t0,s7
   124e4:	01cc4c33          	xor	s8,s8,t3
   124e8:	01d6c7b3          	xor	a5,a3,t4
   124ec:	0143c3b3          	xor	t2,t2,s4
   124f0:	0082c2b3          	xor	t0,t0,s0
   124f4:	01f546b3          	xor	a3,a0,t6
   124f8:	00b84833          	xor	a6,a6,a1
   124fc:	019f4f33          	xor	t5,t5,s9
   12500:	006f4f33          	xor	t5,t5,t1
   12504:	018844b3          	xor	s1,a6,s8
   12508:	01264733          	xor	a4,a2,s2
   1250c:	ffffca13          	not	s4,t6
   12510:	0696c913          	xori	s2,a3,105
   12514:	fff3c613          	not	a2,t2
   12518:	fff2c813          	not	a6,t0
   1251c:	f966c693          	xori	a3,a3,-106
   12520:	01e74733          	xor	a4,a4,t5
   12524:	01e6f433          	and	s0,a3,t5
   12528:	012a7a33          	and	s4,s4,s2
   1252c:	01887833          	and	a6,a6,s8
   12530:	fffc4993          	not	s3,s8
   12534:	ffff4513          	not	a0,t5
   12538:	fffec593          	not	a1,t4
   1253c:	fff4ce13          	not	t3,s1
   12540:	fff7c893          	not	a7,a5
   12544:	01f67633          	and	a2,a2,t6
   12548:	8e39                	xor	a2,a2,a4
   1254a:	00f846b3          	xor	a3,a6,a5
   1254e:	0099f9b3          	and	s3,s3,s1
   12552:	fff74313          	not	t1,a4
   12556:	8d79                	and	a0,a0,a4
   12558:	8dfd                	and	a1,a1,a5
   1255a:	01f44733          	xor	a4,s0,t6
   1255e:	007a47b3          	xor	a5,s4,t2
   12562:	01de7e33          	and	t3,t3,t4
   12566:	0058f8b3          	and	a7,a7,t0
   1256a:	8f3d                	xor	a4,a4,a5
   1256c:	0059cbb3          	xor	s7,s3,t0
   12570:	01254533          	xor	a0,a0,s2
   12574:	8da5                	xor	a1,a1,s1
   12576:	843e                	mv	s0,a5
   12578:	0076d293          	srli	t0,a3,0x7
   1257c:	01769813          	slli	a6,a3,0x17
   12580:	01761793          	slli	a5,a2,0x17
   12584:	00737333          	and	t1,t1,t2
   12588:	018e4e33          	xor	t3,t3,s8
   1258c:	00765393          	srli	t2,a2,0x7
   12590:	01d8c8b3          	xor	a7,a7,t4
   12594:	01969913          	slli	s2,a3,0x19
   12598:	01961493          	slli	s1,a2,0x19
   1259c:	00965e93          	srli	t4,a2,0x9
   125a0:	0096db13          	srli	s6,a3,0x9
   125a4:	017e4e33          	xor	t3,t3,s7
   125a8:	010eeeb3          	or	t4,t4,a6
   125ac:	00fb6b33          	or	s6,s6,a5
   125b0:	00796933          	or	s2,s2,t2
   125b4:	0054e4b3          	or	s1,s1,t0
   125b8:	01694933          	xor	s2,s2,s6
   125bc:	01d4c4b3          	xor	s1,s1,t4
   125c0:	003e1b13          	slli	s6,t3,0x3
   125c4:	01d75e93          	srli	t4,a4,0x1d
   125c8:	016eeb33          	or	s6,t4,s6
   125cc:	01de5c93          	srli	s9,t3,0x1d
   125d0:	00371e93          	slli	t4,a4,0x3
   125d4:	01dcecb3          	or	s9,s9,t4
   125d8:	01e34333          	xor	t1,t1,t5
   125dc:	019e1e93          	slli	t4,t3,0x19
   125e0:	00775c13          	srli	s8,a4,0x7
   125e4:	00a34333          	xor	t1,t1,a0
   125e8:	00b8c8b3          	xor	a7,a7,a1
   125ec:	01971f93          	slli	t6,a4,0x19
   125f0:	01dc6c33          	or	s8,s8,t4
   125f4:	007e5e93          	srli	t4,t3,0x7
   125f8:	fff5c593          	not	a1,a1
   125fc:	fff54513          	not	a0,a0
   12600:	00a35f13          	srli	t5,t1,0xa
   12604:	01feefb3          	or	t6,t4,t6
   12608:	01689e93          	slli	t4,a7,0x16
   1260c:	0015dd13          	srli	s10,a1,0x1
   12610:	0065d293          	srli	t0,a1,0x6
   12614:	c85a                	sw	s6,16(sp)
   12616:	01f51a13          	slli	s4,a0,0x1f
   1261a:	01a51813          	slli	a6,a0,0x1a
   1261e:	01eeef33          	or	t5,t4,t5
   12622:	00a8db13          	srli	s6,a7,0xa
   12626:	01631e93          	slli	t4,t1,0x16
   1262a:	c622                	sw	s0,12(sp)
   1262c:	01135d93          	srli	s11,t1,0x11
   12630:	016eeb33          	or	s6,t4,s6
   12634:	01aa6a33          	or	s4,s4,s10
   12638:	00f89e93          	slli	t4,a7,0xf
   1263c:	00586833          	or	a6,a6,t0
   12640:	01fccfb3          	xor	t6,s9,t6
   12644:	4cc2                	lw	s9,16(sp)
   12646:	00155393          	srli	t2,a0,0x1
   1264a:	01beeeb3          	or	t4,t4,s11
   1264e:	01f59a93          	slli	s5,a1,0x1f
   12652:	010a4833          	xor	a6,s4,a6
   12656:	4a32                	lw	s4,12(sp)
   12658:	00dbc9b3          	xor	s3,s7,a3
   1265c:	8c31                	xor	s0,s0,a2
   1265e:	ca76                	sw	t4,20(sp)
   12660:	0118dd93          	srli	s11,a7,0x11
   12664:	007aeab3          	or	s5,s5,t2
   12668:	00655793          	srli	a5,a0,0x6
   1266c:	01a59393          	slli	t2,a1,0x1a
   12670:	00f31e93          	slli	t4,t1,0xf
   12674:	00d41d13          	slli	s10,s0,0xd
   12678:	01beeeb3          	or	t4,t4,s11
   1267c:	00f3e7b3          	or	a5,t2,a5
   12680:	00d99d93          	slli	s11,s3,0xd
   12684:	01345393          	srli	t2,s0,0x13
   12688:	0139d293          	srli	t0,s3,0x13
   1268c:	018ccc33          	xor	s8,s9,s8
   12690:	4cd2                	lw	s9,20(sp)
   12692:	00fac7b3          	xor	a5,s5,a5
   12696:	009bcbb3          	xor	s7,s7,s1
   1269a:	01c45a93          	srli	s5,s0,0x1c
   1269e:	01db4eb3          	xor	t4,s6,t4
   126a2:	007de3b3          	or	t2,s11,t2
   126a6:	012a4b33          	xor	s6,s4,s2
   126aa:	005d62b3          	or	t0,s10,t0
   126ae:	00499a13          	slli	s4,s3,0x4
   126b2:	0412                	slli	s0,s0,0x4
   126b4:	01c9d993          	srli	s3,s3,0x1c
   126b8:	00efcfb3          	xor	t6,t6,a4
   126bc:	011eceb3          	xor	t4,t4,a7
   126c0:	8d3d                	xor	a0,a0,a5
   126c2:	015a6a33          	or	s4,s4,s5
   126c6:	01346433          	or	s0,s0,s3
   126ca:	8ea5                	xor	a3,a3,s1
   126cc:	0163c3b3          	xor	t2,t2,s6
   126d0:	0172c2b3          	xor	t0,t0,s7
   126d4:	01cc4c33          	xor	s8,s8,t3
   126d8:	01d6c7b3          	xor	a5,a3,t4
   126dc:	0143c3b3          	xor	t2,t2,s4
   126e0:	0082c2b3          	xor	t0,t0,s0
   126e4:	01f546b3          	xor	a3,a0,t6
   126e8:	00b84833          	xor	a6,a6,a1
   126ec:	019f4f33          	xor	t5,t5,s9
   126f0:	006f4f33          	xor	t5,t5,t1
   126f4:	018844b3          	xor	s1,a6,s8
   126f8:	01264733          	xor	a4,a2,s2
   126fc:	ffffca13          	not	s4,t6
   12700:	05a6c913          	xori	s2,a3,90
   12704:	fff3c613          	not	a2,t2
   12708:	fff2c813          	not	a6,t0
   1270c:	fa56c693          	xori	a3,a3,-91
   12710:	01e74733          	xor	a4,a4,t5
   12714:	01e6f433          	and	s0,a3,t5
   12718:	012a7a33          	and	s4,s4,s2
   1271c:	01887833          	and	a6,a6,s8
   12720:	fffc4993          	not	s3,s8
   12724:	ffff4513          	not	a0,t5
   12728:	fffec593          	not	a1,t4
   1272c:	fff4ce13          	not	t3,s1
   12730:	fff7c893          	not	a7,a5
   12734:	01f67633          	and	a2,a2,t6
   12738:	8e39                	xor	a2,a2,a4
   1273a:	00f846b3          	xor	a3,a6,a5
   1273e:	0099f9b3          	and	s3,s3,s1
   12742:	fff74313          	not	t1,a4
   12746:	8d79                	and	a0,a0,a4
   12748:	8dfd                	and	a1,a1,a5
   1274a:	01f44733          	xor	a4,s0,t6
   1274e:	007a47b3          	xor	a5,s4,t2
   12752:	01de7e33          	and	t3,t3,t4
   12756:	0058f8b3          	and	a7,a7,t0
   1275a:	8f3d                	xor	a4,a4,a5
   1275c:	0059cbb3          	xor	s7,s3,t0
   12760:	01254533          	xor	a0,a0,s2
   12764:	8da5                	xor	a1,a1,s1
   12766:	843e                	mv	s0,a5
   12768:	0076d293          	srli	t0,a3,0x7
   1276c:	01769813          	slli	a6,a3,0x17
   12770:	01761793          	slli	a5,a2,0x17
   12774:	00737333          	and	t1,t1,t2
   12778:	018e4e33          	xor	t3,t3,s8
   1277c:	00765393          	srli	t2,a2,0x7
   12780:	01d8c8b3          	xor	a7,a7,t4
   12784:	01969913          	slli	s2,a3,0x19
   12788:	01961493          	slli	s1,a2,0x19
   1278c:	00965e93          	srli	t4,a2,0x9
   12790:	0096db13          	srli	s6,a3,0x9
   12794:	017e4e33          	xor	t3,t3,s7
   12798:	010eeeb3          	or	t4,t4,a6
   1279c:	00fb6b33          	or	s6,s6,a5
   127a0:	00796933          	or	s2,s2,t2
   127a4:	0054e4b3          	or	s1,s1,t0
   127a8:	01694933          	xor	s2,s2,s6
   127ac:	01d4c4b3          	xor	s1,s1,t4
   127b0:	003e1b13          	slli	s6,t3,0x3
   127b4:	01d75e93          	srli	t4,a4,0x1d
   127b8:	016eeb33          	or	s6,t4,s6
   127bc:	01de5c93          	srli	s9,t3,0x1d
   127c0:	00371e93          	slli	t4,a4,0x3
   127c4:	01dcecb3          	or	s9,s9,t4
   127c8:	01e34333          	xor	t1,t1,t5
   127cc:	019e1e93          	slli	t4,t3,0x19
   127d0:	00775c13          	srli	s8,a4,0x7
   127d4:	00a34333          	xor	t1,t1,a0
   127d8:	00b8c8b3          	xor	a7,a7,a1
   127dc:	01971f93          	slli	t6,a4,0x19
   127e0:	01dc6c33          	or	s8,s8,t4
   127e4:	007e5e93          	srli	t4,t3,0x7
   127e8:	c622                	sw	s0,12(sp)
   127ea:	00a35f13          	srli	t5,t1,0xa
   127ee:	01feefb3          	or	t6,t4,t6
   127f2:	01689e93          	slli	t4,a7,0x16
   127f6:	c85a                	sw	s6,16(sp)
   127f8:	fff5c593          	not	a1,a1
   127fc:	fff54513          	not	a0,a0
   12800:	01eeef33          	or	t5,t4,t5
   12804:	00a8db13          	srli	s6,a7,0xa
   12808:	01631e93          	slli	t4,t1,0x16
   1280c:	01135d93          	srli	s11,t1,0x11
   12810:	0015dd13          	srli	s10,a1,0x1
   12814:	0065d293          	srli	t0,a1,0x6
   12818:	016eeb33          	or	s6,t4,s6
   1281c:	01f51a13          	slli	s4,a0,0x1f
   12820:	01a51813          	slli	a6,a0,0x1a
   12824:	00f89e93          	slli	t4,a7,0xf
   12828:	01fccfb3          	xor	t6,s9,t6
   1282c:	4cc2                	lw	s9,16(sp)
   1282e:	01beeeb3          	or	t4,t4,s11
   12832:	01aa6a33          	or	s4,s4,s10
   12836:	00586833          	or	a6,a6,t0
   1283a:	ca76                	sw	t4,20(sp)
   1283c:	00155393          	srli	t2,a0,0x1
   12840:	01f59a93          	slli	s5,a1,0x1f
   12844:	010a4833          	xor	a6,s4,a6
   12848:	4a32                	lw	s4,12(sp)
   1284a:	00dbc9b3          	xor	s3,s7,a3
   1284e:	8c31                	xor	s0,s0,a2
   12850:	0118dd93          	srli	s11,a7,0x11
   12854:	007aeab3          	or	s5,s5,t2
   12858:	00655793          	srli	a5,a0,0x6
   1285c:	01a59393          	slli	t2,a1,0x1a
   12860:	00f31e93          	slli	t4,t1,0xf
   12864:	018ccc33          	xor	s8,s9,s8
   12868:	4cd2                	lw	s9,20(sp)
   1286a:	01beeeb3          	or	t4,t4,s11
   1286e:	00f3e7b3          	or	a5,t2,a5
   12872:	00d99d93          	slli	s11,s3,0xd
   12876:	01345393          	srli	t2,s0,0x13
   1287a:	00d41d13          	slli	s10,s0,0xd
   1287e:	00fac7b3          	xor	a5,s5,a5
   12882:	0139d293          	srli	t0,s3,0x13
   12886:	01c45a93          	srli	s5,s0,0x1c
   1288a:	01db4eb3          	xor	t4,s6,t4
   1288e:	007de3b3          	or	t2,s11,t2
   12892:	012a4b33          	xor	s6,s4,s2
   12896:	00499a13          	slli	s4,s3,0x4
   1289a:	00efcfb3          	xor	t6,t6,a4
   1289e:	011eceb3          	xor	t4,t4,a7
   128a2:	009bcbb3          	xor	s7,s7,s1
   128a6:	8d3d                	xor	a0,a0,a5
   128a8:	0163c3b3          	xor	t2,t2,s6
   128ac:	015a6a33          	or	s4,s4,s5
   128b0:	8ea5                	xor	a3,a3,s1
   128b2:	019f4f33          	xor	t5,t5,s9
   128b6:	005d62b3          	or	t0,s10,t0
   128ba:	01c9d993          	srli	s3,s3,0x1c
   128be:	0412                	slli	s0,s0,0x4
   128c0:	01d6c7b3          	xor	a5,a3,t4
   128c4:	006f4f33          	xor	t5,t5,t1
   128c8:	0143c8b3          	xor	a7,t2,s4
   128cc:	01f546b3          	xor	a3,a0,t6
   128d0:	0172c2b3          	xor	t0,t0,s7
   128d4:	01346433          	or	s0,s0,s3
   128d8:	01264733          	xor	a4,a2,s2
   128dc:	01cc4c33          	xor	s8,s8,t3
   128e0:	01e74733          	xor	a4,a4,t5
   128e4:	04b6ce13          	xori	t3,a3,75
   128e8:	00b84833          	xor	a6,a6,a1
   128ec:	ffff4313          	not	t1,t5
   128f0:	0082c5b3          	xor	a1,t0,s0
   128f4:	fff8ca13          	not	s4,a7
   128f8:	ffffc293          	not	t0,t6
   128fc:	fb46c693          	xori	a3,a3,-76
   12900:	01884833          	xor	a6,a6,s8
   12904:	01e6f6b3          	and	a3,a3,t5
   12908:	fffc4613          	not	a2,s8
   1290c:	fff5c993          	not	s3,a1
   12910:	fff74493          	not	s1,a4
   12914:	01c2f2b3          	and	t0,t0,t3
   12918:	00e37333          	and	t1,t1,a4
   1291c:	01fa7a33          	and	s4,s4,t6
   12920:	00ea4a33          	xor	s4,s4,a4
   12924:	0112c2b3          	xor	t0,t0,a7
   12928:	01c34733          	xor	a4,t1,t3
   1292c:	fffec513          	not	a0,t4
   12930:	01f6ce33          	xor	t3,a3,t6
   12934:	fff7c393          	not	t2,a5
   12938:	01067633          	and	a2,a2,a6
   1293c:	0189f9b3          	and	s3,s3,s8
   12940:	0114f4b3          	and	s1,s1,a7
   12944:	00f9c9b3          	xor	s3,s3,a5
   12948:	005e4e33          	xor	t3,t3,t0
   1294c:	8e2d                	xor	a2,a2,a1
   1294e:	0142c2b3          	xor	t0,t0,s4
   12952:	8d7d                	and	a0,a0,a5
   12954:	00b3f3b3          	and	t2,t2,a1
   12958:	01e4c4b3          	xor	s1,s1,t5
   1295c:	01364fb3          	xor	t6,a2,s3
   12960:	8cb9                	xor	s1,s1,a4
   12962:	fff74f13          	not	t5,a4
   12966:	010547b3          	xor	a5,a0,a6
   1296a:	0132d713          	srli	a4,t0,0x13
   1296e:	fff84913          	not	s2,a6
   12972:	01d3c3b3          	xor	t2,t2,t4
   12976:	00f3c3b3          	xor	t2,t2,a5
   1297a:	85ba                	mv	a1,a4
   1297c:	01d97933          	and	s2,s2,t4
   12980:	fff7ce93          	not	t4,a5
   12984:	00df9793          	slli	a5,t6,0xd
   12988:	8fcd                	or	a5,a5,a1
   1298a:	00d29713          	slli	a4,t0,0xd
   1298e:	013fd593          	srli	a1,t6,0x13
   12992:	01894933          	xor	s2,s2,s8
   12996:	004f9413          	slli	s0,t6,0x4
   1299a:	8f4d                	or	a4,a4,a1
   1299c:	01c2d593          	srli	a1,t0,0x1c
   129a0:	00c94933          	xor	s2,s2,a2
   129a4:	8c4d                	or	s0,s0,a1
   129a6:	01cfdb13          	srli	s6,t6,0x1c
   129aa:	00429593          	slli	a1,t0,0x4
   129ae:	0165eb33          	or	s6,a1,s6
   129b2:	00391893          	slli	a7,s2,0x3
   129b6:	01de5593          	srli	a1,t3,0x1d
   129ba:	0115e8b3          	or	a7,a1,a7
   129be:	ca46                	sw	a7,20(sp)
   129c0:	01d95593          	srli	a1,s2,0x1d
   129c4:	003e1893          	slli	a7,t3,0x3
   129c8:	0115e8b3          	or	a7,a1,a7
   129cc:	01991d93          	slli	s11,s2,0x19
   129d0:	007e5593          	srli	a1,t3,0x7
   129d4:	01b5edb3          	or	s11,a1,s11
   129d8:	019e1513          	slli	a0,t3,0x19
   129dc:	00795593          	srli	a1,s2,0x7
   129e0:	8d4d                	or	a0,a0,a1
   129e2:	001f5d13          	srli	s10,t5,0x1
   129e6:	01fe9593          	slli	a1,t4,0x1f
   129ea:	01a5ed33          	or	s10,a1,s10
   129ee:	001edc93          	srli	s9,t4,0x1
   129f2:	01ff1593          	slli	a1,t5,0x1f
   129f6:	0195ecb3          	or	s9,a1,s9
   129fa:	006f5693          	srli	a3,t5,0x6
   129fe:	01ae9593          	slli	a1,t4,0x1a
   12a02:	8ecd                	or	a3,a3,a1
   12a04:	006ed813          	srli	a6,t4,0x6
   12a08:	01af1593          	slli	a1,t5,0x1a
   12a0c:	00a4d313          	srli	t1,s1,0xa
   12a10:	0105e833          	or	a6,a1,a6
   12a14:	01639593          	slli	a1,t2,0x16
   12a18:	00a3db93          	srli	s7,t2,0xa
   12a1c:	0065e333          	or	t1,a1,t1
   12a20:	01649593          	slli	a1,s1,0x16
   12a24:	0114dc13          	srli	s8,s1,0x11
   12a28:	0175ebb3          	or	s7,a1,s7
   12a2c:	00f39593          	slli	a1,t2,0xf
   12a30:	007a5613          	srli	a2,s4,0x7
   12a34:	c63e                	sw	a5,12(sp)
   12a36:	0185ec33          	or	s8,a1,s8
   12a3a:	0113d793          	srli	a5,t2,0x11
   12a3e:	00f49593          	slli	a1,s1,0xf
   12a42:	8ab2                	mv	s5,a2
   12a44:	c846                	sw	a7,16(sp)
   12a46:	00f5e8b3          	or	a7,a1,a5
   12a4a:	01999593          	slli	a1,s3,0x19
   12a4e:	0155eab3          	or	s5,a1,s5
   12a52:	cc56                	sw	s5,24(sp)
   12a54:	019a1593          	slli	a1,s4,0x19
   12a58:	0079da93          	srli	s5,s3,0x7
   12a5c:	0155eab3          	or	s5,a1,s5
   12a60:	01799613          	slli	a2,s3,0x17
   12a64:	009a5593          	srli	a1,s4,0x9
   12a68:	8e4d                	or	a2,a2,a1
   12a6a:	0099d793          	srli	a5,s3,0x9
   12a6e:	017a1593          	slli	a1,s4,0x17
   12a72:	8ddd                	or	a1,a1,a5
   12a74:	47b2                	lw	a5,12(sp)
   12a76:	01674733          	xor	a4,a4,s6
   12a7a:	00dd46b3          	xor	a3,s10,a3
   12a7e:	8fa1                	xor	a5,a5,s0
   12a80:	4452                	lw	s0,20(sp)
   12a82:	4b42                	lw	s6,16(sp)
   12a84:	01f74733          	xor	a4,a4,t6
   12a88:	01b44db3          	xor	s11,s0,s11
   12a8c:	01e6cfb3          	xor	t6,a3,t5
   12a90:	4462                	lw	s0,24(sp)
   12a92:	56d2                	lw	a3,52(sp)
   12a94:	00cacab3          	xor	s5,s5,a2
   12a98:	01834333          	xor	t1,t1,s8
   12a9c:	8da1                	xor	a1,a1,s0
   12a9e:	00ab4533          	xor	a0,s6,a0
   12aa2:	010cc833          	xor	a6,s9,a6
   12aa6:	011bc8b3          	xor	a7,s7,a7
   12aaa:	00934633          	xor	a2,t1,s1
   12aae:	06e1                	addi	a3,a3,24
   12ab0:	013ac4b3          	xor	s1,s5,s3
   12ab4:	0057c7b3          	xor	a5,a5,t0
   12ab8:	012dc933          	xor	s2,s11,s2
   12abc:	01c54433          	xor	s0,a0,t3
   12ac0:	0145cdb3          	xor	s11,a1,s4
   12ac4:	01d842b3          	xor	t0,a6,t4
   12ac8:	0078c3b3          	xor	t2,a7,t2
   12acc:	d036                	sw	a3,32(sp)
   12ace:	85a6                	mv	a1,s1
   12ad0:	58d2                	lw	a7,52(sp)
   12ad2:	03800693          	li	a3,56
   12ad6:	00171e13          	slli	t3,a4,0x1
   12ada:	457d                	li	a0,31
   12adc:	8d15                	sub	a0,a0,a3
   12ade:	00d7d833          	srl	a6,a5,a3
   12ae2:	00ae1533          	sll	a0,t3,a0
   12ae6:	fe068313          	addi	t1,a3,-32
   12aea:	01056833          	or	a6,a0,a6
   12aee:	00034463          	bltz	t1,12af6 <crypto_hash+0x2916>
   12af2:	00675833          	srl	a6,a4,t1
   12af6:	01088023          	sb	a6,0(a7)
   12afa:	16e1                	addi	a3,a3,-8
   12afc:	5561                	li	a0,-8
   12afe:	0885                	addi	a7,a7,1
   12b00:	fca69de3          	bne	a3,a0,12ada <crypto_hash+0x28fa>
   12b04:	005942b3          	xor	t0,s2,t0
   12b08:	8f2d                	xor	a4,a4,a1
   12b0a:	01f44fb3          	xor	t6,s0,t6
   12b0e:	0075c5b3          	xor	a1,a1,t2
   12b12:	0b4fce93          	xori	t4,t6,180
   12b16:	fff3c813          	not	a6,t2
   12b1a:	fff44513          	not	a0,s0
   12b1e:	fff94693          	not	a3,s2
   12b22:	fff74493          	not	s1,a4
   12b26:	f4bfc313          	xori	t1,t6,-181
   12b2a:	fff2ce13          	not	t3,t0
   12b2e:	00fdc7b3          	xor	a5,s11,a5
   12b32:	00c37333          	and	t1,t1,a2
   12b36:	007e7e33          	and	t3,t3,t2
   12b3a:	0056f6b3          	and	a3,a3,t0
   12b3e:	00b87833          	and	a6,a6,a1
   12b42:	fff5cf13          	not	t5,a1
   12b46:	0124f4b3          	and	s1,s1,s2
   12b4a:	01d57533          	and	a0,a0,t4
   12b4e:	8cad                	xor	s1,s1,a1
   12b50:	00cdcab3          	xor	s5,s11,a2
   12b54:	00e6c5b3          	xor	a1,a3,a4
   12b58:	00584833          	xor	a6,a6,t0
   12b5c:	8d3d                	xor	a0,a0,a5
   12b5e:	012e42b3          	xor	t0,t3,s2
   12b62:	00ef7f33          	and	t5,t5,a4
   12b66:	00834733          	xor	a4,t1,s0
   12b6a:	8f29                	xor	a4,a4,a0
   12b6c:	00b2c2b3          	xor	t0,t0,a1
   12b70:	fff64893          	not	a7,a2
   12b74:	fffacf93          	not	t6,s5
   12b78:	0158f8b3          	and	a7,a7,s5
   12b7c:	fff7c993          	not	s3,a5
   12b80:	00ffffb3          	and	t6,t6,a5
   12b84:	01d75e13          	srli	t3,a4,0x1d
   12b88:	00329793          	slli	a5,t0,0x3
   12b8c:	01d8c8b3          	xor	a7,a7,t4
   12b90:	00fe6e33          	or	t3,t3,a5
   12b94:	01d2dd93          	srli	s11,t0,0x1d
   12b98:	00371793          	slli	a5,a4,0x3
   12b9c:	00fdedb3          	or	s11,s11,a5
   12ba0:	011fcfb3          	xor	t6,t6,a7
   12ba4:	01929793          	slli	a5,t0,0x19
   12ba8:	010f4f33          	xor	t5,t5,a6
   12bac:	00775d13          	srli	s10,a4,0x7
   12bb0:	00cfcfb3          	xor	t6,t6,a2
   12bb4:	007f4f33          	xor	t5,t5,t2
   12bb8:	00fd6d33          	or	s10,s10,a5
   12bbc:	01971393          	slli	t2,a4,0x19
   12bc0:	0072d793          	srli	a5,t0,0x7
   12bc4:	016f1c93          	slli	s9,t5,0x16
   12bc8:	0077e3b3          	or	t2,a5,t2
   12bcc:	00afd793          	srli	a5,t6,0xa
   12bd0:	c672                	sw	t3,12(sp)
   12bd2:	00fcecb3          	or	s9,s9,a5
   12bd6:	00af5e13          	srli	t3,t5,0xa
   12bda:	016f9793          	slli	a5,t6,0x16
   12bde:	01c7ee33          	or	t3,a5,t3
   12be2:	c872                	sw	t3,16(sp)
   12be4:	00ff1793          	slli	a5,t5,0xf
   12be8:	011fde13          	srli	t3,t6,0x11
   12bec:	01c7e7b3          	or	a5,a5,t3
   12bf0:	0089f9b3          	and	s3,s3,s0
   12bf4:	ca3e                	sw	a5,20(sp)
   12bf6:	0159c9b3          	xor	s3,s3,s5
   12bfa:	00ff9793          	slli	a5,t6,0xf
   12bfe:	011f5c13          	srli	s8,t5,0x11
   12c02:	0079db93          	srli	s7,s3,0x7
   12c06:	0187ec33          	or	s8,a5,s8
   12c0a:	01949793          	slli	a5,s1,0x19
   12c0e:	0177ebb3          	or	s7,a5,s7
   12c12:	0074db13          	srli	s6,s1,0x7
   12c16:	01999793          	slli	a5,s3,0x19
   12c1a:	0167eb33          	or	s6,a5,s6
   12c1e:	01749693          	slli	a3,s1,0x17
   12c22:	0099d793          	srli	a5,s3,0x9
   12c26:	fff8c893          	not	a7,a7
   12c2a:	fff84813          	not	a6,a6
   12c2e:	01799613          	slli	a2,s3,0x17
   12c32:	8edd                	or	a3,a3,a5
   12c34:	0094d793          	srli	a5,s1,0x9
   12c38:	01f81a93          	slli	s5,a6,0x1f
   12c3c:	8e5d                	or	a2,a2,a5
   12c3e:	0018d793          	srli	a5,a7,0x1
   12c42:	00faeab3          	or	s5,s5,a5
   12c46:	00185a13          	srli	s4,a6,0x1
   12c4a:	01f89793          	slli	a5,a7,0x1f
   12c4e:	0147ea33          	or	s4,a5,s4
   12c52:	0068de13          	srli	t3,a7,0x6
   12c56:	01a81793          	slli	a5,a6,0x1a
   12c5a:	01354533          	xor	a0,a0,s3
   12c5e:	8da5                	xor	a1,a1,s1
   12c60:	01c7e7b3          	or	a5,a5,t3
   12c64:	00685313          	srli	t1,a6,0x6
   12c68:	01a89e13          	slli	t3,a7,0x1a
   12c6c:	007dc3b3          	xor	t2,s11,t2
   12c70:	4db2                	lw	s11,12(sp)
   12c72:	00d59913          	slli	s2,a1,0xd
   12c76:	006e6333          	or	t1,t3,t1
   12c7a:	01355e13          	srli	t3,a0,0x13
   12c7e:	01c96933          	or	s2,s2,t3
   12c82:	00d51413          	slli	s0,a0,0xd
   12c86:	0135de13          	srli	t3,a1,0x13
   12c8a:	01c46433          	or	s0,s0,t3
   12c8e:	01c55e93          	srli	t4,a0,0x1c
   12c92:	00459e13          	slli	t3,a1,0x4
   12c96:	01adcd33          	xor	s10,s11,s10
   12c9a:	4dd2                	lw	s11,20(sp)
   12c9c:	cc3e                	sw	a5,24(sp)
   12c9e:	01de6eb3          	or	t4,t3,t4
   12ca2:	01c5d793          	srli	a5,a1,0x1c
   12ca6:	00451e13          	slli	t3,a0,0x4
   12caa:	00fe6e33          	or	t3,t3,a5
   12cae:	47e2                	lw	a5,24(sp)
   12cb0:	01bcccb3          	xor	s9,s9,s11
   12cb4:	4dc2                	lw	s11,16(sp)
   12cb6:	00cbc633          	xor	a2,s7,a2
   12cba:	00db46b3          	xor	a3,s6,a3
   12cbe:	00fac7b3          	xor	a5,s5,a5
   12cc2:	006a4333          	xor	t1,s4,t1
   12cc6:	01d94eb3          	xor	t4,s2,t4
   12cca:	01c44e33          	xor	t3,s0,t3
   12cce:	00e3c3b3          	xor	t2,t2,a4
   12cd2:	005d4d33          	xor	s10,s10,t0
   12cd6:	01364633          	xor	a2,a2,s3
   12cda:	8ea5                	xor	a3,a3,s1
   12cdc:	01034333          	xor	t1,t1,a6
   12ce0:	00be4e33          	xor	t3,t3,a1
   12ce4:	018dcc33          	xor	s8,s11,s8
   12ce8:	0117c7b3          	xor	a5,a5,a7
   12cec:	00aeceb3          	xor	t4,t4,a0
   12cf0:	01fcccb3          	xor	s9,s9,t6
   12cf4:	01ec4c33          	xor	s8,s8,t5
   12cf8:	01a34733          	xor	a4,t1,s10
   12cfc:	00de4fb3          	xor	t6,t3,a3
   12d00:	00ceceb3          	xor	t4,t4,a2
   12d04:	0077c7b3          	xor	a5,a5,t2
   12d08:	00cccf33          	xor	t5,s9,a2
   12d0c:	00dc4833          	xor	a6,s8,a3
   12d10:	0a57c493          	xori	s1,a5,165
   12d14:	fff3c413          	not	s0,t2
   12d18:	fffd4293          	not	t0,s10
   12d1c:	fffc4593          	not	a1,s8
   12d20:	fffec613          	not	a2,t4
   12d24:	ffffc693          	not	a3,t6
   12d28:	fff74e13          	not	t3,a4
   12d2c:	f5a7c793          	xori	a5,a5,-166
   12d30:	00e2f2b3          	and	t0,t0,a4
   12d34:	0197f7b3          	and	a5,a5,s9
   12d38:	fffcc513          	not	a0,s9
   12d3c:	8c65                	and	s0,s0,s1
   12d3e:	0105f5b3          	and	a1,a1,a6
   12d42:	00767633          	and	a2,a2,t2
   12d46:	01a6f6b3          	and	a3,a3,s10
   12d4a:	018e7e33          	and	t3,t3,s8
   12d4e:	0106c6b3          	xor	a3,a3,a6
   12d52:	01e64633          	xor	a2,a2,t5
   12d56:	01d44433          	xor	s0,s0,t4
   12d5a:	8db9                	xor	a1,a1,a4
   12d5c:	ffff4313          	not	t1,t5
   12d60:	0077c733          	xor	a4,a5,t2
   12d64:	fff84893          	not	a7,a6
   12d68:	01e57533          	and	a0,a0,t5
   12d6c:	01f2c833          	xor	a6,t0,t6
   12d70:	01ae4e33          	xor	t3,t3,s10
   12d74:	8f21                	xor	a4,a4,s0
   12d76:	010e4e33          	xor	t3,t3,a6
   12d7a:	82c2                	mv	t0,a6
   12d7c:	8d25                	xor	a0,a0,s1
   12d7e:	00765993          	srli	s3,a2,0x7
   12d82:	0076d913          	srli	s2,a3,0x7
   12d86:	01769813          	slli	a6,a3,0x17
   12d8a:	01761793          	slli	a5,a2,0x17
   12d8e:	01d37333          	and	t1,t1,t4
   12d92:	01f8f8b3          	and	a7,a7,t6
   12d96:	8ea2                	mv	t4,s0
   12d98:	01969493          	slli	s1,a3,0x19
   12d9c:	01961413          	slli	s0,a2,0x19
   12da0:	00965f13          	srli	t5,a2,0x9
   12da4:	0096df93          	srli	t6,a3,0x9
   12da8:	010f6f33          	or	t5,t5,a6
   12dac:	00ffefb3          	or	t6,t6,a5
   12db0:	0134e4b3          	or	s1,s1,s3
   12db4:	01246433          	or	s0,s0,s2
   12db8:	01f4c4b3          	xor	s1,s1,t6
   12dbc:	01e44433          	xor	s0,s0,t5
   12dc0:	003e1f93          	slli	t6,t3,0x3
   12dc4:	01d75f13          	srli	t5,a4,0x1d
   12dc8:	c816                	sw	t0,16(sp)
   12dca:	019e1d13          	slli	s10,t3,0x19
   12dce:	01934333          	xor	t1,t1,s9
   12dd2:	01ff6fb3          	or	t6,t5,t6
   12dd6:	00d2ccb3          	xor	s9,t0,a3
   12dda:	01de5f13          	srli	t5,t3,0x1d
   12dde:	00371293          	slli	t0,a4,0x3
   12de2:	8aea                	mv	s5,s10
   12de4:	005f62b3          	or	t0,t5,t0
   12de8:	00775f13          	srli	t5,a4,0x7
   12dec:	015f6f33          	or	t5,t5,s5
   12df0:	0188c8b3          	xor	a7,a7,s8
   12df4:	ca7a                	sw	t5,20(sp)
   12df6:	00a34333          	xor	t1,t1,a0
   12dfa:	00b8c8b3          	xor	a7,a7,a1
   12dfe:	007e5f13          	srli	t5,t3,0x7
   12e02:	01971d13          	slli	s10,a4,0x19
   12e06:	fff54513          	not	a0,a0
   12e0a:	fff5c593          	not	a1,a1
   12e0e:	01af6d33          	or	s10,t5,s10
   12e12:	00a35a93          	srli	s5,t1,0xa
   12e16:	01689f13          	slli	t5,a7,0x16
   12e1a:	0015db93          	srli	s7,a1,0x1
   12e1e:	0065d913          	srli	s2,a1,0x6
   12e22:	00a8db13          	srli	s6,a7,0xa
   12e26:	01f51a13          	slli	s4,a0,0x1f
   12e2a:	01a51813          	slli	a6,a0,0x1a
   12e2e:	015f6f33          	or	t5,t5,s5
   12e32:	01631a93          	slli	s5,t1,0x16
   12e36:	c676                	sw	t4,12(sp)
   12e38:	016aeb33          	or	s6,s5,s6
   12e3c:	017a6a33          	or	s4,s4,s7
   12e40:	00f89a93          	slli	s5,a7,0xf
   12e44:	01135c13          	srli	s8,t1,0x11
   12e48:	01286833          	or	a6,a6,s2
   12e4c:	00cec3b3          	xor	t2,t4,a2
   12e50:	018aec33          	or	s8,s5,s8
   12e54:	0118de93          	srli	t4,a7,0x11
   12e58:	00f31a93          	slli	s5,t1,0xf
   12e5c:	010a4833          	xor	a6,s4,a6
   12e60:	4a32                	lw	s4,12(sp)
   12e62:	00155d93          	srli	s11,a0,0x1
   12e66:	00655993          	srli	s3,a0,0x6
   12e6a:	01a59793          	slli	a5,a1,0x1a
   12e6e:	01daeeb3          	or	t4,s5,t4
   12e72:	01f59a93          	slli	s5,a1,0x1f
   12e76:	01baeab3          	or	s5,s5,s11
   12e7a:	0137e7b3          	or	a5,a5,s3
   12e7e:	01a2c2b3          	xor	t0,t0,s10
   12e82:	00fac7b3          	xor	a5,s5,a5
   12e86:	4d52                	lw	s10,20(sp)
   12e88:	009a4ab3          	xor	s5,s4,s1
   12e8c:	4a42                	lw	s4,16(sp)
   12e8e:	00dc9d93          	slli	s11,s9,0xd
   12e92:	00d39b93          	slli	s7,t2,0xd
   12e96:	0133d993          	srli	s3,t2,0x13
   12e9a:	013cd913          	srli	s2,s9,0x13
   12e9e:	013de9b3          	or	s3,s11,s3
   12ea2:	012be933          	or	s2,s7,s2
   12ea6:	01afcfb3          	xor	t6,t6,s10
   12eaa:	01c3db93          	srli	s7,t2,0x1c
   12eae:	018f4f33          	xor	t5,t5,s8
   12eb2:	01db4eb3          	xor	t4,s6,t4
   12eb6:	01ccdc13          	srli	s8,s9,0x1c
   12eba:	008a4a33          	xor	s4,s4,s0
   12ebe:	004c9b13          	slli	s6,s9,0x4
   12ec2:	0392                	slli	t2,t2,0x4
   12ec4:	00e2c2b3          	xor	t0,t0,a4
   12ec8:	01cfcfb3          	xor	t6,t6,t3
   12ecc:	017b6b33          	or	s6,s6,s7
   12ed0:	0183e3b3          	or	t2,t2,s8
   12ed4:	8fa9                	xor	a5,a5,a0
   12ed6:	00b84833          	xor	a6,a6,a1
   12eda:	013acab3          	xor	s5,s5,s3
   12ede:	012a4a33          	xor	s4,s4,s2
   12ee2:	006f4f33          	xor	t5,t5,t1
   12ee6:	011eceb3          	xor	t4,t4,a7
   12eea:	01f84833          	xor	a6,a6,t6
   12eee:	016acab3          	xor	s5,s5,s6
   12ef2:	007a4a33          	xor	s4,s4,t2
   12ef6:	8e25                	xor	a2,a2,s1
   12ef8:	8ea1                	xor	a3,a3,s0
   12efa:	0057c7b3          	xor	a5,a5,t0
   12efe:	01e64433          	xor	s0,a2,t5
   12f02:	01d6c3b3          	xor	t2,a3,t4
   12f06:	0967c913          	xori	s2,a5,150
   12f0a:	fff2c493          	not	s1,t0
   12f0e:	ffffc713          	not	a4,t6
   12f12:	fffac613          	not	a2,s5
   12f16:	fffa4693          	not	a3,s4
   12f1a:	fff84e13          	not	t3,a6
   12f1e:	f697c793          	xori	a5,a5,-151
   12f22:	0124f4b3          	and	s1,s1,s2
   12f26:	01077733          	and	a4,a4,a6
   12f2a:	01e7f7b3          	and	a5,a5,t5
   12f2e:	ffff4513          	not	a0,t5
   12f32:	fffec593          	not	a1,t4
   12f36:	fff44313          	not	t1,s0
   12f3a:	fff3c893          	not	a7,t2
   12f3e:	00567633          	and	a2,a2,t0
   12f42:	01f6f6b3          	and	a3,a3,t6
   12f46:	01de7e33          	and	t3,t3,t4
   12f4a:	8e21                	xor	a2,a2,s0
   12f4c:	0076c6b3          	xor	a3,a3,t2
   12f50:	8d61                	and	a0,a0,s0
   12f52:	0075f5b3          	and	a1,a1,t2
   12f56:	0154c433          	xor	s0,s1,s5
   12f5a:	01537333          	and	t1,t1,s5
   12f5e:	014744b3          	xor	s1,a4,s4
   12f62:	0148f8b3          	and	a7,a7,s4
   12f66:	0057c733          	xor	a4,a5,t0
   12f6a:	01fe4e33          	xor	t3,t3,t6
   12f6e:	8f21                	xor	a4,a4,s0
   12f70:	009e4e33          	xor	t3,t3,s1
   12f74:	82a6                	mv	t0,s1
   12f76:	01254533          	xor	a0,a0,s2
   12f7a:	0105c5b3          	xor	a1,a1,a6
   12f7e:	00765993          	srli	s3,a2,0x7
   12f82:	0076d913          	srli	s2,a3,0x7
   12f86:	01769813          	slli	a6,a3,0x17
   12f8a:	01761793          	slli	a5,a2,0x17
   12f8e:	01e34333          	xor	t1,t1,t5
   12f92:	01d8c8b3          	xor	a7,a7,t4
   12f96:	01969493          	slli	s1,a3,0x19
   12f9a:	8ea2                	mv	t4,s0
   12f9c:	00965f13          	srli	t5,a2,0x9
   12fa0:	01961413          	slli	s0,a2,0x19
   12fa4:	0096df93          	srli	t6,a3,0x9
   12fa8:	010f6f33          	or	t5,t5,a6
   12fac:	00ffefb3          	or	t6,t6,a5
   12fb0:	0134e4b3          	or	s1,s1,s3
   12fb4:	01246433          	or	s0,s0,s2
   12fb8:	01f4c4b3          	xor	s1,s1,t6
   12fbc:	01e44433          	xor	s0,s0,t5
   12fc0:	003e1f93          	slli	t6,t3,0x3
   12fc4:	01d75f13          	srli	t5,a4,0x1d
   12fc8:	c816                	sw	t0,16(sp)
   12fca:	00d2ccb3          	xor	s9,t0,a3
   12fce:	019e1d13          	slli	s10,t3,0x19
   12fd2:	00371293          	slli	t0,a4,0x3
   12fd6:	01ff6fb3          	or	t6,t5,t6
   12fda:	01de5f13          	srli	t5,t3,0x1d
   12fde:	8aea                	mv	s5,s10
   12fe0:	005f62b3          	or	t0,t5,t0
   12fe4:	00775f13          	srli	t5,a4,0x7
   12fe8:	015f6f33          	or	t5,t5,s5
   12fec:	00a34333          	xor	t1,t1,a0
   12ff0:	00b8c8b3          	xor	a7,a7,a1
   12ff4:	ca7a                	sw	t5,20(sp)
   12ff6:	01971d13          	slli	s10,a4,0x19
   12ffa:	007e5f13          	srli	t5,t3,0x7
   12ffe:	fff54513          	not	a0,a0
   13002:	fff5c593          	not	a1,a1
   13006:	01af6d33          	or	s10,t5,s10
   1300a:	00a35a93          	srli	s5,t1,0xa
   1300e:	01689f13          	slli	t5,a7,0x16
   13012:	0015db93          	srli	s7,a1,0x1
   13016:	0065d913          	srli	s2,a1,0x6
   1301a:	00a8db13          	srli	s6,a7,0xa
   1301e:	01f51a13          	slli	s4,a0,0x1f
   13022:	01a51813          	slli	a6,a0,0x1a
   13026:	015f6f33          	or	t5,t5,s5
   1302a:	01631a93          	slli	s5,t1,0x16
   1302e:	c676                	sw	t4,12(sp)
   13030:	016aeb33          	or	s6,s5,s6
   13034:	017a6a33          	or	s4,s4,s7
   13038:	00f89a93          	slli	s5,a7,0xf
   1303c:	01135c13          	srli	s8,t1,0x11
   13040:	01286833          	or	a6,a6,s2
   13044:	00cec3b3          	xor	t2,t4,a2
   13048:	018aec33          	or	s8,s5,s8
   1304c:	0118de93          	srli	t4,a7,0x11
   13050:	00f31a93          	slli	s5,t1,0xf
   13054:	010a4833          	xor	a6,s4,a6
   13058:	4a32                	lw	s4,12(sp)
   1305a:	00155d93          	srli	s11,a0,0x1
   1305e:	00655993          	srli	s3,a0,0x6
   13062:	01a59793          	slli	a5,a1,0x1a
   13066:	01daeeb3          	or	t4,s5,t4
   1306a:	01f59a93          	slli	s5,a1,0x1f
   1306e:	01baeab3          	or	s5,s5,s11
   13072:	0137e7b3          	or	a5,a5,s3
   13076:	01a2c2b3          	xor	t0,t0,s10
   1307a:	00fac7b3          	xor	a5,s5,a5
   1307e:	4d52                	lw	s10,20(sp)
   13080:	009a4ab3          	xor	s5,s4,s1
   13084:	4a42                	lw	s4,16(sp)
   13086:	00dc9d93          	slli	s11,s9,0xd
   1308a:	00d39b93          	slli	s7,t2,0xd
   1308e:	0133d993          	srli	s3,t2,0x13
   13092:	013cd913          	srli	s2,s9,0x13
   13096:	013de9b3          	or	s3,s11,s3
   1309a:	012be933          	or	s2,s7,s2
   1309e:	01afcfb3          	xor	t6,t6,s10
   130a2:	01c3db93          	srli	s7,t2,0x1c
   130a6:	018f4f33          	xor	t5,t5,s8
   130aa:	01db4eb3          	xor	t4,s6,t4
   130ae:	01ccdc13          	srli	s8,s9,0x1c
   130b2:	008a4a33          	xor	s4,s4,s0
   130b6:	004c9b13          	slli	s6,s9,0x4
   130ba:	0392                	slli	t2,t2,0x4
   130bc:	00e2c2b3          	xor	t0,t0,a4
   130c0:	01cfcfb3          	xor	t6,t6,t3
   130c4:	017b6b33          	or	s6,s6,s7
   130c8:	0183e3b3          	or	t2,t2,s8
   130cc:	8fa9                	xor	a5,a5,a0
   130ce:	00b84833          	xor	a6,a6,a1
   130d2:	013acab3          	xor	s5,s5,s3
   130d6:	012a4a33          	xor	s4,s4,s2
   130da:	006f4f33          	xor	t5,t5,t1
   130de:	011eceb3          	xor	t4,t4,a7
   130e2:	01f84833          	xor	a6,a6,t6
   130e6:	016acab3          	xor	s5,s5,s6
   130ea:	007a4a33          	xor	s4,s4,t2
   130ee:	8e25                	xor	a2,a2,s1
   130f0:	8ea1                	xor	a3,a3,s0
   130f2:	0057c7b3          	xor	a5,a5,t0
   130f6:	01e64433          	xor	s0,a2,t5
   130fa:	01d6c3b3          	xor	t2,a3,t4
   130fe:	0877c913          	xori	s2,a5,135
   13102:	fff2c493          	not	s1,t0
   13106:	ffffc713          	not	a4,t6
   1310a:	fffac613          	not	a2,s5
   1310e:	fffa4693          	not	a3,s4
   13112:	fff84e13          	not	t3,a6
   13116:	f787c793          	xori	a5,a5,-136
   1311a:	0124f4b3          	and	s1,s1,s2
   1311e:	01077733          	and	a4,a4,a6
   13122:	01e7f7b3          	and	a5,a5,t5
   13126:	ffff4513          	not	a0,t5
   1312a:	fffec593          	not	a1,t4
   1312e:	fff44313          	not	t1,s0
   13132:	fff3c893          	not	a7,t2
   13136:	00567633          	and	a2,a2,t0
   1313a:	01f6f6b3          	and	a3,a3,t6
   1313e:	01de7e33          	and	t3,t3,t4
   13142:	8e21                	xor	a2,a2,s0
   13144:	0076c6b3          	xor	a3,a3,t2
   13148:	8d61                	and	a0,a0,s0
   1314a:	0075f5b3          	and	a1,a1,t2
   1314e:	0154c433          	xor	s0,s1,s5
   13152:	01537333          	and	t1,t1,s5
   13156:	014744b3          	xor	s1,a4,s4
   1315a:	0148f8b3          	and	a7,a7,s4
   1315e:	0057c733          	xor	a4,a5,t0
   13162:	01fe4e33          	xor	t3,t3,t6
   13166:	8f21                	xor	a4,a4,s0
   13168:	009e4e33          	xor	t3,t3,s1
   1316c:	82a6                	mv	t0,s1
   1316e:	01254533          	xor	a0,a0,s2
   13172:	0105c5b3          	xor	a1,a1,a6
   13176:	00765993          	srli	s3,a2,0x7
   1317a:	0076d913          	srli	s2,a3,0x7
   1317e:	01769813          	slli	a6,a3,0x17
   13182:	01761793          	slli	a5,a2,0x17
   13186:	01e34333          	xor	t1,t1,t5
   1318a:	01d8c8b3          	xor	a7,a7,t4
   1318e:	01969493          	slli	s1,a3,0x19
   13192:	8ea2                	mv	t4,s0
   13194:	00965f13          	srli	t5,a2,0x9
   13198:	01961413          	slli	s0,a2,0x19
   1319c:	0096df93          	srli	t6,a3,0x9
   131a0:	010f6f33          	or	t5,t5,a6
   131a4:	00ffefb3          	or	t6,t6,a5
   131a8:	0134e4b3          	or	s1,s1,s3
   131ac:	01246433          	or	s0,s0,s2
   131b0:	01f4c4b3          	xor	s1,s1,t6
   131b4:	01e44433          	xor	s0,s0,t5
   131b8:	003e1f93          	slli	t6,t3,0x3
   131bc:	01d75f13          	srli	t5,a4,0x1d
   131c0:	00d2ccb3          	xor	s9,t0,a3
   131c4:	c816                	sw	t0,16(sp)
   131c6:	019e1d13          	slli	s10,t3,0x19
   131ca:	00371293          	slli	t0,a4,0x3
   131ce:	01ff6fb3          	or	t6,t5,t6
   131d2:	01de5f13          	srli	t5,t3,0x1d
   131d6:	8aea                	mv	s5,s10
   131d8:	005f62b3          	or	t0,t5,t0
   131dc:	00775f13          	srli	t5,a4,0x7
   131e0:	015f6f33          	or	t5,t5,s5
   131e4:	00a34333          	xor	t1,t1,a0
   131e8:	00b8c8b3          	xor	a7,a7,a1
   131ec:	ca7a                	sw	t5,20(sp)
   131ee:	01971d13          	slli	s10,a4,0x19
   131f2:	007e5f13          	srli	t5,t3,0x7
   131f6:	fff54513          	not	a0,a0
   131fa:	fff5c593          	not	a1,a1
   131fe:	01af6d33          	or	s10,t5,s10
   13202:	00a35a93          	srli	s5,t1,0xa
   13206:	01689f13          	slli	t5,a7,0x16
   1320a:	0015db93          	srli	s7,a1,0x1
   1320e:	0065d913          	srli	s2,a1,0x6
   13212:	00a8db13          	srli	s6,a7,0xa
   13216:	01f51a13          	slli	s4,a0,0x1f
   1321a:	01a51813          	slli	a6,a0,0x1a
   1321e:	015f6f33          	or	t5,t5,s5
   13222:	01631a93          	slli	s5,t1,0x16
   13226:	c676                	sw	t4,12(sp)
   13228:	016aeb33          	or	s6,s5,s6
   1322c:	017a6a33          	or	s4,s4,s7
   13230:	00f89a93          	slli	s5,a7,0xf
   13234:	01135c13          	srli	s8,t1,0x11
   13238:	01286833          	or	a6,a6,s2
   1323c:	00cec3b3          	xor	t2,t4,a2
   13240:	018aec33          	or	s8,s5,s8
   13244:	0118de93          	srli	t4,a7,0x11
   13248:	00f31a93          	slli	s5,t1,0xf
   1324c:	010a4833          	xor	a6,s4,a6
   13250:	4a32                	lw	s4,12(sp)
   13252:	00155d93          	srli	s11,a0,0x1
   13256:	00655993          	srli	s3,a0,0x6
   1325a:	01a59793          	slli	a5,a1,0x1a
   1325e:	01daeeb3          	or	t4,s5,t4
   13262:	01f59a93          	slli	s5,a1,0x1f
   13266:	01baeab3          	or	s5,s5,s11
   1326a:	0137e7b3          	or	a5,a5,s3
   1326e:	00fac7b3          	xor	a5,s5,a5
   13272:	009a4ab3          	xor	s5,s4,s1
   13276:	4a42                	lw	s4,16(sp)
   13278:	01a2c2b3          	xor	t0,t0,s10
   1327c:	4d52                	lw	s10,20(sp)
   1327e:	00dc9d93          	slli	s11,s9,0xd
   13282:	00d39b93          	slli	s7,t2,0xd
   13286:	0133d993          	srli	s3,t2,0x13
   1328a:	013cd913          	srli	s2,s9,0x13
   1328e:	013de9b3          	or	s3,s11,s3
   13292:	012be933          	or	s2,s7,s2
   13296:	018f4f33          	xor	t5,t5,s8
   1329a:	01c3db93          	srli	s7,t2,0x1c
   1329e:	01ccdc13          	srli	s8,s9,0x1c
   132a2:	01db4eb3          	xor	t4,s6,t4
   132a6:	008a4a33          	xor	s4,s4,s0
   132aa:	004c9b13          	slli	s6,s9,0x4
   132ae:	0392                	slli	t2,t2,0x4
   132b0:	017b6b33          	or	s6,s6,s7
   132b4:	0183e3b3          	or	t2,t2,s8
   132b8:	01afcfb3          	xor	t6,t6,s10
   132bc:	013acab3          	xor	s5,s5,s3
   132c0:	012a4a33          	xor	s4,s4,s2
   132c4:	00e2c2b3          	xor	t0,t0,a4
   132c8:	01cfcfb3          	xor	t6,t6,t3
   132cc:	006f4f33          	xor	t5,t5,t1
   132d0:	011eceb3          	xor	t4,t4,a7
   132d4:	007a4a33          	xor	s4,s4,t2
   132d8:	016acab3          	xor	s5,s5,s6
   132dc:	8e25                	xor	a2,a2,s1
   132de:	8ea1                	xor	a3,a3,s0
   132e0:	8fa9                	xor	a5,a5,a0
   132e2:	00b84833          	xor	a6,a6,a1
   132e6:	01e64433          	xor	s0,a2,t5
   132ea:	01d6c3b3          	xor	t2,a3,t4
   132ee:	01f84833          	xor	a6,a6,t6
   132f2:	0057c7b3          	xor	a5,a5,t0
   132f6:	fffac613          	not	a2,s5
   132fa:	fffa4693          	not	a3,s4
   132fe:	0787c913          	xori	s2,a5,120
   13302:	fff2c493          	not	s1,t0
   13306:	ffffc713          	not	a4,t6
   1330a:	ffff4513          	not	a0,t5
   1330e:	fffec593          	not	a1,t4
   13312:	fff84e13          	not	t3,a6
   13316:	fff44313          	not	t1,s0
   1331a:	fff3c893          	not	a7,t2
   1331e:	00567633          	and	a2,a2,t0
   13322:	01f6f6b3          	and	a3,a3,t6
   13326:	f877c793          	xori	a5,a5,-121
   1332a:	8e21                	xor	a2,a2,s0
   1332c:	0076c6b3          	xor	a3,a3,t2
   13330:	0124f4b3          	and	s1,s1,s2
   13334:	01077733          	and	a4,a4,a6
   13338:	01e7f7b3          	and	a5,a5,t5
   1333c:	8d61                	and	a0,a0,s0
   1333e:	0075f5b3          	and	a1,a1,t2
   13342:	01de7e33          	and	t3,t3,t4
   13346:	01537333          	and	t1,t1,s5
   1334a:	0148f8b3          	and	a7,a7,s4
   1334e:	01474bb3          	xor	s7,a4,s4
   13352:	0154cb33          	xor	s6,s1,s5
   13356:	01254533          	xor	a0,a0,s2
   1335a:	0105c5b3          	xor	a1,a1,a6
   1335e:	0057c733          	xor	a4,a5,t0
   13362:	01769813          	slli	a6,a3,0x17
   13366:	01761793          	slli	a5,a2,0x17
   1336a:	01fe4e33          	xor	t3,t3,t6
   1336e:	01e34333          	xor	t1,t1,t5
   13372:	01d8c8b3          	xor	a7,a7,t4
   13376:	00765f13          	srli	t5,a2,0x7
   1337a:	0076de93          	srli	t4,a3,0x7
   1337e:	01969993          	slli	s3,a3,0x19
   13382:	01961913          	slli	s2,a2,0x19
   13386:	00965293          	srli	t0,a2,0x9
   1338a:	0096d393          	srli	t2,a3,0x9
   1338e:	01674733          	xor	a4,a4,s6
   13392:	017e4e33          	xor	t3,t3,s7
   13396:	0102e2b3          	or	t0,t0,a6
   1339a:	00f3e3b3          	or	t2,t2,a5
   1339e:	01e9e9b3          	or	s3,s3,t5
   133a2:	01d96933          	or	s2,s2,t4
   133a6:	0079c9b3          	xor	s3,s3,t2
   133aa:	00594933          	xor	s2,s2,t0
   133ae:	003e1393          	slli	t2,t3,0x3
   133b2:	01d75293          	srli	t0,a4,0x1d
   133b6:	019e1c13          	slli	s8,t3,0x19
   133ba:	00371413          	slli	s0,a4,0x3
   133be:	0072e3b3          	or	t2,t0,t2
   133c2:	01de5293          	srli	t0,t3,0x1d
   133c6:	8a62                	mv	s4,s8
   133c8:	0082e433          	or	s0,t0,s0
   133cc:	00775293          	srli	t0,a4,0x7
   133d0:	0142e2b3          	or	t0,t0,s4
   133d4:	00a34333          	xor	t1,t1,a0
   133d8:	00b8c8b3          	xor	a7,a7,a1
   133dc:	c616                	sw	t0,12(sp)
   133de:	01971d13          	slli	s10,a4,0x19
   133e2:	007e5293          	srli	t0,t3,0x7
   133e6:	01a2ed33          	or	s10,t0,s10
   133ea:	00a35a13          	srli	s4,t1,0xa
   133ee:	01689293          	slli	t0,a7,0x16
   133f2:	00a8df93          	srli	t6,a7,0xa
   133f6:	0142e2b3          	or	t0,t0,s4
   133fa:	01631a13          	slli	s4,t1,0x16
   133fe:	01fa6fb3          	or	t6,s4,t6
   13402:	00f89c13          	slli	s8,a7,0xf
   13406:	01135a13          	srli	s4,t1,0x11
   1340a:	c87e                	sw	t6,16(sp)
   1340c:	014c6c33          	or	s8,s8,s4
   13410:	0118df93          	srli	t6,a7,0x11
   13414:	00f31a13          	slli	s4,t1,0xf
   13418:	fff54513          	not	a0,a0
   1341c:	fff5c593          	not	a1,a1
   13420:	01fa6a33          	or	s4,s4,t6
   13424:	ca52                	sw	s4,20(sp)
   13426:	0015df93          	srli	t6,a1,0x1
   1342a:	01f51a13          	slli	s4,a0,0x1f
   1342e:	01fa6a33          	or	s4,s4,t6
   13432:	4fb2                	lw	t6,12(sp)
   13434:	0065de93          	srli	t4,a1,0x6
   13438:	01a51813          	slli	a6,a0,0x1a
   1343c:	01f3c3b3          	xor	t2,t2,t6
   13440:	0182c2b3          	xor	t0,t0,s8
   13444:	4fd2                	lw	t6,20(sp)
   13446:	4c42                	lw	s8,16(sp)
   13448:	00dbccb3          	xor	s9,s7,a3
   1344c:	00cb44b3          	xor	s1,s6,a2
   13450:	00155d93          	srli	s11,a0,0x1
   13454:	00655f13          	srli	t5,a0,0x6
   13458:	01f59a93          	slli	s5,a1,0x1f
   1345c:	01a59793          	slli	a5,a1,0x1a
   13460:	01d86833          	or	a6,a6,t4
   13464:	01baeab3          	or	s5,s5,s11
   13468:	01e7e7b3          	or	a5,a5,t5
   1346c:	00dc9d93          	slli	s11,s9,0xd
   13470:	0134df13          	srli	t5,s1,0x13
   13474:	013cde93          	srli	t4,s9,0x13
   13478:	010a4833          	xor	a6,s4,a6
   1347c:	00d49a13          	slli	s4,s1,0xd
   13480:	013b4b33          	xor	s6,s6,s3
   13484:	012bcbb3          	xor	s7,s7,s2
   13488:	01fc4fb3          	xor	t6,s8,t6
   1348c:	00fac7b3          	xor	a5,s5,a5
   13490:	01ccdc13          	srli	s8,s9,0x1c
   13494:	01c4da93          	srli	s5,s1,0x1c
   13498:	01edef33          	or	t5,s11,t5
   1349c:	01da6eb3          	or	t4,s4,t4
   134a0:	0492                	slli	s1,s1,0x4
   134a2:	004c9a13          	slli	s4,s9,0x4
   134a6:	016f4f33          	xor	t5,t5,s6
   134aa:	017eceb3          	xor	t4,t4,s7
   134ae:	015a6a33          	or	s4,s4,s5
   134b2:	0184e4b3          	or	s1,s1,s8
   134b6:	01a44433          	xor	s0,s0,s10
   134ba:	8c39                	xor	s0,s0,a4
   134bc:	01c3c3b3          	xor	t2,t2,t3
   134c0:	0062c2b3          	xor	t0,t0,t1
   134c4:	011fcfb3          	xor	t6,t6,a7
   134c8:	009ec733          	xor	a4,t4,s1
   134cc:	8fa9                	xor	a5,a5,a0
   134ce:	00b84833          	xor	a6,a6,a1
   134d2:	01364633          	xor	a2,a2,s3
   134d6:	0126c6b3          	xor	a3,a3,s2
   134da:	014f4933          	xor	s2,t5,s4
   134de:	00784833          	xor	a6,a6,t2
   134e2:	00564633          	xor	a2,a2,t0
   134e6:	01f6c6b3          	xor	a3,a3,t6
   134ea:	8fa1                	xor	a5,a5,s0
   134ec:	fff94f13          	not	t5,s2
   134f0:	fff74e93          	not	t4,a4
   134f4:	0697ca13          	xori	s4,a5,105
   134f8:	fff44993          	not	s3,s0
   134fc:	fff3c493          	not	s1,t2
   13500:	ffffc593          	not	a1,t6
   13504:	fff84e13          	not	t3,a6
   13508:	fff64313          	not	t1,a2
   1350c:	fff6c893          	not	a7,a3
   13510:	008f7f33          	and	t5,t5,s0
   13514:	007efeb3          	and	t4,t4,t2
   13518:	f967c793          	xori	a5,a5,-106
   1351c:	00cf4f33          	xor	t5,t5,a2
   13520:	00deceb3          	xor	t4,t4,a3
   13524:	0149f9b3          	and	s3,s3,s4
   13528:	0104f4b3          	and	s1,s1,a6
   1352c:	0057f7b3          	and	a5,a5,t0
   13530:	fff2c513          	not	a0,t0
   13534:	8df5                	and	a1,a1,a3
   13536:	01fe7e33          	and	t3,t3,t6
   1353a:	01237333          	and	t1,t1,s2
   1353e:	00e8f8b3          	and	a7,a7,a4
   13542:	00e4cbb3          	xor	s7,s1,a4
   13546:	0129cb33          	xor	s6,s3,s2
   1354a:	0105c5b3          	xor	a1,a1,a6
   1354e:	0087c733          	xor	a4,a5,s0
   13552:	017e9813          	slli	a6,t4,0x17
   13556:	017f1793          	slli	a5,t5,0x17
   1355a:	8d71                	and	a0,a0,a2
   1355c:	007e4e33          	xor	t3,t3,t2
   13560:	00534333          	xor	t1,t1,t0
   13564:	01f8c8b3          	xor	a7,a7,t6
   13568:	007f5293          	srli	t0,t5,0x7
   1356c:	007edf93          	srli	t6,t4,0x7
   13570:	019e9613          	slli	a2,t4,0x19
   13574:	019f1693          	slli	a3,t5,0x19
   13578:	009f5413          	srli	s0,t5,0x9
   1357c:	009ed493          	srli	s1,t4,0x9
   13580:	01674733          	xor	a4,a4,s6
   13584:	017e4e33          	xor	t3,t3,s7
   13588:	01046433          	or	s0,s0,a6
   1358c:	8cdd                	or	s1,s1,a5
   1358e:	00566633          	or	a2,a2,t0
   13592:	01f6e6b3          	or	a3,a3,t6
   13596:	8e25                	xor	a2,a2,s1
   13598:	8ea1                	xor	a3,a3,s0
   1359a:	003e1493          	slli	s1,t3,0x3
   1359e:	01d75413          	srli	s0,a4,0x1d
   135a2:	019e1c13          	slli	s8,t3,0x19
   135a6:	00371913          	slli	s2,a4,0x3
   135aa:	8cc1                	or	s1,s1,s0
   135ac:	01de5413          	srli	s0,t3,0x1d
   135b0:	01454533          	xor	a0,a0,s4
   135b4:	01246933          	or	s2,s0,s2
   135b8:	8a62                	mv	s4,s8
   135ba:	00775413          	srli	s0,a4,0x7
   135be:	01446433          	or	s0,s0,s4
   135c2:	c622                	sw	s0,12(sp)
   135c4:	00a34333          	xor	t1,t1,a0
   135c8:	00b8c8b3          	xor	a7,a7,a1
   135cc:	007e5413          	srli	s0,t3,0x7
   135d0:	01971d13          	slli	s10,a4,0x19
   135d4:	01a46d33          	or	s10,s0,s10
   135d8:	00a35a13          	srli	s4,t1,0xa
   135dc:	01689413          	slli	s0,a7,0x16
   135e0:	00a8d393          	srli	t2,a7,0xa
   135e4:	01446433          	or	s0,s0,s4
   135e8:	01631a13          	slli	s4,t1,0x16
   135ec:	007a63b3          	or	t2,s4,t2
   135f0:	00f89c13          	slli	s8,a7,0xf
   135f4:	01135a13          	srli	s4,t1,0x11
   135f8:	c81e                	sw	t2,16(sp)
   135fa:	014c6c33          	or	s8,s8,s4
   135fe:	0118d393          	srli	t2,a7,0x11
   13602:	00f31a13          	slli	s4,t1,0xf
   13606:	fff54513          	not	a0,a0
   1360a:	fff5c593          	not	a1,a1
   1360e:	007a6a33          	or	s4,s4,t2
   13612:	ca52                	sw	s4,20(sp)
   13614:	0015d393          	srli	t2,a1,0x1
   13618:	01f51a13          	slli	s4,a0,0x1f
   1361c:	007a6a33          	or	s4,s4,t2
   13620:	43b2                	lw	t2,12(sp)
   13622:	0065df93          	srli	t6,a1,0x6
   13626:	01a51813          	slli	a6,a0,0x1a
   1362a:	0074c4b3          	xor	s1,s1,t2
   1362e:	01844433          	xor	s0,s0,s8
   13632:	43d2                	lw	t2,20(sp)
   13634:	4c42                	lw	s8,16(sp)
   13636:	01dbccb3          	xor	s9,s7,t4
   1363a:	01eb49b3          	xor	s3,s6,t5
   1363e:	00155d93          	srli	s11,a0,0x1
   13642:	00655293          	srli	t0,a0,0x6
   13646:	01f59a93          	slli	s5,a1,0x1f
   1364a:	01a59793          	slli	a5,a1,0x1a
   1364e:	01f86833          	or	a6,a6,t6
   13652:	01baeab3          	or	s5,s5,s11
   13656:	0057e7b3          	or	a5,a5,t0
   1365a:	00dc9d93          	slli	s11,s9,0xd
   1365e:	0139d293          	srli	t0,s3,0x13
   13662:	013cdf93          	srli	t6,s9,0x13
   13666:	010a4833          	xor	a6,s4,a6
   1366a:	00d99a13          	slli	s4,s3,0xd
   1366e:	01664b33          	xor	s6,a2,s6
   13672:	0176cbb3          	xor	s7,a3,s7
   13676:	007c43b3          	xor	t2,s8,t2
   1367a:	00fac7b3          	xor	a5,s5,a5
   1367e:	01ccdc13          	srli	s8,s9,0x1c
   13682:	01c9da93          	srli	s5,s3,0x1c
   13686:	005de2b3          	or	t0,s11,t0
   1368a:	01fa6fb3          	or	t6,s4,t6
   1368e:	0992                	slli	s3,s3,0x4
   13690:	004c9a13          	slli	s4,s9,0x4
   13694:	015a6a33          	or	s4,s4,s5
   13698:	0189e9b3          	or	s3,s3,s8
   1369c:	01a94933          	xor	s2,s2,s10
   136a0:	0162c2b3          	xor	t0,t0,s6
   136a4:	017fcfb3          	xor	t6,t6,s7
   136a8:	00e94933          	xor	s2,s2,a4
   136ac:	01c4c4b3          	xor	s1,s1,t3
   136b0:	0113c3b3          	xor	t2,t2,a7
   136b4:	013fcfb3          	xor	t6,t6,s3
   136b8:	0142c2b3          	xor	t0,t0,s4
   136bc:	8fa9                	xor	a5,a5,a0
   136be:	00b84833          	xor	a6,a6,a1
   136c2:	01d6c6b3          	xor	a3,a3,t4
   136c6:	00644433          	xor	s0,s0,t1
   136ca:	00984833          	xor	a6,a6,s1
   136ce:	0076c6b3          	xor	a3,a3,t2
   136d2:	0127c7b3          	xor	a5,a5,s2
   136d6:	01e64633          	xor	a2,a2,t5
   136da:	fff2ca13          	not	s4,t0
   136de:	ffffcf13          	not	t5,t6
   136e2:	8e21                	xor	a2,a2,s0
   136e4:	05a7c993          	xori	s3,a5,90
   136e8:	012a7a33          	and	s4,s4,s2
   136ec:	009f7f33          	and	t5,t5,s1
   136f0:	fff94e93          	not	t4,s2
   136f4:	fff4c713          	not	a4,s1
   136f8:	fff44513          	not	a0,s0
   136fc:	fff3c593          	not	a1,t2
   13700:	fff84e13          	not	t3,a6
   13704:	fff6c893          	not	a7,a3
   13708:	fa57c793          	xori	a5,a5,-91
   1370c:	013efeb3          	and	t4,t4,s3
   13710:	01077733          	and	a4,a4,a6
   13714:	fff64313          	not	t1,a2
   13718:	8d71                	and	a0,a0,a2
   1371a:	8df5                	and	a1,a1,a3
   1371c:	00ca4633          	xor	a2,s4,a2
   13720:	00df46b3          	xor	a3,t5,a3
   13724:	8fe1                	and	a5,a5,s0
   13726:	007e7e33          	and	t3,t3,t2
   1372a:	01f8f8b3          	and	a7,a7,t6
   1372e:	005ecb33          	xor	s6,t4,t0
   13732:	01f74bb3          	xor	s7,a4,t6
   13736:	01354533          	xor	a0,a0,s3
   1373a:	0105c5b3          	xor	a1,a1,a6
   1373e:	00765f13          	srli	t5,a2,0x7
   13742:	0076de93          	srli	t4,a3,0x7
   13746:	01769813          	slli	a6,a3,0x17
   1374a:	01761713          	slli	a4,a2,0x17
   1374e:	00537333          	and	t1,t1,t0
   13752:	0127c7b3          	xor	a5,a5,s2
   13756:	009e4e33          	xor	t3,t3,s1
   1375a:	0078c8b3          	xor	a7,a7,t2
   1375e:	01969993          	slli	s3,a3,0x19
   13762:	01961913          	slli	s2,a2,0x19
   13766:	00965293          	srli	t0,a2,0x9
   1376a:	0096d393          	srli	t2,a3,0x9
   1376e:	0167c7b3          	xor	a5,a5,s6
   13772:	017e4e33          	xor	t3,t3,s7
   13776:	0102e2b3          	or	t0,t0,a6
   1377a:	00e3e3b3          	or	t2,t2,a4
   1377e:	01e9e9b3          	or	s3,s3,t5
   13782:	01d96933          	or	s2,s2,t4
   13786:	0079c9b3          	xor	s3,s3,t2
   1378a:	00594933          	xor	s2,s2,t0
   1378e:	003e1393          	slli	t2,t3,0x3
   13792:	01d7d293          	srli	t0,a5,0x1d
   13796:	019e1c13          	slli	s8,t3,0x19
   1379a:	00834333          	xor	t1,t1,s0
   1379e:	0072e3b3          	or	t2,t0,t2
   137a2:	00379413          	slli	s0,a5,0x3
   137a6:	01de5293          	srli	t0,t3,0x1d
   137aa:	8a62                	mv	s4,s8
   137ac:	0082e433          	or	s0,t0,s0
   137b0:	0077d293          	srli	t0,a5,0x7
   137b4:	0142e2b3          	or	t0,t0,s4
   137b8:	00a34333          	xor	t1,t1,a0
   137bc:	00b8c8b3          	xor	a7,a7,a1
   137c0:	c616                	sw	t0,12(sp)
   137c2:	01979d13          	slli	s10,a5,0x19
   137c6:	007e5293          	srli	t0,t3,0x7
   137ca:	01a2ed33          	or	s10,t0,s10
   137ce:	00a35a13          	srli	s4,t1,0xa
   137d2:	01689293          	slli	t0,a7,0x16
   137d6:	00a8df93          	srli	t6,a7,0xa
   137da:	0142e2b3          	or	t0,t0,s4
   137de:	01631a13          	slli	s4,t1,0x16
   137e2:	01fa6fb3          	or	t6,s4,t6
   137e6:	01135c13          	srli	s8,t1,0x11
   137ea:	00f89a13          	slli	s4,a7,0xf
   137ee:	c87e                	sw	t6,16(sp)
   137f0:	018a6c33          	or	s8,s4,s8
   137f4:	0118df93          	srli	t6,a7,0x11
   137f8:	00f31a13          	slli	s4,t1,0xf
   137fc:	fff54513          	not	a0,a0
   13800:	fff5c593          	not	a1,a1
   13804:	01fa6a33          	or	s4,s4,t6
   13808:	ca52                	sw	s4,20(sp)
   1380a:	0015df93          	srli	t6,a1,0x1
   1380e:	01f51a13          	slli	s4,a0,0x1f
   13812:	01fa6a33          	or	s4,s4,t6
   13816:	4fb2                	lw	t6,12(sp)
   13818:	0065de93          	srli	t4,a1,0x6
   1381c:	01a51813          	slli	a6,a0,0x1a
   13820:	01f3c3b3          	xor	t2,t2,t6
   13824:	0182c2b3          	xor	t0,t0,s8
   13828:	4fd2                	lw	t6,20(sp)
   1382a:	4c42                	lw	s8,16(sp)
   1382c:	00dbccb3          	xor	s9,s7,a3
   13830:	00cb44b3          	xor	s1,s6,a2
   13834:	00155d93          	srli	s11,a0,0x1
   13838:	00655f13          	srli	t5,a0,0x6
   1383c:	01f59a93          	slli	s5,a1,0x1f
   13840:	01a59713          	slli	a4,a1,0x1a
   13844:	01d86833          	or	a6,a6,t4
   13848:	01baeab3          	or	s5,s5,s11
   1384c:	01e76733          	or	a4,a4,t5
   13850:	00dc9d93          	slli	s11,s9,0xd
   13854:	0134df13          	srli	t5,s1,0x13
   13858:	013cde93          	srli	t4,s9,0x13
   1385c:	010a4833          	xor	a6,s4,a6
   13860:	00d49a13          	slli	s4,s1,0xd
   13864:	013b4b33          	xor	s6,s6,s3
   13868:	012bcbb3          	xor	s7,s7,s2
   1386c:	01a44433          	xor	s0,s0,s10
   13870:	01fc4fb3          	xor	t6,s8,t6
   13874:	00eac733          	xor	a4,s5,a4
   13878:	01ccdc13          	srli	s8,s9,0x1c
   1387c:	01c4da93          	srli	s5,s1,0x1c
   13880:	01edef33          	or	t5,s11,t5
   13884:	01da6eb3          	or	t4,s4,t4
   13888:	0492                	slli	s1,s1,0x4
   1388a:	004c9a13          	slli	s4,s9,0x4
   1388e:	8c3d                	xor	s0,s0,a5
   13890:	01c3c3b3          	xor	t2,t2,t3
   13894:	016f4f33          	xor	t5,t5,s6
   13898:	017eceb3          	xor	t4,t4,s7
   1389c:	015a67b3          	or	a5,s4,s5
   138a0:	0184e4b3          	or	s1,s1,s8
   138a4:	8f29                	xor	a4,a4,a0
   138a6:	00b84833          	xor	a6,a6,a1
   138aa:	0062c2b3          	xor	t0,t0,t1
   138ae:	011fcfb3          	xor	t6,t6,a7
   138b2:	007845b3          	xor	a1,a6,t2
   138b6:	00ff4a33          	xor	s4,t5,a5
   138ba:	0126c6b3          	xor	a3,a3,s2
   138be:	8f21                	xor	a4,a4,s0
   138c0:	009ec933          	xor	s2,t4,s1
   138c4:	01364633          	xor	a2,a2,s3
   138c8:	01f6c7b3          	xor	a5,a3,t6
   138cc:	00564633          	xor	a2,a2,t0
   138d0:	04b74693          	xori	a3,a4,75
   138d4:	fff44313          	not	t1,s0
   138d8:	fff3c893          	not	a7,t2
   138dc:	fff2c813          	not	a6,t0
   138e0:	fffa4993          	not	s3,s4
   138e4:	fff94493          	not	s1,s2
   138e8:	fff5cf13          	not	t5,a1
   138ec:	fb474713          	xori	a4,a4,-76
   138f0:	00577733          	and	a4,a4,t0
   138f4:	fff64e93          	not	t4,a2
   138f8:	00d37333          	and	t1,t1,a3
   138fc:	00b8f8b3          	and	a7,a7,a1
   13900:	00c87833          	and	a6,a6,a2
   13904:	0089f9b3          	and	s3,s3,s0
   13908:	0074f4b3          	and	s1,s1,t2
   1390c:	01ff7f33          	and	t5,t5,t6
   13910:	00c9c9b3          	xor	s3,s3,a2
   13914:	8cbd                	xor	s1,s1,a5
   13916:	01434333          	xor	t1,t1,s4
   1391a:	0128c8b3          	xor	a7,a7,s2
   1391e:	00d84833          	xor	a6,a6,a3
   13922:	014efeb3          	and	t4,t4,s4
   13926:	008746b3          	xor	a3,a4,s0
   1392a:	007f4f33          	xor	t5,t5,t2
   1392e:	011f4f33          	xor	t5,t5,a7
   13932:	ffffc513          	not	a0,t6
   13936:	0098c8b3          	xor	a7,a7,s1
   1393a:	005eceb3          	xor	t4,t4,t0
   1393e:	0066c2b3          	xor	t0,a3,t1
   13942:	01334333          	xor	t1,t1,s3
   13946:	fff7ce13          	not	t3,a5
   1394a:	8d7d                	and	a0,a0,a5
   1394c:	00d89693          	slli	a3,a7,0xd
   13950:	01335793          	srli	a5,t1,0x13
   13954:	8fd5                	or	a5,a5,a3
   13956:	012e7e33          	and	t3,t3,s2
   1395a:	cc3e                	sw	a5,24(sp)
   1395c:	00d31713          	slli	a4,t1,0xd
   13960:	0138d793          	srli	a5,a7,0x13
   13964:	01fe4e33          	xor	t3,t3,t6
   13968:	8f5d                	or	a4,a4,a5
   1396a:	01c35f93          	srli	t6,t1,0x1c
   1396e:	00489793          	slli	a5,a7,0x4
   13972:	01f7e7b3          	or	a5,a5,t6
   13976:	00431693          	slli	a3,t1,0x4
   1397a:	01c8df93          	srli	t6,a7,0x1c
   1397e:	0072d913          	srli	s2,t0,0x7
   13982:	01f6efb3          	or	t6,a3,t6
   13986:	01d2dd93          	srli	s11,t0,0x1d
   1398a:	003f1693          	slli	a3,t5,0x3
   1398e:	c64a                	sw	s2,12(sp)
   13990:	01929a93          	slli	s5,t0,0x19
   13994:	00ddedb3          	or	s11,s11,a3
   13998:	00329393          	slli	t2,t0,0x3
   1399c:	01df5693          	srli	a3,t5,0x1d
   139a0:	c856                	sw	s5,16(sp)
   139a2:	0076e3b3          	or	t2,a3,t2
   139a6:	46b2                	lw	a3,12(sp)
   139a8:	ce7e                	sw	t6,28(sp)
   139aa:	4fc2                	lw	t6,16(sp)
   139ac:	8d2d                	xor	a0,a0,a1
   139ae:	019f1d13          	slli	s10,t5,0x19
   139b2:	010eceb3          	xor	t4,t4,a6
   139b6:	00ae4e33          	xor	t3,t3,a0
   139ba:	fff84813          	not	a6,a6
   139be:	fff54513          	not	a0,a0
   139c2:	01a6ed33          	or	s10,a3,s10
   139c6:	007f5693          	srli	a3,t5,0x7
   139ca:	01f6efb3          	or	t6,a3,t6
   139ce:	00185c93          	srli	s9,a6,0x1
   139d2:	01f51693          	slli	a3,a0,0x1f
   139d6:	0196ecb3          	or	s9,a3,s9
   139da:	00155c13          	srli	s8,a0,0x1
   139de:	01f81693          	slli	a3,a6,0x1f
   139e2:	0186ec33          	or	s8,a3,s8
   139e6:	00685613          	srli	a2,a6,0x6
   139ea:	01a51693          	slli	a3,a0,0x1a
   139ee:	ca16                	sw	t0,20(sp)
   139f0:	8e55                	or	a2,a2,a3
   139f2:	00655293          	srli	t0,a0,0x6
   139f6:	01a81693          	slli	a3,a6,0x1a
   139fa:	0056e2b3          	or	t0,a3,t0
   139fe:	00aedb93          	srli	s7,t4,0xa
   13a02:	016e1693          	slli	a3,t3,0x16
   13a06:	0176ebb3          	or	s7,a3,s7
   13a0a:	00ae5b13          	srli	s6,t3,0xa
   13a0e:	016e9693          	slli	a3,t4,0x16
   13a12:	0166eb33          	or	s6,a3,s6
   13a16:	011ed413          	srli	s0,t4,0x11
   13a1a:	00fe1693          	slli	a3,t3,0xf
   13a1e:	8c55                	or	s0,s0,a3
   13a20:	011e5913          	srli	s2,t3,0x11
   13a24:	00fe9693          	slli	a3,t4,0xf
   13a28:	0126e933          	or	s2,a3,s2
   13a2c:	0079da93          	srli	s5,s3,0x7
   13a30:	01949693          	slli	a3,s1,0x19
   13a34:	0156eab3          	or	s5,a3,s5
   13a38:	0074da13          	srli	s4,s1,0x7
   13a3c:	01999693          	slli	a3,s3,0x19
   13a40:	0146ea33          	or	s4,a3,s4
   13a44:	01749593          	slli	a1,s1,0x17
   13a48:	0099d693          	srli	a3,s3,0x9
   13a4c:	c67e                	sw	t6,12(sp)
   13a4e:	8dd5                	or	a1,a1,a3
   13a50:	01799f93          	slli	t6,s3,0x17
   13a54:	0094d693          	srli	a3,s1,0x9
   13a58:	01f6efb3          	or	t6,a3,t6
   13a5c:	46e2                	lw	a3,24(sp)
   13a5e:	00ba45b3          	xor	a1,s4,a1
   13a62:	008bcbb3          	xor	s7,s7,s0
   13a66:	8fb5                	xor	a5,a5,a3
   13a68:	46f2                	lw	a3,28(sp)
   13a6a:	01adcd33          	xor	s10,s11,s10
   13a6e:	00ccc633          	xor	a2,s9,a2
   13a72:	8f35                	xor	a4,a4,a3
   13a74:	46b2                	lw	a3,12(sp)
   13a76:	012b4b33          	xor	s6,s6,s2
   13a7a:	01facab3          	xor	s5,s5,t6
   13a7e:	00d3c3b3          	xor	t2,t2,a3
   13a82:	56d2                	lw	a3,52(sp)
   13a84:	005c42b3          	xor	t0,s8,t0
   13a88:	01064fb3          	xor	t6,a2,a6
   13a8c:	00868a13          	addi	s4,a3,8
   13a90:	46d2                	lw	a3,20(sp)
   13a92:	da52                	sw	s4,52(sp)
   13a94:	0067c7b3          	xor	a5,a5,t1
   13a98:	00d3c433          	xor	s0,t2,a3
   13a9c:	5682                	lw	a3,32(sp)
   13a9e:	01174733          	xor	a4,a4,a7
   13aa2:	01ed4933          	xor	s2,s10,t5
   13aa6:	00a2c2b3          	xor	t0,t0,a0
   13aaa:	01dbc633          	xor	a2,s7,t4
   13aae:	01cb43b3          	xor	t2,s6,t3
   13ab2:	013acdb3          	xor	s11,s5,s3
   13ab6:	8da5                	xor	a1,a1,s1
   13ab8:	80da1c63          	bne	s4,a3,12ad0 <crypto_hash+0x28f0>
   13abc:	85d2                	mv	a1,s4
   13abe:	03800693          	li	a3,56
   13ac2:	00171e13          	slli	t3,a4,0x1
   13ac6:	437d                	li	t1,31
   13ac8:	58e1                	li	a7,-8
   13aca:	40d30633          	sub	a2,t1,a3
   13ace:	00d7d533          	srl	a0,a5,a3
   13ad2:	00ce1633          	sll	a2,t3,a2
   13ad6:	fe068813          	addi	a6,a3,-32
   13ada:	8d51                	or	a0,a0,a2
   13adc:	00084463          	bltz	a6,13ae4 <crypto_hash+0x3904>
   13ae0:	01075533          	srl	a0,a4,a6
   13ae4:	00a58023          	sb	a0,0(a1)
   13ae8:	16e1                	addi	a3,a3,-8
   13aea:	0585                	addi	a1,a1,1
   13aec:	fd169fe3          	bne	a3,a7,13aca <crypto_hash+0x38ea>
   13af0:	5436                	lw	s0,108(sp)
   13af2:	54a6                	lw	s1,104(sp)
   13af4:	5916                	lw	s2,100(sp)
   13af6:	5986                	lw	s3,96(sp)
   13af8:	4a76                	lw	s4,92(sp)
   13afa:	4ae6                	lw	s5,88(sp)
   13afc:	4b56                	lw	s6,84(sp)
   13afe:	4bc6                	lw	s7,80(sp)
   13b00:	4c36                	lw	s8,76(sp)
   13b02:	4ca6                	lw	s9,72(sp)
   13b04:	4d16                	lw	s10,68(sp)
   13b06:	4d86                	lw	s11,64(sp)
   13b08:	4501                	li	a0,0
   13b0a:	6165                	addi	sp,sp,112
   13b0c:	8082                	ret
   13b0e:	487d                	li	a6,31
   13b10:	40d80833          	sub	a6,a6,a3
   13b14:	04000613          	li	a2,64
   13b18:	01065633          	srl	a2,a2,a6
   13b1c:	08000813          	li	a6,128
   13b20:	00d816b3          	sll	a3,a6,a3
   13b24:	8e3fd06f          	j	11406 <crypto_hash+0x1226>
   13b28:	4e81                	li	t4,0
   13b2a:	4e01                	li	t3,0
   13b2c:	8bdfd06f          	j	113e8 <crypto_hash+0x1208>
   13b30:	479d                	li	a5,7
   13b32:	00c7f463          	bgeu	a5,a2,13b3a <crypto_hash+0x395a>
   13b36:	ed2fc06f          	j	10208 <crypto_hash+0x28>
   13b3a:	9a0ec6b7          	lui	a3,0x9a0ec
   13b3e:	67768693          	addi	a3,a3,1655 # 9a0ec677 <__BSS_END__+0x9a0cca73>
   13b42:	41d8d637          	lui	a2,0x41d8d
   13b46:	a3134837          	lui	a6,0xa3134
   13b4a:	ce36                	sw	a3,28(sp)
   13b4c:	eff60693          	addi	a3,a2,-257 # 41d8ceff <__BSS_END__+0x41d6d2fb>
   13b50:	77cae8b7          	lui	a7,0x77cae
   13b54:	f94e2e37          	lui	t3,0xf94e2
   13b58:	cc36                	sw	a3,24(sp)
   13b5a:	50580693          	addi	a3,a6,1285 # a3134505 <__BSS_END__+0xa3114901>
   13b5e:	dfdba437          	lui	s0,0xdfdba
   13b62:	a07b4937          	lui	s2,0xa07b4
   13b66:	d32589b7          	lui	s3,0xd3258
   13b6a:	aab8ca37          	lui	s4,0xaab8c
   13b6e:	29c46d37          	lui	s10,0x29c46
   13b72:	5388bc37          	lui	s8,0x5388b
   13b76:	83b1adb7          	lui	s11,0x83b1a
   13b7a:	883525b7          	lui	a1,0x88352
   13b7e:	93add4b7          	lui	s1,0x93add
   13b82:	f13e42b7          	lui	t0,0xf13e4
   13b86:	2c520337          	lui	t1,0x2c520
   13b8a:	0c402537          	lui	a0,0xc402
   13b8e:	5ceccfb7          	lui	t6,0x5cecc
   13b92:	c0ae0737          	lui	a4,0xc0ae0
   13b96:	738ec7b7          	lui	a5,0x738ec
   13b9a:	2c1e0e13          	addi	t3,t3,705 # f94e22c1 <__BSS_END__+0xf94c26bd>
   13b9e:	ca36                	sw	a3,20(sp)
   13ba0:	7ef88693          	addi	a3,a7,2031 # 77cae7ef <__BSS_END__+0x77c8ebeb>
   13ba4:	52140413          	addi	s0,s0,1313 # dfdba521 <__BSS_END__+0xdfd9a91d>
   13ba8:	33690913          	addi	s2,s2,822 # a07b4336 <__BSS_END__+0xa0794732>
   13bac:	8e498993          	addi	s3,s3,-1820 # d32578e4 <__BSS_END__+0xd3237ce0>
   13bb0:	74ca0a13          	addi	s4,s4,1868 # aab8c74c <__BSS_END__+0xaab6cb48>
   13bb4:	c672                	sw	t3,12(sp)
   13bb6:	833d0d13          	addi	s10,s10,-1997 # 29c45833 <__BSS_END__+0x29c25c2f>
   13bba:	066c0c13          	addi	s8,s8,102 # 5388b066 <__BSS_END__+0x5386b462>
   13bbe:	dfed8d93          	addi	s11,s11,-514 # 83b19dfe <__BSS_END__+0x83afa1fa>
   13bc2:	81058593          	addi	a1,a1,-2032 # 88351810 <__BSS_END__+0x88331c0c>
   13bc6:	fc348493          	addi	s1,s1,-61 # 93adcfc3 <__BSS_END__+0x93abd3bf>
   13bca:	6c628293          	addi	t0,t0,1734 # f13e46c6 <__BSS_END__+0xf13c4ac2>
   13bce:	0361                	addi	t1,t1,24 # 2c520018 <__BSS_END__+0x2c500414>
   13bd0:	02150513          	addi	a0,a0,33 # c402021 <__BSS_END__+0xc3e241d>
   13bd4:	afaf8f93          	addi	t6,t6,-1286 # 5cecbafa <__BSS_END__+0x5ceabef6>
   13bd8:	c836                	sw	a3,16(sp)
   13bda:	fa770713          	addi	a4,a4,-89 # c0adffa7 <__BSS_END__+0xc0ac03a3>
   13bde:	38a78793          	addi	a5,a5,906 # 738ec38a <__BSS_END__+0x738cc786>
   13be2:	fa6fd06f          	j	11388 <crypto_hash+0x11a8>

00013be6 <__fp_lock>:
   13be6:	4501                	li	a0,0
   13be8:	8082                	ret

00013bea <stdio_exit_handler>:
   13bea:	0001f637          	lui	a2,0x1f
   13bee:	65dd                	lui	a1,0x17
   13bf0:	0001f537          	lui	a0,0x1f
   13bf4:	1b860613          	addi	a2,a2,440 # 1f1b8 <__sglue>
   13bf8:	9a858593          	addi	a1,a1,-1624 # 169a8 <_fclose_r>
   13bfc:	1c850513          	addi	a0,a0,456 # 1f1c8 <_impure_data>
   13c00:	a485                	j	13e60 <_fwalk_sglue>

00013c02 <cleanup_stdio>:
   13c02:	414c                	lw	a1,4(a0)
   13c04:	1141                	addi	sp,sp,-16
   13c06:	c422                	sw	s0,8(sp)
   13c08:	c606                	sw	ra,12(sp)
   13c0a:	f5c18793          	addi	a5,gp,-164 # 1f914 <__sf>
   13c0e:	842a                	mv	s0,a0
   13c10:	00f58463          	beq	a1,a5,13c18 <cleanup_stdio+0x16>
   13c14:	595020ef          	jal	169a8 <_fclose_r>
   13c18:	440c                	lw	a1,8(s0)
   13c1a:	fc418793          	addi	a5,gp,-60 # 1f97c <__sf+0x68>
   13c1e:	00f58563          	beq	a1,a5,13c28 <cleanup_stdio+0x26>
   13c22:	8522                	mv	a0,s0
   13c24:	585020ef          	jal	169a8 <_fclose_r>
   13c28:	444c                	lw	a1,12(s0)
   13c2a:	02c18793          	addi	a5,gp,44 # 1f9e4 <__global_pointer$+0x2c>
   13c2e:	00f58863          	beq	a1,a5,13c3e <cleanup_stdio+0x3c>
   13c32:	8522                	mv	a0,s0
   13c34:	4422                	lw	s0,8(sp)
   13c36:	40b2                	lw	ra,12(sp)
   13c38:	0141                	addi	sp,sp,16
   13c3a:	56f0206f          	j	169a8 <_fclose_r>
   13c3e:	40b2                	lw	ra,12(sp)
   13c40:	4422                	lw	s0,8(sp)
   13c42:	0141                	addi	sp,sp,16
   13c44:	8082                	ret

00013c46 <__fp_unlock>:
   13c46:	4501                	li	a0,0
   13c48:	8082                	ret

00013c4a <global_stdio_init.part.0>:
   13c4a:	1101                	addi	sp,sp,-32
   13c4c:	67d1                	lui	a5,0x14
   13c4e:	cc22                	sw	s0,24(sp)
   13c50:	bea78793          	addi	a5,a5,-1046 # 13bea <stdio_exit_handler>
   13c54:	f5c18413          	addi	s0,gp,-164 # 1f914 <__sf>
   13c58:	ce06                	sw	ra,28(sp)
   13c5a:	ca26                	sw	s1,20(sp)
   13c5c:	c84a                	sw	s2,16(sp)
   13c5e:	c64e                	sw	s3,12(sp)
   13c60:	c452                	sw	s4,8(sp)
   13c62:	f2f1a023          	sw	a5,-224(gp) # 1f8d8 <__stdio_exit_handler>
   13c66:	4621                	li	a2,8
   13c68:	4791                	li	a5,4
   13c6a:	4581                	li	a1,0
   13c6c:	fb818513          	addi	a0,gp,-72 # 1f970 <__sf+0x5c>
   13c70:	c45c                	sw	a5,12(s0)
   13c72:	00042023          	sw	zero,0(s0)
   13c76:	00042223          	sw	zero,4(s0)
   13c7a:	00042423          	sw	zero,8(s0)
   13c7e:	06042223          	sw	zero,100(s0)
   13c82:	00042823          	sw	zero,16(s0)
   13c86:	00042a23          	sw	zero,20(s0)
   13c8a:	00042c23          	sw	zero,24(s0)
   13c8e:	2dbd                	jal	1430c <memset>
   13c90:	67c1                	lui	a5,0x10
   13c92:	6a51                	lui	s4,0x14
   13c94:	69d1                	lui	s3,0x14
   13c96:	6951                	lui	s2,0x14
   13c98:	64d1                	lui	s1,0x14
   13c9a:	05ca0a13          	addi	s4,s4,92 # 1405c <__sread>
   13c9e:	09698993          	addi	s3,s3,150 # 14096 <__swrite>
   13ca2:	0e690913          	addi	s2,s2,230 # 140e6 <__sseek>
   13ca6:	12e48493          	addi	s1,s1,302 # 1412e <__sclose>
   13caa:	07a5                	addi	a5,a5,9 # 10009 <exit-0x8b>
   13cac:	4621                	li	a2,8
   13cae:	4581                	li	a1,0
   13cb0:	02018513          	addi	a0,gp,32 # 1f9d8 <__global_pointer$+0x20>
   13cb4:	03442023          	sw	s4,32(s0)
   13cb8:	03342223          	sw	s3,36(s0)
   13cbc:	03242423          	sw	s2,40(s0)
   13cc0:	d444                	sw	s1,44(s0)
   13cc2:	d87c                	sw	a5,116(s0)
   13cc4:	cc40                	sw	s0,28(s0)
   13cc6:	06042423          	sw	zero,104(s0)
   13cca:	06042623          	sw	zero,108(s0)
   13cce:	06042823          	sw	zero,112(s0)
   13cd2:	0c042623          	sw	zero,204(s0)
   13cd6:	06042c23          	sw	zero,120(s0)
   13cda:	06042e23          	sw	zero,124(s0)
   13cde:	08042023          	sw	zero,128(s0)
   13ce2:	252d                	jal	1430c <memset>
   13ce4:	000207b7          	lui	a5,0x20
   13ce8:	07c9                	addi	a5,a5,18 # 20012 <__BSS_END__+0x40e>
   13cea:	fc418713          	addi	a4,gp,-60 # 1f97c <__sf+0x68>
   13cee:	4621                	li	a2,8
   13cf0:	4581                	li	a1,0
   13cf2:	08818513          	addi	a0,gp,136 # 1fa40 <__global_pointer$+0x88>
   13cf6:	09442423          	sw	s4,136(s0)
   13cfa:	09342623          	sw	s3,140(s0)
   13cfe:	09242823          	sw	s2,144(s0)
   13d02:	08942a23          	sw	s1,148(s0)
   13d06:	0cf42e23          	sw	a5,220(s0)
   13d0a:	08e42223          	sw	a4,132(s0)
   13d0e:	0c042823          	sw	zero,208(s0)
   13d12:	0c042a23          	sw	zero,212(s0)
   13d16:	0c042c23          	sw	zero,216(s0)
   13d1a:	12042a23          	sw	zero,308(s0)
   13d1e:	0e042023          	sw	zero,224(s0)
   13d22:	0e042223          	sw	zero,228(s0)
   13d26:	0e042423          	sw	zero,232(s0)
   13d2a:	23cd                	jal	1430c <memset>
   13d2c:	02c18793          	addi	a5,gp,44 # 1f9e4 <__global_pointer$+0x2c>
   13d30:	0f442823          	sw	s4,240(s0)
   13d34:	0f342a23          	sw	s3,244(s0)
   13d38:	0f242c23          	sw	s2,248(s0)
   13d3c:	0e942e23          	sw	s1,252(s0)
   13d40:	40f2                	lw	ra,28(sp)
   13d42:	0ef42623          	sw	a5,236(s0)
   13d46:	4462                	lw	s0,24(sp)
   13d48:	44d2                	lw	s1,20(sp)
   13d4a:	4942                	lw	s2,16(sp)
   13d4c:	49b2                	lw	s3,12(sp)
   13d4e:	4a22                	lw	s4,8(sp)
   13d50:	6105                	addi	sp,sp,32
   13d52:	8082                	ret

00013d54 <__sfp>:
   13d54:	f201a783          	lw	a5,-224(gp) # 1f8d8 <__stdio_exit_handler>
   13d58:	1101                	addi	sp,sp,-32
   13d5a:	c64e                	sw	s3,12(sp)
   13d5c:	ce06                	sw	ra,28(sp)
   13d5e:	cc22                	sw	s0,24(sp)
   13d60:	ca26                	sw	s1,20(sp)
   13d62:	c84a                	sw	s2,16(sp)
   13d64:	89aa                	mv	s3,a0
   13d66:	c7d5                	beqz	a5,13e12 <__sfp+0xbe>
   13d68:	0001f937          	lui	s2,0x1f
   13d6c:	1b890913          	addi	s2,s2,440 # 1f1b8 <__sglue>
   13d70:	54fd                	li	s1,-1
   13d72:	00492783          	lw	a5,4(s2)
   13d76:	00892403          	lw	s0,8(s2)
   13d7a:	17fd                	addi	a5,a5,-1
   13d7c:	0007d763          	bgez	a5,13d8a <__sfp+0x36>
   13d80:	a8b9                	j	13dde <__sfp+0x8a>
   13d82:	06840413          	addi	s0,s0,104
   13d86:	04978c63          	beq	a5,s1,13dde <__sfp+0x8a>
   13d8a:	00c41703          	lh	a4,12(s0)
   13d8e:	17fd                	addi	a5,a5,-1
   13d90:	fb6d                	bnez	a4,13d82 <__sfp+0x2e>
   13d92:	77c1                	lui	a5,0xffff0
   13d94:	0785                	addi	a5,a5,1 # ffff0001 <__BSS_END__+0xfffd03fd>
   13d96:	c45c                	sw	a5,12(s0)
   13d98:	06042223          	sw	zero,100(s0)
   13d9c:	00042023          	sw	zero,0(s0)
   13da0:	00042423          	sw	zero,8(s0)
   13da4:	00042223          	sw	zero,4(s0)
   13da8:	00042823          	sw	zero,16(s0)
   13dac:	00042a23          	sw	zero,20(s0)
   13db0:	00042c23          	sw	zero,24(s0)
   13db4:	4621                	li	a2,8
   13db6:	4581                	li	a1,0
   13db8:	05c40513          	addi	a0,s0,92
   13dbc:	2b81                	jal	1430c <memset>
   13dbe:	02042823          	sw	zero,48(s0)
   13dc2:	02042a23          	sw	zero,52(s0)
   13dc6:	04042223          	sw	zero,68(s0)
   13dca:	04042423          	sw	zero,72(s0)
   13dce:	40f2                	lw	ra,28(sp)
   13dd0:	8522                	mv	a0,s0
   13dd2:	4462                	lw	s0,24(sp)
   13dd4:	44d2                	lw	s1,20(sp)
   13dd6:	4942                	lw	s2,16(sp)
   13dd8:	49b2                	lw	s3,12(sp)
   13dda:	6105                	addi	sp,sp,32
   13ddc:	8082                	ret
   13dde:	00092403          	lw	s0,0(s2)
   13de2:	c019                	beqz	s0,13de8 <__sfp+0x94>
   13de4:	8922                	mv	s2,s0
   13de6:	b771                	j	13d72 <__sfp+0x1e>
   13de8:	1ac00593          	li	a1,428
   13dec:	854e                	mv	a0,s3
   13dee:	197000ef          	jal	14784 <_malloc_r>
   13df2:	842a                	mv	s0,a0
   13df4:	c10d                	beqz	a0,13e16 <__sfp+0xc2>
   13df6:	0531                	addi	a0,a0,12
   13df8:	4791                	li	a5,4
   13dfa:	00042023          	sw	zero,0(s0)
   13dfe:	c05c                	sw	a5,4(s0)
   13e00:	c408                	sw	a0,8(s0)
   13e02:	1a000613          	li	a2,416
   13e06:	4581                	li	a1,0
   13e08:	2311                	jal	1430c <memset>
   13e0a:	00892023          	sw	s0,0(s2)
   13e0e:	8922                	mv	s2,s0
   13e10:	b78d                	j	13d72 <__sfp+0x1e>
   13e12:	3d25                	jal	13c4a <global_stdio_init.part.0>
   13e14:	bf91                	j	13d68 <__sfp+0x14>
   13e16:	00092023          	sw	zero,0(s2)
   13e1a:	47b1                	li	a5,12
   13e1c:	00f9a023          	sw	a5,0(s3)
   13e20:	b77d                	j	13dce <__sfp+0x7a>

00013e22 <__sinit>:
   13e22:	595c                	lw	a5,52(a0)
   13e24:	c391                	beqz	a5,13e28 <__sinit+0x6>
   13e26:	8082                	ret
   13e28:	f201a703          	lw	a4,-224(gp) # 1f8d8 <__stdio_exit_handler>
   13e2c:	67d1                	lui	a5,0x14
   13e2e:	c0278793          	addi	a5,a5,-1022 # 13c02 <cleanup_stdio>
   13e32:	d95c                	sw	a5,52(a0)
   13e34:	fb6d                	bnez	a4,13e26 <__sinit+0x4>
   13e36:	bd11                	j	13c4a <global_stdio_init.part.0>

00013e38 <__sfp_lock_acquire>:
   13e38:	8082                	ret

00013e3a <__sfp_lock_release>:
   13e3a:	8082                	ret

00013e3c <__fp_lock_all>:
   13e3c:	0001f637          	lui	a2,0x1f
   13e40:	65d1                	lui	a1,0x14
   13e42:	1b860613          	addi	a2,a2,440 # 1f1b8 <__sglue>
   13e46:	be658593          	addi	a1,a1,-1050 # 13be6 <__fp_lock>
   13e4a:	4501                	li	a0,0
   13e4c:	a811                	j	13e60 <_fwalk_sglue>

00013e4e <__fp_unlock_all>:
   13e4e:	0001f637          	lui	a2,0x1f
   13e52:	65d1                	lui	a1,0x14
   13e54:	1b860613          	addi	a2,a2,440 # 1f1b8 <__sglue>
   13e58:	c4658593          	addi	a1,a1,-954 # 13c46 <__fp_unlock>
   13e5c:	4501                	li	a0,0
   13e5e:	a009                	j	13e60 <_fwalk_sglue>

00013e60 <_fwalk_sglue>:
   13e60:	7179                	addi	sp,sp,-48
   13e62:	d04a                	sw	s2,32(sp)
   13e64:	ce4e                	sw	s3,28(sp)
   13e66:	cc52                	sw	s4,24(sp)
   13e68:	ca56                	sw	s5,20(sp)
   13e6a:	c85a                	sw	s6,16(sp)
   13e6c:	c65e                	sw	s7,12(sp)
   13e6e:	d606                	sw	ra,44(sp)
   13e70:	d422                	sw	s0,40(sp)
   13e72:	d226                	sw	s1,36(sp)
   13e74:	8b2a                	mv	s6,a0
   13e76:	8bae                	mv	s7,a1
   13e78:	8ab2                	mv	s5,a2
   13e7a:	4a01                	li	s4,0
   13e7c:	4985                	li	s3,1
   13e7e:	597d                	li	s2,-1
   13e80:	004aa483          	lw	s1,4(s5)
   13e84:	008aa403          	lw	s0,8(s5)
   13e88:	14fd                	addi	s1,s1,-1
   13e8a:	0204c463          	bltz	s1,13eb2 <_fwalk_sglue+0x52>
   13e8e:	00c45783          	lhu	a5,12(s0)
   13e92:	00f9fb63          	bgeu	s3,a5,13ea8 <_fwalk_sglue+0x48>
   13e96:	00e41783          	lh	a5,14(s0)
   13e9a:	85a2                	mv	a1,s0
   13e9c:	855a                	mv	a0,s6
   13e9e:	01278563          	beq	a5,s2,13ea8 <_fwalk_sglue+0x48>
   13ea2:	9b82                	jalr	s7
   13ea4:	00aa6a33          	or	s4,s4,a0
   13ea8:	14fd                	addi	s1,s1,-1
   13eaa:	06840413          	addi	s0,s0,104
   13eae:	ff2490e3          	bne	s1,s2,13e8e <_fwalk_sglue+0x2e>
   13eb2:	000aaa83          	lw	s5,0(s5)
   13eb6:	fc0a95e3          	bnez	s5,13e80 <_fwalk_sglue+0x20>
   13eba:	50b2                	lw	ra,44(sp)
   13ebc:	5422                	lw	s0,40(sp)
   13ebe:	5492                	lw	s1,36(sp)
   13ec0:	5902                	lw	s2,32(sp)
   13ec2:	49f2                	lw	s3,28(sp)
   13ec4:	4ad2                	lw	s5,20(sp)
   13ec6:	4b42                	lw	s6,16(sp)
   13ec8:	4bb2                	lw	s7,12(sp)
   13eca:	8552                	mv	a0,s4
   13ecc:	4a62                	lw	s4,24(sp)
   13ece:	6145                	addi	sp,sp,48
   13ed0:	8082                	ret

00013ed2 <_fwrite_r>:
   13ed2:	715d                	addi	sp,sp,-80
   13ed4:	de4e                	sw	s3,60(sp)
   13ed6:	02c689b3          	mul	s3,a3,a2
   13eda:	087c                	addi	a5,sp,28
   13edc:	d23e                	sw	a5,36(sp)
   13ede:	4785                	li	a5,1
   13ee0:	c4a2                	sw	s0,72(sp)
   13ee2:	c2a6                	sw	s1,68(sp)
   13ee4:	c0ca                	sw	s2,64(sp)
   13ee6:	ce2e                	sw	a1,28(sp)
   13ee8:	c686                	sw	ra,76(sp)
   13eea:	d43e                	sw	a5,40(sp)
   13eec:	d04e                	sw	s3,32(sp)
   13eee:	d64e                	sw	s3,44(sp)
   13ef0:	8932                	mv	s2,a2
   13ef2:	84b6                	mv	s1,a3
   13ef4:	842a                	mv	s0,a0
   13ef6:	85ba                	mv	a1,a4
   13ef8:	c119                	beqz	a0,13efe <_fwrite_r+0x2c>
   13efa:	595c                	lw	a5,52(a0)
   13efc:	cfb9                	beqz	a5,13f5a <_fwrite_r+0x88>
   13efe:	00c59703          	lh	a4,12(a1)
   13f02:	51fc                	lw	a5,100(a1)
   13f04:	01271693          	slli	a3,a4,0x12
   13f08:	0006ca63          	bltz	a3,13f1c <_fwrite_r+0x4a>
   13f0c:	76f9                	lui	a3,0xffffe
   13f0e:	16fd                	addi	a3,a3,-1 # ffffdfff <__BSS_END__+0xfffde3fb>
   13f10:	6609                	lui	a2,0x2
   13f12:	8f51                	or	a4,a4,a2
   13f14:	8ff5                	and	a5,a5,a3
   13f16:	00e59623          	sh	a4,12(a1)
   13f1a:	d1fc                	sw	a5,100(a1)
   13f1c:	01279713          	slli	a4,a5,0x12
   13f20:	4501                	li	a0,0
   13f22:	00075963          	bgez	a4,13f34 <_fwrite_r+0x62>
   13f26:	40b6                	lw	ra,76(sp)
   13f28:	4426                	lw	s0,72(sp)
   13f2a:	4496                	lw	s1,68(sp)
   13f2c:	4906                	lw	s2,64(sp)
   13f2e:	59f2                	lw	s3,60(sp)
   13f30:	6161                	addi	sp,sp,80
   13f32:	8082                	ret
   13f34:	1050                	addi	a2,sp,36
   13f36:	8522                	mv	a0,s0
   13f38:	53d020ef          	jal	16c74 <__sfvwrite_r>
   13f3c:	87aa                	mv	a5,a0
   13f3e:	8526                	mv	a0,s1
   13f40:	d3fd                	beqz	a5,13f26 <_fwrite_r+0x54>
   13f42:	57b2                	lw	a5,44(sp)
   13f44:	40b6                	lw	ra,76(sp)
   13f46:	4426                	lw	s0,72(sp)
   13f48:	40f989b3          	sub	s3,s3,a5
   13f4c:	0329d533          	divu	a0,s3,s2
   13f50:	4496                	lw	s1,68(sp)
   13f52:	4906                	lw	s2,64(sp)
   13f54:	59f2                	lw	s3,60(sp)
   13f56:	6161                	addi	sp,sp,80
   13f58:	8082                	ret
   13f5a:	c63a                	sw	a4,12(sp)
   13f5c:	35d9                	jal	13e22 <__sinit>
   13f5e:	45b2                	lw	a1,12(sp)
   13f60:	bf79                	j	13efe <_fwrite_r+0x2c>

00013f62 <fwrite>:
   13f62:	715d                	addi	sp,sp,-80
   13f64:	c0ca                	sw	s2,64(sp)
   13f66:	02c58933          	mul	s2,a1,a2
   13f6a:	de4e                	sw	s3,60(sp)
   13f6c:	f141a983          	lw	s3,-236(gp) # 1f8cc <_impure_ptr>
   13f70:	087c                	addi	a5,sp,28
   13f72:	d23e                	sw	a5,36(sp)
   13f74:	4785                	li	a5,1
   13f76:	c4a2                	sw	s0,72(sp)
   13f78:	c2a6                	sw	s1,68(sp)
   13f7a:	c686                	sw	ra,76(sp)
   13f7c:	ce2a                	sw	a0,28(sp)
   13f7e:	d43e                	sw	a5,40(sp)
   13f80:	d04a                	sw	s2,32(sp)
   13f82:	d64a                	sw	s2,44(sp)
   13f84:	84ae                	mv	s1,a1
   13f86:	8432                	mv	s0,a2
   13f88:	85b6                	mv	a1,a3
   13f8a:	00098563          	beqz	s3,13f94 <fwrite+0x32>
   13f8e:	0349a783          	lw	a5,52(s3)
   13f92:	cfb9                	beqz	a5,13ff0 <fwrite+0x8e>
   13f94:	00c59703          	lh	a4,12(a1)
   13f98:	51fc                	lw	a5,100(a1)
   13f9a:	01271693          	slli	a3,a4,0x12
   13f9e:	0006ca63          	bltz	a3,13fb2 <fwrite+0x50>
   13fa2:	76f9                	lui	a3,0xffffe
   13fa4:	16fd                	addi	a3,a3,-1 # ffffdfff <__BSS_END__+0xfffde3fb>
   13fa6:	6609                	lui	a2,0x2
   13fa8:	8f51                	or	a4,a4,a2
   13faa:	8ff5                	and	a5,a5,a3
   13fac:	00e59623          	sh	a4,12(a1)
   13fb0:	d1fc                	sw	a5,100(a1)
   13fb2:	01279713          	slli	a4,a5,0x12
   13fb6:	4501                	li	a0,0
   13fb8:	00075963          	bgez	a4,13fca <fwrite+0x68>
   13fbc:	40b6                	lw	ra,76(sp)
   13fbe:	4426                	lw	s0,72(sp)
   13fc0:	4496                	lw	s1,68(sp)
   13fc2:	4906                	lw	s2,64(sp)
   13fc4:	59f2                	lw	s3,60(sp)
   13fc6:	6161                	addi	sp,sp,80
   13fc8:	8082                	ret
   13fca:	1050                	addi	a2,sp,36
   13fcc:	854e                	mv	a0,s3
   13fce:	4a7020ef          	jal	16c74 <__sfvwrite_r>
   13fd2:	87aa                	mv	a5,a0
   13fd4:	8522                	mv	a0,s0
   13fd6:	d3fd                	beqz	a5,13fbc <fwrite+0x5a>
   13fd8:	57b2                	lw	a5,44(sp)
   13fda:	40b6                	lw	ra,76(sp)
   13fdc:	4426                	lw	s0,72(sp)
   13fde:	40f90933          	sub	s2,s2,a5
   13fe2:	02995533          	divu	a0,s2,s1
   13fe6:	59f2                	lw	s3,60(sp)
   13fe8:	4496                	lw	s1,68(sp)
   13fea:	4906                	lw	s2,64(sp)
   13fec:	6161                	addi	sp,sp,80
   13fee:	8082                	ret
   13ff0:	854e                	mv	a0,s3
   13ff2:	c636                	sw	a3,12(sp)
   13ff4:	353d                	jal	13e22 <__sinit>
   13ff6:	45b2                	lw	a1,12(sp)
   13ff8:	bf71                	j	13f94 <fwrite+0x32>

00013ffa <_printf_r>:
   13ffa:	7139                	addi	sp,sp,-64
   13ffc:	d432                	sw	a2,40(sp)
   13ffe:	d636                	sw	a3,44(sp)
   14000:	d83a                	sw	a4,48(sp)
   14002:	da3e                	sw	a5,52(sp)
   14004:	dc42                	sw	a6,56(sp)
   14006:	de46                	sw	a7,60(sp)
   14008:	862e                	mv	a2,a1
   1400a:	450c                	lw	a1,8(a0)
   1400c:	1034                	addi	a3,sp,40
   1400e:	ce06                	sw	ra,28(sp)
   14010:	c636                	sw	a3,12(sp)
   14012:	521000ef          	jal	14d32 <_vfprintf_r>
   14016:	40f2                	lw	ra,28(sp)
   14018:	6121                	addi	sp,sp,64
   1401a:	8082                	ret

0001401c <printf>:
   1401c:	f141a303          	lw	t1,-236(gp) # 1f8cc <_impure_ptr>
   14020:	7139                	addi	sp,sp,-64
   14022:	d432                	sw	a2,40(sp)
   14024:	d636                	sw	a3,44(sp)
   14026:	d22e                	sw	a1,36(sp)
   14028:	d83a                	sw	a4,48(sp)
   1402a:	da3e                	sw	a5,52(sp)
   1402c:	dc42                	sw	a6,56(sp)
   1402e:	de46                	sw	a7,60(sp)
   14030:	00832583          	lw	a1,8(t1)
   14034:	1054                	addi	a3,sp,36
   14036:	862a                	mv	a2,a0
   14038:	851a                	mv	a0,t1
   1403a:	ce06                	sw	ra,28(sp)
   1403c:	c636                	sw	a3,12(sp)
   1403e:	4f5000ef          	jal	14d32 <_vfprintf_r>
   14042:	40f2                	lw	ra,28(sp)
   14044:	6121                	addi	sp,sp,64
   14046:	8082                	ret

00014048 <_putchar_r>:
   14048:	4510                	lw	a2,8(a0)
   1404a:	7730206f          	j	16fbc <_putc_r>

0001404e <putchar>:
   1404e:	f141a783          	lw	a5,-236(gp) # 1f8cc <_impure_ptr>
   14052:	85aa                	mv	a1,a0
   14054:	4790                	lw	a2,8(a5)
   14056:	853e                	mv	a0,a5
   14058:	7650206f          	j	16fbc <_putc_r>

0001405c <__sread>:
   1405c:	1141                	addi	sp,sp,-16
   1405e:	c422                	sw	s0,8(sp)
   14060:	842e                	mv	s0,a1
   14062:	00e59583          	lh	a1,14(a1)
   14066:	c606                	sw	ra,12(sp)
   14068:	2a6d                	jal	14222 <_read_r>
   1406a:	00054963          	bltz	a0,1407c <__sread+0x20>
   1406e:	483c                	lw	a5,80(s0)
   14070:	40b2                	lw	ra,12(sp)
   14072:	97aa                	add	a5,a5,a0
   14074:	c83c                	sw	a5,80(s0)
   14076:	4422                	lw	s0,8(sp)
   14078:	0141                	addi	sp,sp,16
   1407a:	8082                	ret
   1407c:	00c45783          	lhu	a5,12(s0)
   14080:	777d                	lui	a4,0xfffff
   14082:	177d                	addi	a4,a4,-1 # ffffefff <__BSS_END__+0xfffdf3fb>
   14084:	8ff9                	and	a5,a5,a4
   14086:	40b2                	lw	ra,12(sp)
   14088:	00f41623          	sh	a5,12(s0)
   1408c:	4422                	lw	s0,8(sp)
   1408e:	0141                	addi	sp,sp,16
   14090:	8082                	ret

00014092 <__seofread>:
   14092:	4501                	li	a0,0
   14094:	8082                	ret

00014096 <__swrite>:
   14096:	00c59783          	lh	a5,12(a1)
   1409a:	1101                	addi	sp,sp,-32
   1409c:	cc22                	sw	s0,24(sp)
   1409e:	ca26                	sw	s1,20(sp)
   140a0:	c84a                	sw	s2,16(sp)
   140a2:	c64e                	sw	s3,12(sp)
   140a4:	ce06                	sw	ra,28(sp)
   140a6:	1007f713          	andi	a4,a5,256
   140aa:	842e                	mv	s0,a1
   140ac:	84aa                	mv	s1,a0
   140ae:	8932                	mv	s2,a2
   140b0:	89b6                	mv	s3,a3
   140b2:	e315                	bnez	a4,140d6 <__swrite+0x40>
   140b4:	777d                	lui	a4,0xfffff
   140b6:	177d                	addi	a4,a4,-1 # ffffefff <__BSS_END__+0xfffdf3fb>
   140b8:	8ff9                	and	a5,a5,a4
   140ba:	00e41583          	lh	a1,14(s0)
   140be:	00f41623          	sh	a5,12(s0)
   140c2:	4462                	lw	s0,24(sp)
   140c4:	40f2                	lw	ra,28(sp)
   140c6:	86ce                	mv	a3,s3
   140c8:	864a                	mv	a2,s2
   140ca:	49b2                	lw	s3,12(sp)
   140cc:	4942                	lw	s2,16(sp)
   140ce:	8526                	mv	a0,s1
   140d0:	44d2                	lw	s1,20(sp)
   140d2:	6105                	addi	sp,sp,32
   140d4:	a269                	j	1425e <_write_r>
   140d6:	00e59583          	lh	a1,14(a1)
   140da:	4689                	li	a3,2
   140dc:	4601                	li	a2,0
   140de:	2221                	jal	141e6 <_lseek_r>
   140e0:	00c41783          	lh	a5,12(s0)
   140e4:	bfc1                	j	140b4 <__swrite+0x1e>

000140e6 <__sseek>:
   140e6:	1141                	addi	sp,sp,-16
   140e8:	c422                	sw	s0,8(sp)
   140ea:	842e                	mv	s0,a1
   140ec:	00e59583          	lh	a1,14(a1)
   140f0:	c606                	sw	ra,12(sp)
   140f2:	28d5                	jal	141e6 <_lseek_r>
   140f4:	57fd                	li	a5,-1
   140f6:	00f50f63          	beq	a0,a5,14114 <__sseek+0x2e>
   140fa:	00c45783          	lhu	a5,12(s0)
   140fe:	6705                	lui	a4,0x1
   14100:	40b2                	lw	ra,12(sp)
   14102:	8fd9                	or	a5,a5,a4
   14104:	07c2                	slli	a5,a5,0x10
   14106:	87c1                	srai	a5,a5,0x10
   14108:	c828                	sw	a0,80(s0)
   1410a:	00f41623          	sh	a5,12(s0)
   1410e:	4422                	lw	s0,8(sp)
   14110:	0141                	addi	sp,sp,16
   14112:	8082                	ret
   14114:	00c45783          	lhu	a5,12(s0)
   14118:	777d                	lui	a4,0xfffff
   1411a:	177d                	addi	a4,a4,-1 # ffffefff <__BSS_END__+0xfffdf3fb>
   1411c:	8ff9                	and	a5,a5,a4
   1411e:	07c2                	slli	a5,a5,0x10
   14120:	87c1                	srai	a5,a5,0x10
   14122:	40b2                	lw	ra,12(sp)
   14124:	00f41623          	sh	a5,12(s0)
   14128:	4422                	lw	s0,8(sp)
   1412a:	0141                	addi	sp,sp,16
   1412c:	8082                	ret

0001412e <__sclose>:
   1412e:	00e59583          	lh	a1,14(a1)
   14132:	a009                	j	14134 <_close_r>

00014134 <_close_r>:
   14134:	1141                	addi	sp,sp,-16
   14136:	c422                	sw	s0,8(sp)
   14138:	c226                	sw	s1,4(sp)
   1413a:	842a                	mv	s0,a0
   1413c:	852e                	mv	a0,a1
   1413e:	c606                	sw	ra,12(sp)
   14140:	f201a223          	sw	zero,-220(gp) # 1f8dc <errno>
   14144:	102070ef          	jal	1b246 <_close>
   14148:	57fd                	li	a5,-1
   1414a:	00f50763          	beq	a0,a5,14158 <_close_r+0x24>
   1414e:	40b2                	lw	ra,12(sp)
   14150:	4422                	lw	s0,8(sp)
   14152:	4492                	lw	s1,4(sp)
   14154:	0141                	addi	sp,sp,16
   14156:	8082                	ret
   14158:	f241a783          	lw	a5,-220(gp) # 1f8dc <errno>
   1415c:	dbed                	beqz	a5,1414e <_close_r+0x1a>
   1415e:	40b2                	lw	ra,12(sp)
   14160:	c01c                	sw	a5,0(s0)
   14162:	4422                	lw	s0,8(sp)
   14164:	4492                	lw	s1,4(sp)
   14166:	0141                	addi	sp,sp,16
   14168:	8082                	ret

0001416a <_reclaim_reent>:
   1416a:	f141a783          	lw	a5,-236(gp) # 1f8cc <_impure_ptr>
   1416e:	06a78b63          	beq	a5,a0,141e4 <_reclaim_reent+0x7a>
   14172:	416c                	lw	a1,68(a0)
   14174:	1101                	addi	sp,sp,-32
   14176:	ca26                	sw	s1,20(sp)
   14178:	ce06                	sw	ra,28(sp)
   1417a:	cc22                	sw	s0,24(sp)
   1417c:	84aa                	mv	s1,a0
   1417e:	c59d                	beqz	a1,141ac <_reclaim_reent+0x42>
   14180:	c84a                	sw	s2,16(sp)
   14182:	c64e                	sw	s3,12(sp)
   14184:	4901                	li	s2,0
   14186:	08000993          	li	s3,128
   1418a:	012587b3          	add	a5,a1,s2
   1418e:	4380                	lw	s0,0(a5)
   14190:	c419                	beqz	s0,1419e <_reclaim_reent+0x34>
   14192:	85a2                	mv	a1,s0
   14194:	4000                	lw	s0,0(s0)
   14196:	8526                	mv	a0,s1
   14198:	26d1                	jal	1455c <_free_r>
   1419a:	fc65                	bnez	s0,14192 <_reclaim_reent+0x28>
   1419c:	40ec                	lw	a1,68(s1)
   1419e:	0911                	addi	s2,s2,4
   141a0:	ff3915e3          	bne	s2,s3,1418a <_reclaim_reent+0x20>
   141a4:	8526                	mv	a0,s1
   141a6:	2e5d                	jal	1455c <_free_r>
   141a8:	4942                	lw	s2,16(sp)
   141aa:	49b2                	lw	s3,12(sp)
   141ac:	5c8c                	lw	a1,56(s1)
   141ae:	c199                	beqz	a1,141b4 <_reclaim_reent+0x4a>
   141b0:	8526                	mv	a0,s1
   141b2:	266d                	jal	1455c <_free_r>
   141b4:	40a0                	lw	s0,64(s1)
   141b6:	c411                	beqz	s0,141c2 <_reclaim_reent+0x58>
   141b8:	85a2                	mv	a1,s0
   141ba:	4000                	lw	s0,0(s0)
   141bc:	8526                	mv	a0,s1
   141be:	2e79                	jal	1455c <_free_r>
   141c0:	fc65                	bnez	s0,141b8 <_reclaim_reent+0x4e>
   141c2:	44ec                	lw	a1,76(s1)
   141c4:	c199                	beqz	a1,141ca <_reclaim_reent+0x60>
   141c6:	8526                	mv	a0,s1
   141c8:	2e51                	jal	1455c <_free_r>
   141ca:	58dc                	lw	a5,52(s1)
   141cc:	c799                	beqz	a5,141da <_reclaim_reent+0x70>
   141ce:	4462                	lw	s0,24(sp)
   141d0:	40f2                	lw	ra,28(sp)
   141d2:	8526                	mv	a0,s1
   141d4:	44d2                	lw	s1,20(sp)
   141d6:	6105                	addi	sp,sp,32
   141d8:	8782                	jr	a5
   141da:	40f2                	lw	ra,28(sp)
   141dc:	4462                	lw	s0,24(sp)
   141de:	44d2                	lw	s1,20(sp)
   141e0:	6105                	addi	sp,sp,32
   141e2:	8082                	ret
   141e4:	8082                	ret

000141e6 <_lseek_r>:
   141e6:	1141                	addi	sp,sp,-16
   141e8:	872e                	mv	a4,a1
   141ea:	c422                	sw	s0,8(sp)
   141ec:	c226                	sw	s1,4(sp)
   141ee:	85b2                	mv	a1,a2
   141f0:	842a                	mv	s0,a0
   141f2:	8636                	mv	a2,a3
   141f4:	853a                	mv	a0,a4
   141f6:	c606                	sw	ra,12(sp)
   141f8:	f201a223          	sw	zero,-220(gp) # 1f8dc <errno>
   141fc:	10e070ef          	jal	1b30a <_lseek>
   14200:	57fd                	li	a5,-1
   14202:	00f50763          	beq	a0,a5,14210 <_lseek_r+0x2a>
   14206:	40b2                	lw	ra,12(sp)
   14208:	4422                	lw	s0,8(sp)
   1420a:	4492                	lw	s1,4(sp)
   1420c:	0141                	addi	sp,sp,16
   1420e:	8082                	ret
   14210:	f241a783          	lw	a5,-220(gp) # 1f8dc <errno>
   14214:	dbed                	beqz	a5,14206 <_lseek_r+0x20>
   14216:	40b2                	lw	ra,12(sp)
   14218:	c01c                	sw	a5,0(s0)
   1421a:	4422                	lw	s0,8(sp)
   1421c:	4492                	lw	s1,4(sp)
   1421e:	0141                	addi	sp,sp,16
   14220:	8082                	ret

00014222 <_read_r>:
   14222:	1141                	addi	sp,sp,-16
   14224:	872e                	mv	a4,a1
   14226:	c422                	sw	s0,8(sp)
   14228:	c226                	sw	s1,4(sp)
   1422a:	85b2                	mv	a1,a2
   1422c:	842a                	mv	s0,a0
   1422e:	8636                	mv	a2,a3
   14230:	853a                	mv	a0,a4
   14232:	c606                	sw	ra,12(sp)
   14234:	f201a223          	sw	zero,-220(gp) # 1f8dc <errno>
   14238:	0fe070ef          	jal	1b336 <_read>
   1423c:	57fd                	li	a5,-1
   1423e:	00f50763          	beq	a0,a5,1424c <_read_r+0x2a>
   14242:	40b2                	lw	ra,12(sp)
   14244:	4422                	lw	s0,8(sp)
   14246:	4492                	lw	s1,4(sp)
   14248:	0141                	addi	sp,sp,16
   1424a:	8082                	ret
   1424c:	f241a783          	lw	a5,-220(gp) # 1f8dc <errno>
   14250:	dbed                	beqz	a5,14242 <_read_r+0x20>
   14252:	40b2                	lw	ra,12(sp)
   14254:	c01c                	sw	a5,0(s0)
   14256:	4422                	lw	s0,8(sp)
   14258:	4492                	lw	s1,4(sp)
   1425a:	0141                	addi	sp,sp,16
   1425c:	8082                	ret

0001425e <_write_r>:
   1425e:	1141                	addi	sp,sp,-16
   14260:	872e                	mv	a4,a1
   14262:	c422                	sw	s0,8(sp)
   14264:	c226                	sw	s1,4(sp)
   14266:	85b2                	mv	a1,a2
   14268:	842a                	mv	s0,a0
   1426a:	8636                	mv	a2,a3
   1426c:	853a                	mv	a0,a4
   1426e:	c606                	sw	ra,12(sp)
   14270:	f201a223          	sw	zero,-220(gp) # 1f8dc <errno>
   14274:	142070ef          	jal	1b3b6 <_write>
   14278:	57fd                	li	a5,-1
   1427a:	00f50763          	beq	a0,a5,14288 <_write_r+0x2a>
   1427e:	40b2                	lw	ra,12(sp)
   14280:	4422                	lw	s0,8(sp)
   14282:	4492                	lw	s1,4(sp)
   14284:	0141                	addi	sp,sp,16
   14286:	8082                	ret
   14288:	f241a783          	lw	a5,-220(gp) # 1f8dc <errno>
   1428c:	dbed                	beqz	a5,1427e <_write_r+0x20>
   1428e:	40b2                	lw	ra,12(sp)
   14290:	c01c                	sw	a5,0(s0)
   14292:	4422                	lw	s0,8(sp)
   14294:	4492                	lw	s1,4(sp)
   14296:	0141                	addi	sp,sp,16
   14298:	8082                	ret

0001429a <__libc_init_array>:
   1429a:	1141                	addi	sp,sp,-16
   1429c:	c422                	sw	s0,8(sp)
   1429e:	0001f7b7          	lui	a5,0x1f
   142a2:	0001f437          	lui	s0,0x1f
   142a6:	c04a                	sw	s2,0(sp)
   142a8:	1ac78793          	addi	a5,a5,428 # 1f1ac <__init_array_start>
   142ac:	1ac40713          	addi	a4,s0,428 # 1f1ac <__init_array_start>
   142b0:	c606                	sw	ra,12(sp)
   142b2:	c226                	sw	s1,4(sp)
   142b4:	40e78933          	sub	s2,a5,a4
   142b8:	00e78d63          	beq	a5,a4,142d2 <__libc_init_array+0x38>
   142bc:	40295913          	srai	s2,s2,0x2
   142c0:	1ac40413          	addi	s0,s0,428
   142c4:	4481                	li	s1,0
   142c6:	401c                	lw	a5,0(s0)
   142c8:	0485                	addi	s1,s1,1
   142ca:	0411                	addi	s0,s0,4
   142cc:	9782                	jalr	a5
   142ce:	ff24ece3          	bltu	s1,s2,142c6 <__libc_init_array+0x2c>
   142d2:	0001f437          	lui	s0,0x1f
   142d6:	0001f7b7          	lui	a5,0x1f
   142da:	1b478793          	addi	a5,a5,436 # 1f1b4 <__do_global_dtors_aux_fini_array_entry>
   142de:	1ac40713          	addi	a4,s0,428 # 1f1ac <__init_array_start>
   142e2:	40e78933          	sub	s2,a5,a4
   142e6:	40295913          	srai	s2,s2,0x2
   142ea:	00e78b63          	beq	a5,a4,14300 <__libc_init_array+0x66>
   142ee:	1ac40413          	addi	s0,s0,428
   142f2:	4481                	li	s1,0
   142f4:	401c                	lw	a5,0(s0)
   142f6:	0485                	addi	s1,s1,1
   142f8:	0411                	addi	s0,s0,4
   142fa:	9782                	jalr	a5
   142fc:	ff24ece3          	bltu	s1,s2,142f4 <__libc_init_array+0x5a>
   14300:	40b2                	lw	ra,12(sp)
   14302:	4422                	lw	s0,8(sp)
   14304:	4492                	lw	s1,4(sp)
   14306:	4902                	lw	s2,0(sp)
   14308:	0141                	addi	sp,sp,16
   1430a:	8082                	ret

0001430c <memset>:
   1430c:	433d                	li	t1,15
   1430e:	872a                	mv	a4,a0
   14310:	02c37363          	bgeu	t1,a2,14336 <memset+0x2a>
   14314:	00f77793          	andi	a5,a4,15
   14318:	efbd                	bnez	a5,14396 <memset+0x8a>
   1431a:	e5ad                	bnez	a1,14384 <memset+0x78>
   1431c:	ff067693          	andi	a3,a2,-16
   14320:	8a3d                	andi	a2,a2,15
   14322:	96ba                	add	a3,a3,a4
   14324:	c30c                	sw	a1,0(a4)
   14326:	c34c                	sw	a1,4(a4)
   14328:	c70c                	sw	a1,8(a4)
   1432a:	c74c                	sw	a1,12(a4)
   1432c:	0741                	addi	a4,a4,16
   1432e:	fed76be3          	bltu	a4,a3,14324 <memset+0x18>
   14332:	e211                	bnez	a2,14336 <memset+0x2a>
   14334:	8082                	ret
   14336:	40c306b3          	sub	a3,t1,a2
   1433a:	068a                	slli	a3,a3,0x2
   1433c:	00000297          	auipc	t0,0x0
   14340:	9696                	add	a3,a3,t0
   14342:	00a68067          	jr	10(a3)
   14346:	00b70723          	sb	a1,14(a4)
   1434a:	00b706a3          	sb	a1,13(a4)
   1434e:	00b70623          	sb	a1,12(a4)
   14352:	00b705a3          	sb	a1,11(a4)
   14356:	00b70523          	sb	a1,10(a4)
   1435a:	00b704a3          	sb	a1,9(a4)
   1435e:	00b70423          	sb	a1,8(a4)
   14362:	00b703a3          	sb	a1,7(a4)
   14366:	00b70323          	sb	a1,6(a4)
   1436a:	00b702a3          	sb	a1,5(a4)
   1436e:	00b70223          	sb	a1,4(a4)
   14372:	00b701a3          	sb	a1,3(a4)
   14376:	00b70123          	sb	a1,2(a4)
   1437a:	00b700a3          	sb	a1,1(a4)
   1437e:	00b70023          	sb	a1,0(a4)
   14382:	8082                	ret
   14384:	0ff5f593          	zext.b	a1,a1
   14388:	00859693          	slli	a3,a1,0x8
   1438c:	8dd5                	or	a1,a1,a3
   1438e:	01059693          	slli	a3,a1,0x10
   14392:	8dd5                	or	a1,a1,a3
   14394:	b761                	j	1431c <memset+0x10>
   14396:	00279693          	slli	a3,a5,0x2
   1439a:	00000297          	auipc	t0,0x0
   1439e:	9696                	add	a3,a3,t0
   143a0:	8286                	mv	t0,ra
   143a2:	fa8680e7          	jalr	-88(a3)
   143a6:	8096                	mv	ra,t0
   143a8:	17c1                	addi	a5,a5,-16
   143aa:	8f1d                	sub	a4,a4,a5
   143ac:	963e                	add	a2,a2,a5
   143ae:	f8c374e3          	bgeu	t1,a2,14336 <memset+0x2a>
   143b2:	b7a5                	j	1431a <memset+0xe>

000143b4 <__call_exitprocs>:
   143b4:	7179                	addi	sp,sp,-48
   143b6:	cc52                	sw	s4,24(sp)
   143b8:	d04a                	sw	s2,32(sp)
   143ba:	f281a903          	lw	s2,-216(gp) # 1f8e0 <__atexit>
   143be:	d606                	sw	ra,44(sp)
   143c0:	06090c63          	beqz	s2,14438 <__call_exitprocs+0x84>
   143c4:	ce4e                	sw	s3,28(sp)
   143c6:	ca56                	sw	s5,20(sp)
   143c8:	c85a                	sw	s6,16(sp)
   143ca:	c65e                	sw	s7,12(sp)
   143cc:	d422                	sw	s0,40(sp)
   143ce:	d226                	sw	s1,36(sp)
   143d0:	c462                	sw	s8,8(sp)
   143d2:	8b2a                	mv	s6,a0
   143d4:	8bae                	mv	s7,a1
   143d6:	59fd                	li	s3,-1
   143d8:	4a85                	li	s5,1
   143da:	00492483          	lw	s1,4(s2)
   143de:	fff48413          	addi	s0,s1,-1
   143e2:	04044463          	bltz	s0,1442a <__call_exitprocs+0x76>
   143e6:	048a                	slli	s1,s1,0x2
   143e8:	94ca                	add	s1,s1,s2
   143ea:	040b9c63          	bnez	s7,14442 <__call_exitprocs+0x8e>
   143ee:	00492783          	lw	a5,4(s2)
   143f2:	40d4                	lw	a3,4(s1)
   143f4:	17fd                	addi	a5,a5,-1
   143f6:	08878063          	beq	a5,s0,14476 <__call_exitprocs+0xc2>
   143fa:	0004a223          	sw	zero,4(s1)
   143fe:	c295                	beqz	a3,14422 <__call_exitprocs+0x6e>
   14400:	18892783          	lw	a5,392(s2)
   14404:	008a9733          	sll	a4,s5,s0
   14408:	00492c03          	lw	s8,4(s2)
   1440c:	8ff9                	and	a5,a5,a4
   1440e:	e3b9                	bnez	a5,14454 <__call_exitprocs+0xa0>
   14410:	9682                	jalr	a3
   14412:	00492703          	lw	a4,4(s2)
   14416:	f281a783          	lw	a5,-216(gp) # 1f8e0 <__atexit>
   1441a:	05871b63          	bne	a4,s8,14470 <__call_exitprocs+0xbc>
   1441e:	05279963          	bne	a5,s2,14470 <__call_exitprocs+0xbc>
   14422:	147d                	addi	s0,s0,-1
   14424:	14f1                	addi	s1,s1,-4
   14426:	fd3412e3          	bne	s0,s3,143ea <__call_exitprocs+0x36>
   1442a:	5422                	lw	s0,40(sp)
   1442c:	5492                	lw	s1,36(sp)
   1442e:	49f2                	lw	s3,28(sp)
   14430:	4ad2                	lw	s5,20(sp)
   14432:	4b42                	lw	s6,16(sp)
   14434:	4bb2                	lw	s7,12(sp)
   14436:	4c22                	lw	s8,8(sp)
   14438:	50b2                	lw	ra,44(sp)
   1443a:	5902                	lw	s2,32(sp)
   1443c:	4a62                	lw	s4,24(sp)
   1443e:	6145                	addi	sp,sp,48
   14440:	8082                	ret
   14442:	1044a783          	lw	a5,260(s1)
   14446:	fb7784e3          	beq	a5,s7,143ee <__call_exitprocs+0x3a>
   1444a:	147d                	addi	s0,s0,-1
   1444c:	14f1                	addi	s1,s1,-4
   1444e:	ff341ae3          	bne	s0,s3,14442 <__call_exitprocs+0x8e>
   14452:	bfe1                	j	1442a <__call_exitprocs+0x76>
   14454:	18c92783          	lw	a5,396(s2)
   14458:	0844a583          	lw	a1,132(s1)
   1445c:	8f7d                	and	a4,a4,a5
   1445e:	ef19                	bnez	a4,1447c <__call_exitprocs+0xc8>
   14460:	855a                	mv	a0,s6
   14462:	9682                	jalr	a3
   14464:	00492703          	lw	a4,4(s2)
   14468:	f281a783          	lw	a5,-216(gp) # 1f8e0 <__atexit>
   1446c:	fb8709e3          	beq	a4,s8,1441e <__call_exitprocs+0x6a>
   14470:	dfcd                	beqz	a5,1442a <__call_exitprocs+0x76>
   14472:	893e                	mv	s2,a5
   14474:	b79d                	j	143da <__call_exitprocs+0x26>
   14476:	00892223          	sw	s0,4(s2)
   1447a:	b751                	j	143fe <__call_exitprocs+0x4a>
   1447c:	852e                	mv	a0,a1
   1447e:	9682                	jalr	a3
   14480:	bf49                	j	14412 <__call_exitprocs+0x5e>

00014482 <atexit>:
   14482:	85aa                	mv	a1,a0
   14484:	4681                	li	a3,0
   14486:	4601                	li	a2,0
   14488:	4501                	li	a0,0
   1448a:	2a60306f          	j	17730 <__register_exitproc>

0001448e <_malloc_trim_r>:
   1448e:	1101                	addi	sp,sp,-32
   14490:	c64e                	sw	s3,12(sp)
   14492:	0001f9b7          	lui	s3,0x1f
   14496:	cc22                	sw	s0,24(sp)
   14498:	ca26                	sw	s1,20(sp)
   1449a:	c84a                	sw	s2,16(sp)
   1449c:	c452                	sw	s4,8(sp)
   1449e:	ce06                	sw	ra,28(sp)
   144a0:	8a2e                	mv	s4,a1
   144a2:	892a                	mv	s2,a0
   144a4:	2e898993          	addi	s3,s3,744 # 1f2e8 <__malloc_av_>
   144a8:	087000ef          	jal	14d2e <__malloc_lock>
   144ac:	0089a703          	lw	a4,8(s3)
   144b0:	6785                	lui	a5,0x1
   144b2:	17bd                	addi	a5,a5,-17 # fef <exit-0xf0a5>
   144b4:	4344                	lw	s1,4(a4)
   144b6:	6705                	lui	a4,0x1
   144b8:	98f1                	andi	s1,s1,-4
   144ba:	00f48433          	add	s0,s1,a5
   144be:	41440433          	sub	s0,s0,s4
   144c2:	8031                	srli	s0,s0,0xc
   144c4:	147d                	addi	s0,s0,-1
   144c6:	0432                	slli	s0,s0,0xc
   144c8:	00e44b63          	blt	s0,a4,144de <_malloc_trim_r+0x50>
   144cc:	4581                	li	a1,0
   144ce:	854a                	mv	a0,s2
   144d0:	68d020ef          	jal	1735c <_sbrk_r>
   144d4:	0089a783          	lw	a5,8(s3)
   144d8:	97a6                	add	a5,a5,s1
   144da:	00f50e63          	beq	a0,a5,144f6 <_malloc_trim_r+0x68>
   144de:	854a                	mv	a0,s2
   144e0:	051000ef          	jal	14d30 <__malloc_unlock>
   144e4:	40f2                	lw	ra,28(sp)
   144e6:	4462                	lw	s0,24(sp)
   144e8:	44d2                	lw	s1,20(sp)
   144ea:	4942                	lw	s2,16(sp)
   144ec:	49b2                	lw	s3,12(sp)
   144ee:	4a22                	lw	s4,8(sp)
   144f0:	4501                	li	a0,0
   144f2:	6105                	addi	sp,sp,32
   144f4:	8082                	ret
   144f6:	408005b3          	neg	a1,s0
   144fa:	854a                	mv	a0,s2
   144fc:	661020ef          	jal	1735c <_sbrk_r>
   14500:	57fd                	li	a5,-1
   14502:	02f50963          	beq	a0,a5,14534 <_malloc_trim_r+0xa6>
   14506:	09418793          	addi	a5,gp,148 # 1fa4c <__malloc_current_mallinfo>
   1450a:	4398                	lw	a4,0(a5)
   1450c:	0089a683          	lw	a3,8(s3)
   14510:	8c81                	sub	s1,s1,s0
   14512:	0014e493          	ori	s1,s1,1
   14516:	8f01                	sub	a4,a4,s0
   14518:	854a                	mv	a0,s2
   1451a:	c2c4                	sw	s1,4(a3)
   1451c:	c398                	sw	a4,0(a5)
   1451e:	013000ef          	jal	14d30 <__malloc_unlock>
   14522:	40f2                	lw	ra,28(sp)
   14524:	4462                	lw	s0,24(sp)
   14526:	44d2                	lw	s1,20(sp)
   14528:	4942                	lw	s2,16(sp)
   1452a:	49b2                	lw	s3,12(sp)
   1452c:	4a22                	lw	s4,8(sp)
   1452e:	4505                	li	a0,1
   14530:	6105                	addi	sp,sp,32
   14532:	8082                	ret
   14534:	4581                	li	a1,0
   14536:	854a                	mv	a0,s2
   14538:	625020ef          	jal	1735c <_sbrk_r>
   1453c:	0089a703          	lw	a4,8(s3)
   14540:	46bd                	li	a3,15
   14542:	40e507b3          	sub	a5,a0,a4
   14546:	f8f6dce3          	bge	a3,a5,144de <_malloc_trim_r+0x50>
   1454a:	f181a683          	lw	a3,-232(gp) # 1f8d0 <__malloc_sbrk_base>
   1454e:	0017e793          	ori	a5,a5,1
   14552:	c35c                	sw	a5,4(a4)
   14554:	8d15                	sub	a0,a0,a3
   14556:	08a1aa23          	sw	a0,148(gp) # 1fa4c <__malloc_current_mallinfo>
   1455a:	b751                	j	144de <_malloc_trim_r+0x50>

0001455c <_free_r>:
   1455c:	10058c63          	beqz	a1,14674 <_free_r+0x118>
   14560:	1141                	addi	sp,sp,-16
   14562:	c422                	sw	s0,8(sp)
   14564:	c226                	sw	s1,4(sp)
   14566:	842e                	mv	s0,a1
   14568:	84aa                	mv	s1,a0
   1456a:	c606                	sw	ra,12(sp)
   1456c:	7c2000ef          	jal	14d2e <__malloc_lock>
   14570:	ffc42503          	lw	a0,-4(s0)
   14574:	ff840713          	addi	a4,s0,-8
   14578:	0001f5b7          	lui	a1,0x1f
   1457c:	ffe57793          	andi	a5,a0,-2
   14580:	00f70633          	add	a2,a4,a5
   14584:	2e858593          	addi	a1,a1,744 # 1f2e8 <__malloc_av_>
   14588:	4254                	lw	a3,4(a2)
   1458a:	0085a803          	lw	a6,8(a1)
   1458e:	9af1                	andi	a3,a3,-4
   14590:	12c80563          	beq	a6,a2,146ba <_free_r+0x15e>
   14594:	c254                	sw	a3,4(a2)
   14596:	8905                	andi	a0,a0,1
   14598:	00d60833          	add	a6,a2,a3
   1459c:	e93d                	bnez	a0,14612 <_free_r+0xb6>
   1459e:	ff842303          	lw	t1,-8(s0)
   145a2:	00482803          	lw	a6,4(a6)
   145a6:	0001f537          	lui	a0,0x1f
   145aa:	40670733          	sub	a4,a4,t1
   145ae:	00872883          	lw	a7,8(a4) # 1008 <exit-0xf08c>
   145b2:	2f050513          	addi	a0,a0,752 # 1f2f0 <__malloc_av_+0x8>
   145b6:	979a                	add	a5,a5,t1
   145b8:	00187813          	andi	a6,a6,1
   145bc:	0ea88263          	beq	a7,a0,146a0 <_free_r+0x144>
   145c0:	00c72303          	lw	t1,12(a4)
   145c4:	0068a623          	sw	t1,12(a7)
   145c8:	01132423          	sw	a7,8(t1)
   145cc:	10080f63          	beqz	a6,146ea <_free_r+0x18e>
   145d0:	0017e693          	ori	a3,a5,1
   145d4:	c354                	sw	a3,4(a4)
   145d6:	c21c                	sw	a5,0(a2)
   145d8:	1ff00693          	li	a3,511
   145dc:	04f6e863          	bltu	a3,a5,1462c <_free_r+0xd0>
   145e0:	ff87f693          	andi	a3,a5,-8
   145e4:	06a1                	addi	a3,a3,8
   145e6:	41c8                	lw	a0,4(a1)
   145e8:	96ae                	add	a3,a3,a1
   145ea:	4290                	lw	a2,0(a3)
   145ec:	0057d813          	srli	a6,a5,0x5
   145f0:	4785                	li	a5,1
   145f2:	010797b3          	sll	a5,a5,a6
   145f6:	8fc9                	or	a5,a5,a0
   145f8:	ff868513          	addi	a0,a3,-8
   145fc:	c748                	sw	a0,12(a4)
   145fe:	c710                	sw	a2,8(a4)
   14600:	c1dc                	sw	a5,4(a1)
   14602:	c298                	sw	a4,0(a3)
   14604:	c658                	sw	a4,12(a2)
   14606:	4422                	lw	s0,8(sp)
   14608:	40b2                	lw	ra,12(sp)
   1460a:	8526                	mv	a0,s1
   1460c:	4492                	lw	s1,4(sp)
   1460e:	0141                	addi	sp,sp,16
   14610:	a705                	j	14d30 <__malloc_unlock>
   14612:	00482503          	lw	a0,4(a6)
   14616:	8905                	andi	a0,a0,1
   14618:	cd39                	beqz	a0,14676 <_free_r+0x11a>
   1461a:	0017e693          	ori	a3,a5,1
   1461e:	fed42e23          	sw	a3,-4(s0)
   14622:	c21c                	sw	a5,0(a2)
   14624:	1ff00693          	li	a3,511
   14628:	faf6fce3          	bgeu	a3,a5,145e0 <_free_r+0x84>
   1462c:	0097d693          	srli	a3,a5,0x9
   14630:	4611                	li	a2,4
   14632:	0ad66e63          	bltu	a2,a3,146ee <_free_r+0x192>
   14636:	0067d693          	srli	a3,a5,0x6
   1463a:	03968513          	addi	a0,a3,57
   1463e:	03868613          	addi	a2,a3,56
   14642:	050e                	slli	a0,a0,0x3
   14644:	952e                	add	a0,a0,a1
   14646:	4114                	lw	a3,0(a0)
   14648:	1561                	addi	a0,a0,-8
   1464a:	00d51663          	bne	a0,a3,14656 <_free_r+0xfa>
   1464e:	a8f9                	j	1472c <_free_r+0x1d0>
   14650:	4694                	lw	a3,8(a3)
   14652:	00d50663          	beq	a0,a3,1465e <_free_r+0x102>
   14656:	42d0                	lw	a2,4(a3)
   14658:	9a71                	andi	a2,a2,-4
   1465a:	fec7ebe3          	bltu	a5,a2,14650 <_free_r+0xf4>
   1465e:	46c8                	lw	a0,12(a3)
   14660:	c748                	sw	a0,12(a4)
   14662:	c714                	sw	a3,8(a4)
   14664:	4422                	lw	s0,8(sp)
   14666:	c518                	sw	a4,8(a0)
   14668:	40b2                	lw	ra,12(sp)
   1466a:	8526                	mv	a0,s1
   1466c:	4492                	lw	s1,4(sp)
   1466e:	c6d8                	sw	a4,12(a3)
   14670:	0141                	addi	sp,sp,16
   14672:	ad7d                	j	14d30 <__malloc_unlock>
   14674:	8082                	ret
   14676:	0001f537          	lui	a0,0x1f
   1467a:	97b6                	add	a5,a5,a3
   1467c:	2f050513          	addi	a0,a0,752 # 1f2f0 <__malloc_av_+0x8>
   14680:	4614                	lw	a3,8(a2)
   14682:	08a68b63          	beq	a3,a0,14718 <_free_r+0x1bc>
   14686:	00c62803          	lw	a6,12(a2) # 200c <exit-0xe088>
   1468a:	0017e513          	ori	a0,a5,1
   1468e:	00f70633          	add	a2,a4,a5
   14692:	0106a623          	sw	a6,12(a3)
   14696:	00d82423          	sw	a3,8(a6)
   1469a:	c348                	sw	a0,4(a4)
   1469c:	c21c                	sw	a5,0(a2)
   1469e:	bf2d                	j	145d8 <_free_r+0x7c>
   146a0:	0c081d63          	bnez	a6,1477a <_free_r+0x21e>
   146a4:	460c                	lw	a1,8(a2)
   146a6:	4650                	lw	a2,12(a2)
   146a8:	96be                	add	a3,a3,a5
   146aa:	0016e793          	ori	a5,a3,1
   146ae:	c5d0                	sw	a2,12(a1)
   146b0:	c60c                	sw	a1,8(a2)
   146b2:	c35c                	sw	a5,4(a4)
   146b4:	9736                	add	a4,a4,a3
   146b6:	c314                	sw	a3,0(a4)
   146b8:	b7b9                	j	14606 <_free_r+0xaa>
   146ba:	8905                	andi	a0,a0,1
   146bc:	96be                	add	a3,a3,a5
   146be:	e909                	bnez	a0,146d0 <_free_r+0x174>
   146c0:	ff842503          	lw	a0,-8(s0)
   146c4:	8f09                	sub	a4,a4,a0
   146c6:	475c                	lw	a5,12(a4)
   146c8:	4710                	lw	a2,8(a4)
   146ca:	96aa                	add	a3,a3,a0
   146cc:	c65c                	sw	a5,12(a2)
   146ce:	c790                	sw	a2,8(a5)
   146d0:	0016e613          	ori	a2,a3,1
   146d4:	f1c1a783          	lw	a5,-228(gp) # 1f8d4 <__malloc_trim_threshold>
   146d8:	c350                	sw	a2,4(a4)
   146da:	c598                	sw	a4,8(a1)
   146dc:	f2f6e5e3          	bltu	a3,a5,14606 <_free_r+0xaa>
   146e0:	f341a583          	lw	a1,-204(gp) # 1f8ec <__malloc_top_pad>
   146e4:	8526                	mv	a0,s1
   146e6:	3365                	jal	1448e <_malloc_trim_r>
   146e8:	bf39                	j	14606 <_free_r+0xaa>
   146ea:	97b6                	add	a5,a5,a3
   146ec:	bf51                	j	14680 <_free_r+0x124>
   146ee:	4651                	li	a2,20
   146f0:	00d67e63          	bgeu	a2,a3,1470c <_free_r+0x1b0>
   146f4:	05400613          	li	a2,84
   146f8:	04d66463          	bltu	a2,a3,14740 <_free_r+0x1e4>
   146fc:	00c7d693          	srli	a3,a5,0xc
   14700:	06f68513          	addi	a0,a3,111
   14704:	06e68613          	addi	a2,a3,110
   14708:	050e                	slli	a0,a0,0x3
   1470a:	bf2d                	j	14644 <_free_r+0xe8>
   1470c:	05c68513          	addi	a0,a3,92
   14710:	05b68613          	addi	a2,a3,91
   14714:	050e                	slli	a0,a0,0x3
   14716:	b73d                	j	14644 <_free_r+0xe8>
   14718:	c9d8                	sw	a4,20(a1)
   1471a:	c998                	sw	a4,16(a1)
   1471c:	0017e693          	ori	a3,a5,1
   14720:	c748                	sw	a0,12(a4)
   14722:	c708                	sw	a0,8(a4)
   14724:	c354                	sw	a3,4(a4)
   14726:	973e                	add	a4,a4,a5
   14728:	c31c                	sw	a5,0(a4)
   1472a:	bdf1                	j	14606 <_free_r+0xaa>
   1472c:	0045a803          	lw	a6,4(a1)
   14730:	8609                	srai	a2,a2,0x2
   14732:	4785                	li	a5,1
   14734:	00c797b3          	sll	a5,a5,a2
   14738:	0107e7b3          	or	a5,a5,a6
   1473c:	c1dc                	sw	a5,4(a1)
   1473e:	b70d                	j	14660 <_free_r+0x104>
   14740:	15400613          	li	a2,340
   14744:	00d66a63          	bltu	a2,a3,14758 <_free_r+0x1fc>
   14748:	00f7d693          	srli	a3,a5,0xf
   1474c:	07868513          	addi	a0,a3,120
   14750:	07768613          	addi	a2,a3,119
   14754:	050e                	slli	a0,a0,0x3
   14756:	b5fd                	j	14644 <_free_r+0xe8>
   14758:	55400613          	li	a2,1364
   1475c:	00d66a63          	bltu	a2,a3,14770 <_free_r+0x214>
   14760:	0127d693          	srli	a3,a5,0x12
   14764:	07d68513          	addi	a0,a3,125
   14768:	07c68613          	addi	a2,a3,124
   1476c:	050e                	slli	a0,a0,0x3
   1476e:	bdd9                	j	14644 <_free_r+0xe8>
   14770:	3f800513          	li	a0,1016
   14774:	07e00613          	li	a2,126
   14778:	b5f1                	j	14644 <_free_r+0xe8>
   1477a:	0017e693          	ori	a3,a5,1
   1477e:	c354                	sw	a3,4(a4)
   14780:	c21c                	sw	a5,0(a2)
   14782:	b551                	j	14606 <_free_r+0xaa>

00014784 <_malloc_r>:
   14784:	7179                	addi	sp,sp,-48
   14786:	ce4e                	sw	s3,28(sp)
   14788:	d606                	sw	ra,44(sp)
   1478a:	d422                	sw	s0,40(sp)
   1478c:	d226                	sw	s1,36(sp)
   1478e:	d04a                	sw	s2,32(sp)
   14790:	00b58793          	addi	a5,a1,11
   14794:	4759                	li	a4,22
   14796:	89aa                	mv	s3,a0
   14798:	04f76963          	bltu	a4,a5,147ea <_malloc_r+0x66>
   1479c:	47c1                	li	a5,16
   1479e:	16b7eb63          	bltu	a5,a1,14914 <_malloc_r+0x190>
   147a2:	2371                	jal	14d2e <__malloc_lock>
   147a4:	47e1                	li	a5,24
   147a6:	4589                	li	a1,2
   147a8:	44c1                	li	s1,16
   147aa:	0001f937          	lui	s2,0x1f
   147ae:	2e890913          	addi	s2,s2,744 # 1f2e8 <__malloc_av_>
   147b2:	97ca                	add	a5,a5,s2
   147b4:	43c0                	lw	s0,4(a5)
   147b6:	ff878713          	addi	a4,a5,-8
   147ba:	24e40f63          	beq	s0,a4,14a18 <_malloc_r+0x294>
   147be:	405c                	lw	a5,4(s0)
   147c0:	4454                	lw	a3,12(s0)
   147c2:	4410                	lw	a2,8(s0)
   147c4:	9bf1                	andi	a5,a5,-4
   147c6:	97a2                	add	a5,a5,s0
   147c8:	43d8                	lw	a4,4(a5)
   147ca:	c654                	sw	a3,12(a2)
   147cc:	c690                	sw	a2,8(a3)
   147ce:	00176713          	ori	a4,a4,1
   147d2:	854e                	mv	a0,s3
   147d4:	c3d8                	sw	a4,4(a5)
   147d6:	2ba9                	jal	14d30 <__malloc_unlock>
   147d8:	00840513          	addi	a0,s0,8
   147dc:	50b2                	lw	ra,44(sp)
   147de:	5422                	lw	s0,40(sp)
   147e0:	5492                	lw	s1,36(sp)
   147e2:	5902                	lw	s2,32(sp)
   147e4:	49f2                	lw	s3,28(sp)
   147e6:	6145                	addi	sp,sp,48
   147e8:	8082                	ret
   147ea:	ff87f493          	andi	s1,a5,-8
   147ee:	1207c363          	bltz	a5,14914 <_malloc_r+0x190>
   147f2:	12b4e163          	bltu	s1,a1,14914 <_malloc_r+0x190>
   147f6:	2b25                	jal	14d2e <__malloc_lock>
   147f8:	1f700793          	li	a5,503
   147fc:	2c97fd63          	bgeu	a5,s1,14ad6 <_malloc_r+0x352>
   14800:	0094d793          	srli	a5,s1,0x9
   14804:	10078d63          	beqz	a5,1491e <_malloc_r+0x19a>
   14808:	4711                	li	a4,4
   1480a:	24f76c63          	bltu	a4,a5,14a62 <_malloc_r+0x2de>
   1480e:	0064d793          	srli	a5,s1,0x6
   14812:	03978593          	addi	a1,a5,57
   14816:	03878813          	addi	a6,a5,56
   1481a:	00359613          	slli	a2,a1,0x3
   1481e:	0001f937          	lui	s2,0x1f
   14822:	2e890913          	addi	s2,s2,744 # 1f2e8 <__malloc_av_>
   14826:	964a                	add	a2,a2,s2
   14828:	4240                	lw	s0,4(a2)
   1482a:	1661                	addi	a2,a2,-8
   1482c:	02860163          	beq	a2,s0,1484e <_malloc_r+0xca>
   14830:	453d                	li	a0,15
   14832:	a039                	j	14840 <_malloc_r+0xbc>
   14834:	4454                	lw	a3,12(s0)
   14836:	1c075f63          	bgez	a4,14a14 <_malloc_r+0x290>
   1483a:	00d60a63          	beq	a2,a3,1484e <_malloc_r+0xca>
   1483e:	8436                	mv	s0,a3
   14840:	405c                	lw	a5,4(s0)
   14842:	9bf1                	andi	a5,a5,-4
   14844:	40978733          	sub	a4,a5,s1
   14848:	fee556e3          	bge	a0,a4,14834 <_malloc_r+0xb0>
   1484c:	85c2                	mv	a1,a6
   1484e:	01092403          	lw	s0,16(s2)
   14852:	0001f837          	lui	a6,0x1f
   14856:	2f080813          	addi	a6,a6,752 # 1f2f0 <__malloc_av_+0x8>
   1485a:	1b040a63          	beq	s0,a6,14a0e <_malloc_r+0x28a>
   1485e:	405c                	lw	a5,4(s0)
   14860:	46bd                	li	a3,15
   14862:	9bf1                	andi	a5,a5,-4
   14864:	40978733          	sub	a4,a5,s1
   14868:	26e6cc63          	blt	a3,a4,14ae0 <_malloc_r+0x35c>
   1486c:	01092a23          	sw	a6,20(s2)
   14870:	01092823          	sw	a6,16(s2)
   14874:	24075763          	bgez	a4,14ac2 <_malloc_r+0x33e>
   14878:	1ff00713          	li	a4,511
   1487c:	00492503          	lw	a0,4(s2)
   14880:	1af76163          	bltu	a4,a5,14a22 <_malloc_r+0x29e>
   14884:	ff87f713          	andi	a4,a5,-8
   14888:	0721                	addi	a4,a4,8
   1488a:	974a                	add	a4,a4,s2
   1488c:	4314                	lw	a3,0(a4)
   1488e:	0057d613          	srli	a2,a5,0x5
   14892:	4785                	li	a5,1
   14894:	00c797b3          	sll	a5,a5,a2
   14898:	8d5d                	or	a0,a0,a5
   1489a:	ff870793          	addi	a5,a4,-8
   1489e:	c45c                	sw	a5,12(s0)
   148a0:	c414                	sw	a3,8(s0)
   148a2:	00a92223          	sw	a0,4(s2)
   148a6:	c300                	sw	s0,0(a4)
   148a8:	c6c0                	sw	s0,12(a3)
   148aa:	4025d793          	srai	a5,a1,0x2
   148ae:	4605                	li	a2,1
   148b0:	00f61633          	sll	a2,a2,a5
   148b4:	06c56c63          	bltu	a0,a2,1492c <_malloc_r+0x1a8>
   148b8:	00a677b3          	and	a5,a2,a0
   148bc:	ef81                	bnez	a5,148d4 <_malloc_r+0x150>
   148be:	0606                	slli	a2,a2,0x1
   148c0:	99f1                	andi	a1,a1,-4
   148c2:	00a677b3          	and	a5,a2,a0
   148c6:	0591                	addi	a1,a1,4
   148c8:	e791                	bnez	a5,148d4 <_malloc_r+0x150>
   148ca:	0606                	slli	a2,a2,0x1
   148cc:	00a677b3          	and	a5,a2,a0
   148d0:	0591                	addi	a1,a1,4
   148d2:	dfe5                	beqz	a5,148ca <_malloc_r+0x146>
   148d4:	48bd                	li	a7,15
   148d6:	00359313          	slli	t1,a1,0x3
   148da:	934a                	add	t1,t1,s2
   148dc:	851a                	mv	a0,t1
   148de:	455c                	lw	a5,12(a0)
   148e0:	8e2e                	mv	t3,a1
   148e2:	1af50063          	beq	a0,a5,14a82 <_malloc_r+0x2fe>
   148e6:	43d8                	lw	a4,4(a5)
   148e8:	843e                	mv	s0,a5
   148ea:	47dc                	lw	a5,12(a5)
   148ec:	9b71                	andi	a4,a4,-4
   148ee:	409706b3          	sub	a3,a4,s1
   148f2:	18d8cf63          	blt	a7,a3,14a90 <_malloc_r+0x30c>
   148f6:	fe06c6e3          	bltz	a3,148e2 <_malloc_r+0x15e>
   148fa:	9722                	add	a4,a4,s0
   148fc:	4354                	lw	a3,4(a4)
   148fe:	4410                	lw	a2,8(s0)
   14900:	854e                	mv	a0,s3
   14902:	0016e693          	ori	a3,a3,1
   14906:	c354                	sw	a3,4(a4)
   14908:	c65c                	sw	a5,12(a2)
   1490a:	c790                	sw	a2,8(a5)
   1490c:	2115                	jal	14d30 <__malloc_unlock>
   1490e:	00840513          	addi	a0,s0,8
   14912:	b5e9                	j	147dc <_malloc_r+0x58>
   14914:	47b1                	li	a5,12
   14916:	00f9a023          	sw	a5,0(s3)
   1491a:	4501                	li	a0,0
   1491c:	b5c1                	j	147dc <_malloc_r+0x58>
   1491e:	20000613          	li	a2,512
   14922:	04000593          	li	a1,64
   14926:	03f00813          	li	a6,63
   1492a:	bdd5                	j	1481e <_malloc_r+0x9a>
   1492c:	00892403          	lw	s0,8(s2)
   14930:	c85a                	sw	s6,16(sp)
   14932:	405c                	lw	a5,4(s0)
   14934:	ffc7fb13          	andi	s6,a5,-4
   14938:	009b6763          	bltu	s6,s1,14946 <_malloc_r+0x1c2>
   1493c:	409b0733          	sub	a4,s6,s1
   14940:	47bd                	li	a5,15
   14942:	0ae7c163          	blt	a5,a4,149e4 <_malloc_r+0x260>
   14946:	c266                	sw	s9,4(sp)
   14948:	ca56                	sw	s5,20(sp)
   1494a:	f181a703          	lw	a4,-232(gp) # 1f8d0 <__malloc_sbrk_base>
   1494e:	f341aa83          	lw	s5,-204(gp) # 1f8ec <__malloc_top_pad>
   14952:	cc52                	sw	s4,24(sp)
   14954:	c65e                	sw	s7,12(sp)
   14956:	57fd                	li	a5,-1
   14958:	01640a33          	add	s4,s0,s6
   1495c:	9aa6                	add	s5,s5,s1
   1495e:	2cf70763          	beq	a4,a5,14c2c <_malloc_r+0x4a8>
   14962:	6785                	lui	a5,0x1
   14964:	07bd                	addi	a5,a5,15 # 100f <exit-0xf085>
   14966:	9abe                	add	s5,s5,a5
   14968:	77fd                	lui	a5,0xfffff
   1496a:	00fafab3          	and	s5,s5,a5
   1496e:	85d6                	mv	a1,s5
   14970:	854e                	mv	a0,s3
   14972:	1eb020ef          	jal	1735c <_sbrk_r>
   14976:	57fd                	li	a5,-1
   14978:	8baa                	mv	s7,a0
   1497a:	32f50963          	beq	a0,a5,14cac <_malloc_r+0x528>
   1497e:	c462                	sw	s8,8(sp)
   14980:	19456e63          	bltu	a0,s4,14b1c <_malloc_r+0x398>
   14984:	09418c13          	addi	s8,gp,148 # 1fa4c <__malloc_current_mallinfo>
   14988:	000c2583          	lw	a1,0(s8)
   1498c:	95d6                	add	a1,a1,s5
   1498e:	00bc2023          	sw	a1,0(s8)
   14992:	872e                	mv	a4,a1
   14994:	1eaa1863          	bne	s4,a0,14b84 <_malloc_r+0x400>
   14998:	01451793          	slli	a5,a0,0x14
   1499c:	1e079463          	bnez	a5,14b84 <_malloc_r+0x400>
   149a0:	00892b83          	lw	s7,8(s2)
   149a4:	015b07b3          	add	a5,s6,s5
   149a8:	0017e793          	ori	a5,a5,1
   149ac:	00fba223          	sw	a5,4(s7)
   149b0:	f301a683          	lw	a3,-208(gp) # 1f8e8 <__malloc_max_sbrked_mem>
   149b4:	00b6f463          	bgeu	a3,a1,149bc <_malloc_r+0x238>
   149b8:	f2b1a823          	sw	a1,-208(gp) # 1f8e8 <__malloc_max_sbrked_mem>
   149bc:	f2c1a683          	lw	a3,-212(gp) # 1f8e4 <__malloc_max_total_mem>
   149c0:	00b6f463          	bgeu	a3,a1,149c8 <_malloc_r+0x244>
   149c4:	f2b1a623          	sw	a1,-212(gp) # 1f8e4 <__malloc_max_total_mem>
   149c8:	4c22                	lw	s8,8(sp)
   149ca:	845e                	mv	s0,s7
   149cc:	9bf1                	andi	a5,a5,-4
   149ce:	40978733          	sub	a4,a5,s1
   149d2:	2897eb63          	bltu	a5,s1,14c68 <_malloc_r+0x4e4>
   149d6:	47bd                	li	a5,15
   149d8:	28e7d863          	bge	a5,a4,14c68 <_malloc_r+0x4e4>
   149dc:	4a62                	lw	s4,24(sp)
   149de:	4ad2                	lw	s5,20(sp)
   149e0:	4bb2                	lw	s7,12(sp)
   149e2:	4c92                	lw	s9,4(sp)
   149e4:	0014e793          	ori	a5,s1,1
   149e8:	c05c                	sw	a5,4(s0)
   149ea:	94a2                	add	s1,s1,s0
   149ec:	00992423          	sw	s1,8(s2)
   149f0:	00176713          	ori	a4,a4,1
   149f4:	854e                	mv	a0,s3
   149f6:	c0d8                	sw	a4,4(s1)
   149f8:	2e25                	jal	14d30 <__malloc_unlock>
   149fa:	50b2                	lw	ra,44(sp)
   149fc:	00840513          	addi	a0,s0,8
   14a00:	5422                	lw	s0,40(sp)
   14a02:	4b42                	lw	s6,16(sp)
   14a04:	5492                	lw	s1,36(sp)
   14a06:	5902                	lw	s2,32(sp)
   14a08:	49f2                	lw	s3,28(sp)
   14a0a:	6145                	addi	sp,sp,48
   14a0c:	8082                	ret
   14a0e:	00492503          	lw	a0,4(s2)
   14a12:	bd61                	j	148aa <_malloc_r+0x126>
   14a14:	4410                	lw	a2,8(s0)
   14a16:	bb45                	j	147c6 <_malloc_r+0x42>
   14a18:	47c0                	lw	s0,12(a5)
   14a1a:	0589                	addi	a1,a1,2
   14a1c:	e28789e3          	beq	a5,s0,1484e <_malloc_r+0xca>
   14a20:	bb79                	j	147be <_malloc_r+0x3a>
   14a22:	0097d713          	srli	a4,a5,0x9
   14a26:	4691                	li	a3,4
   14a28:	0ee6f263          	bgeu	a3,a4,14b0c <_malloc_r+0x388>
   14a2c:	46d1                	li	a3,20
   14a2e:	24e6e663          	bltu	a3,a4,14c7a <_malloc_r+0x4f6>
   14a32:	05c70613          	addi	a2,a4,92
   14a36:	05b70693          	addi	a3,a4,91
   14a3a:	060e                	slli	a2,a2,0x3
   14a3c:	964a                	add	a2,a2,s2
   14a3e:	4218                	lw	a4,0(a2)
   14a40:	1661                	addi	a2,a2,-8
   14a42:	00e61663          	bne	a2,a4,14a4e <_malloc_r+0x2ca>
   14a46:	a2ed                	j	14c30 <_malloc_r+0x4ac>
   14a48:	4718                	lw	a4,8(a4)
   14a4a:	00e60663          	beq	a2,a4,14a56 <_malloc_r+0x2d2>
   14a4e:	4354                	lw	a3,4(a4)
   14a50:	9af1                	andi	a3,a3,-4
   14a52:	fed7ebe3          	bltu	a5,a3,14a48 <_malloc_r+0x2c4>
   14a56:	4750                	lw	a2,12(a4)
   14a58:	c450                	sw	a2,12(s0)
   14a5a:	c418                	sw	a4,8(s0)
   14a5c:	c600                	sw	s0,8(a2)
   14a5e:	c740                	sw	s0,12(a4)
   14a60:	b5a9                	j	148aa <_malloc_r+0x126>
   14a62:	4751                	li	a4,20
   14a64:	0cf77363          	bgeu	a4,a5,14b2a <_malloc_r+0x3a6>
   14a68:	05400713          	li	a4,84
   14a6c:	22f76363          	bltu	a4,a5,14c92 <_malloc_r+0x50e>
   14a70:	00c4d793          	srli	a5,s1,0xc
   14a74:	06f78593          	addi	a1,a5,111 # fffff06f <__BSS_END__+0xfffdf46b>
   14a78:	06e78813          	addi	a6,a5,110
   14a7c:	00359613          	slli	a2,a1,0x3
   14a80:	bb79                	j	1481e <_malloc_r+0x9a>
   14a82:	0e05                	addi	t3,t3,1
   14a84:	003e7793          	andi	a5,t3,3
   14a88:	0521                	addi	a0,a0,8
   14a8a:	cfc5                	beqz	a5,14b42 <_malloc_r+0x3be>
   14a8c:	455c                	lw	a5,12(a0)
   14a8e:	bd91                	j	148e2 <_malloc_r+0x15e>
   14a90:	4410                	lw	a2,8(s0)
   14a92:	0014e593          	ori	a1,s1,1
   14a96:	c04c                	sw	a1,4(s0)
   14a98:	c65c                	sw	a5,12(a2)
   14a9a:	c790                	sw	a2,8(a5)
   14a9c:	94a2                	add	s1,s1,s0
   14a9e:	00992a23          	sw	s1,20(s2)
   14aa2:	00992823          	sw	s1,16(s2)
   14aa6:	0016e793          	ori	a5,a3,1
   14aaa:	0104a623          	sw	a6,12(s1)
   14aae:	0104a423          	sw	a6,8(s1)
   14ab2:	c0dc                	sw	a5,4(s1)
   14ab4:	9722                	add	a4,a4,s0
   14ab6:	854e                	mv	a0,s3
   14ab8:	c314                	sw	a3,0(a4)
   14aba:	2c9d                	jal	14d30 <__malloc_unlock>
   14abc:	00840513          	addi	a0,s0,8
   14ac0:	bb31                	j	147dc <_malloc_r+0x58>
   14ac2:	97a2                	add	a5,a5,s0
   14ac4:	43d8                	lw	a4,4(a5)
   14ac6:	854e                	mv	a0,s3
   14ac8:	00176713          	ori	a4,a4,1
   14acc:	c3d8                	sw	a4,4(a5)
   14ace:	248d                	jal	14d30 <__malloc_unlock>
   14ad0:	00840513          	addi	a0,s0,8
   14ad4:	b321                	j	147dc <_malloc_r+0x58>
   14ad6:	0034d593          	srli	a1,s1,0x3
   14ada:	00848793          	addi	a5,s1,8
   14ade:	b1f1                	j	147aa <_malloc_r+0x26>
   14ae0:	0014e693          	ori	a3,s1,1
   14ae4:	c054                	sw	a3,4(s0)
   14ae6:	94a2                	add	s1,s1,s0
   14ae8:	00992a23          	sw	s1,20(s2)
   14aec:	00992823          	sw	s1,16(s2)
   14af0:	00176693          	ori	a3,a4,1
   14af4:	0104a623          	sw	a6,12(s1)
   14af8:	0104a423          	sw	a6,8(s1)
   14afc:	c0d4                	sw	a3,4(s1)
   14afe:	97a2                	add	a5,a5,s0
   14b00:	854e                	mv	a0,s3
   14b02:	c398                	sw	a4,0(a5)
   14b04:	2435                	jal	14d30 <__malloc_unlock>
   14b06:	00840513          	addi	a0,s0,8
   14b0a:	b9c9                	j	147dc <_malloc_r+0x58>
   14b0c:	0067d713          	srli	a4,a5,0x6
   14b10:	03970613          	addi	a2,a4,57
   14b14:	03870693          	addi	a3,a4,56
   14b18:	060e                	slli	a2,a2,0x3
   14b1a:	b70d                	j	14a3c <_malloc_r+0x2b8>
   14b1c:	05240d63          	beq	s0,s2,14b76 <_malloc_r+0x3f2>
   14b20:	00892403          	lw	s0,8(s2)
   14b24:	4c22                	lw	s8,8(sp)
   14b26:	405c                	lw	a5,4(s0)
   14b28:	b555                	j	149cc <_malloc_r+0x248>
   14b2a:	05c78593          	addi	a1,a5,92
   14b2e:	05b78813          	addi	a6,a5,91
   14b32:	00359613          	slli	a2,a1,0x3
   14b36:	b1e5                	j	1481e <_malloc_r+0x9a>
   14b38:	00832783          	lw	a5,8(t1)
   14b3c:	15fd                	addi	a1,a1,-1
   14b3e:	1e679563          	bne	a5,t1,14d28 <_malloc_r+0x5a4>
   14b42:	0035f793          	andi	a5,a1,3
   14b46:	1361                	addi	t1,t1,-8
   14b48:	fbe5                	bnez	a5,14b38 <_malloc_r+0x3b4>
   14b4a:	00492703          	lw	a4,4(s2)
   14b4e:	fff64793          	not	a5,a2
   14b52:	8ff9                	and	a5,a5,a4
   14b54:	00f92223          	sw	a5,4(s2)
   14b58:	0606                	slli	a2,a2,0x1
   14b5a:	dcc7e9e3          	bltu	a5,a2,1492c <_malloc_r+0x1a8>
