
sim_O1/my_program:     file format elf32-littleriscv


Disassembly of section .text:

00010094 <exit>:
   10094:	1141                	addi	sp,sp,-16
   10096:	4581                	li	a1,0
   10098:	c422                	sw	s0,8(sp)
   1009a:	c606                	sw	ra,12(sp)
   1009c:	842a                	mv	s0,a0
   1009e:	6a9070ef          	jal	17f46 <__call_exitprocs>
   100a2:	f201a783          	lw	a5,-224(gp) # 22730 <__stdio_exit_handler>
   100a6:	c391                	beqz	a5,100aa <exit+0x16>
   100a8:	9782                	jalr	a5
   100aa:	8522                	mv	a0,s0
   100ac:	58f0e0ef          	jal	1ee3a <_exit>

000100b0 <register_fini>:
   100b0:	00000793          	li	a5,0
   100b4:	c791                	beqz	a5,100c0 <register_fini+0x10>
   100b6:	656d                	lui	a0,0x1b
   100b8:	f5850513          	addi	a0,a0,-168 # 1af58 <__libc_fini_array>
   100bc:	7590706f          	j	18014 <atexit>
   100c0:	8082                	ret

000100c2 <_start>:
   100c2:	00012197          	auipc	gp,0x12
   100c6:	74e18193          	addi	gp,gp,1870 # 22810 <__global_pointer$>
   100ca:	f2018513          	addi	a0,gp,-224 # 22730 <__stdio_exit_handler>
   100ce:	24c18613          	addi	a2,gp,588 # 22a5c <__BSS_END__>
   100d2:	8e09                	sub	a2,a2,a0
   100d4:	4581                	li	a1,0
   100d6:	565070ef          	jal	17e3a <memset>
   100da:	00008517          	auipc	a0,0x8
   100de:	f3a50513          	addi	a0,a0,-198 # 18014 <atexit>
   100e2:	c519                	beqz	a0,100f0 <_start+0x2e>
   100e4:	0000b517          	auipc	a0,0xb
   100e8:	e7450513          	addi	a0,a0,-396 # 1af58 <__libc_fini_array>
   100ec:	729070ef          	jal	18014 <atexit>
   100f0:	4d9070ef          	jal	17dc8 <__libc_init_array>
   100f4:	4502                	lw	a0,0(sp)
   100f6:	004c                	addi	a1,sp,4
   100f8:	4601                	li	a2,0
   100fa:	287d                	jal	101b8 <main>
   100fc:	bf61                	j	10094 <exit>

000100fe <__do_global_dtors_aux>:
   100fe:	1141                	addi	sp,sp,-16
   10100:	c422                	sw	s0,8(sp)
   10102:	f401c783          	lbu	a5,-192(gp) # 22750 <completed.1>
   10106:	c606                	sw	ra,12(sp)
   10108:	ef99                	bnez	a5,10126 <__do_global_dtors_aux+0x28>
   1010a:	00000793          	li	a5,0
   1010e:	cb89                	beqz	a5,10120 <__do_global_dtors_aux+0x22>
   10110:	00022537          	lui	a0,0x22
   10114:	00050513          	mv	a0,a0
   10118:	00000097          	auipc	ra,0x0
   1011c:	000000e7          	jalr	zero # 0 <exit-0x10094>
   10120:	4785                	li	a5,1
   10122:	f4f18023          	sb	a5,-192(gp) # 22750 <completed.1>
   10126:	40b2                	lw	ra,12(sp)
   10128:	4422                	lw	s0,8(sp)
   1012a:	0141                	addi	sp,sp,16
   1012c:	8082                	ret

0001012e <frame_dummy>:
   1012e:	00000793          	li	a5,0
   10132:	cb99                	beqz	a5,10148 <frame_dummy+0x1a>
   10134:	00022537          	lui	a0,0x22
   10138:	f4418593          	addi	a1,gp,-188 # 22754 <object.0>
   1013c:	00050513          	mv	a0,a0
   10140:	00000317          	auipc	t1,0x0
   10144:	00000067          	jr	zero # 0 <exit-0x10094>
   10148:	8082                	ret

0001014a <print_hex>:
   1014a:	1101                	addi	sp,sp,-32
   1014c:	ce06                	sw	ra,28(sp)
   1014e:	c84a                	sw	s2,16(sp)
   10150:	c64e                	sw	s3,12(sp)
   10152:	c256                	sw	s5,4(sp)
   10154:	89ae                	mv	s3,a1
   10156:	8932                	mv	s2,a2
   10158:	8ab6                	mv	s5,a3
   1015a:	85aa                	mv	a1,a0
   1015c:	00021537          	lui	a0,0x21
   10160:	4d850513          	addi	a0,a0,1240 # 214d8 <__clzsi2+0x3c>
   10164:	15f070ef          	jal	17ac2 <printf>
   10168:	015967b3          	or	a5,s2,s5
   1016c:	cf8d                	beqz	a5,101a6 <print_hex+0x5c>
   1016e:	cc22                	sw	s0,24(sp)
   10170:	ca26                	sw	s1,20(sp)
   10172:	c452                	sw	s4,8(sp)
   10174:	4401                	li	s0,0
   10176:	4481                	li	s1,0
   10178:	00021a37          	lui	s4,0x21
   1017c:	008987b3          	add	a5,s3,s0
   10180:	0007c583          	lbu	a1,0(a5)
   10184:	4e0a0513          	addi	a0,s4,1248 # 214e0 <__clzsi2+0x44>
   10188:	13b070ef          	jal	17ac2 <printf>
   1018c:	00140793          	addi	a5,s0,1
   10190:	0087b733          	sltu	a4,a5,s0
   10194:	843e                	mv	s0,a5
   10196:	94ba                	add	s1,s1,a4
   10198:	fef912e3          	bne	s2,a5,1017c <print_hex+0x32>
   1019c:	fe9a90e3          	bne	s5,s1,1017c <print_hex+0x32>
   101a0:	4462                	lw	s0,24(sp)
   101a2:	44d2                	lw	s1,20(sp)
   101a4:	4a22                	lw	s4,8(sp)
   101a6:	4529                	li	a0,10
   101a8:	14d070ef          	jal	17af4 <putchar>
   101ac:	40f2                	lw	ra,28(sp)
   101ae:	4942                	lw	s2,16(sp)
   101b0:	49b2                	lw	s3,12(sp)
   101b2:	4a92                	lw	s5,4(sp)
   101b4:	6105                	addi	sp,sp,32
   101b6:	8082                	ret

000101b8 <main>:
   101b8:	7135                	addi	sp,sp,-160
   101ba:	cf06                	sw	ra,156(sp)
   101bc:	cd22                	sw	s0,152(sp)
   101be:	cb26                	sw	s1,148(sp)
   101c0:	000217b7          	lui	a5,0x21
   101c4:	57478793          	addi	a5,a5,1396 # 21574 <__clzsi2+0xd8>
   101c8:	4390                	lw	a2,0(a5)
   101ca:	43d4                	lw	a3,4(a5)
   101cc:	4798                	lw	a4,8(a5)
   101ce:	47dc                	lw	a5,12(a5)
   101d0:	c8b2                	sw	a2,80(sp)
   101d2:	cab6                	sw	a3,84(sp)
   101d4:	ccba                	sw	a4,88(sp)
   101d6:	cebe                	sw	a5,92(sp)
   101d8:	343337b7          	lui	a5,0x34333
   101dc:	23178793          	addi	a5,a5,561 # 34333231 <__BSS_END__+0x343107d5>
   101e0:	c0be                	sw	a5,64(sp)
   101e2:	383737b7          	lui	a5,0x38373
   101e6:	63578793          	addi	a5,a5,1589 # 38373635 <__BSS_END__+0x38350bd9>
   101ea:	c2be                	sw	a5,68(sp)
   101ec:	323137b7          	lui	a5,0x32313
   101f0:	03978793          	addi	a5,a5,57 # 32313039 <__BSS_END__+0x322f05dd>
   101f4:	c4be                	sw	a5,72(sp)
   101f6:	c682                	sw	zero,76(sp)
   101f8:	000217b7          	lui	a5,0x21
   101fc:	58878793          	addi	a5,a5,1416 # 21588 <__clzsi2+0xec>
   10200:	4390                	lw	a2,0(a5)
   10202:	43d4                	lw	a3,4(a5)
   10204:	4798                	lw	a4,8(a5)
   10206:	d832                	sw	a2,48(sp)
   10208:	da36                	sw	a3,52(sp)
   1020a:	dc3a                	sw	a4,56(sp)
   1020c:	00c7d783          	lhu	a5,12(a5)
   10210:	02f11e23          	sh	a5,60(sp)
   10214:	6791                	lui	a5,0x4
   10216:	44178793          	addi	a5,a5,1089 # 4441 <exit-0xbc53>
   1021a:	02f11623          	sh	a5,44(sp)
   1021e:	02010723          	sb	zero,46(sp)
   10222:	180c                	addi	a1,sp,48
   10224:	00021537          	lui	a0,0x21
   10228:	4e850513          	addi	a0,a0,1256 # 214e8 <__clzsi2+0x4c>
   1022c:	097070ef          	jal	17ac2 <printf>
   10230:	106c                	addi	a1,sp,44
   10232:	00021537          	lui	a0,0x21
   10236:	50050513          	addi	a0,a0,1280 # 21500 <__clzsi2+0x64>
   1023a:	089070ef          	jal	17ac2 <printf>
   1023e:	0884                	addi	s1,sp,80
   10240:	4641                	li	a2,16
   10242:	4681                	li	a3,0
   10244:	85a6                	mv	a1,s1
   10246:	00021537          	lui	a0,0x21
   1024a:	51850513          	addi	a0,a0,1304 # 21518 <__clzsi2+0x7c>
   1024e:	3df5                	jal	1014a <print_hex>
   10250:	0080                	addi	s0,sp,64
   10252:	4641                	li	a2,16
   10254:	4681                	li	a3,0
   10256:	85a2                	mv	a1,s0
   10258:	00021537          	lui	a0,0x21
   1025c:	51c50513          	addi	a0,a0,1308 # 2151c <__clzsi2+0x80>
   10260:	35ed                	jal	1014a <print_hex>
   10262:	c426                	sw	s1,8(sp)
   10264:	c222                	sw	s0,4(sp)
   10266:	c002                	sw	zero,0(sp)
   10268:	4809                	li	a6,2
   1026a:	4881                	li	a7,0
   1026c:	107c                	addi	a5,sp,44
   1026e:	46b5                	li	a3,13
   10270:	4701                	li	a4,0
   10272:	1810                	addi	a2,sp,48
   10274:	100c                	addi	a1,sp,32
   10276:	1888                	addi	a0,sp,112
   10278:	584020ef          	jal	127fc <crypto_aead_encrypt>
   1027c:	e929                	bnez	a0,102ce <main+0x116>
   1027e:	5602                	lw	a2,32(sp)
   10280:	5692                	lw	a3,36(sp)
   10282:	188c                	addi	a1,sp,112
   10284:	00021537          	lui	a0,0x21
   10288:	53850513          	addi	a0,a0,1336 # 21538 <__clzsi2+0x9c>
   1028c:	3d7d                	jal	1014a <print_hex>
   1028e:	089c                	addi	a5,sp,80
   10290:	c43e                	sw	a5,8(sp)
   10292:	009c                	addi	a5,sp,64
   10294:	c23e                	sw	a5,4(sp)
   10296:	c002                	sw	zero,0(sp)
   10298:	4889                	li	a7,2
   1029a:	02c10813          	addi	a6,sp,44
   1029e:	5702                	lw	a4,32(sp)
   102a0:	5792                	lw	a5,36(sp)
   102a2:	1894                	addi	a3,sp,112
   102a4:	4601                	li	a2,0
   102a6:	082c                	addi	a1,sp,24
   102a8:	1088                	addi	a0,sp,96
   102aa:	4bb040ef          	jal	14f64 <crypto_aead_decrypt>
   102ae:	842a                	mv	s0,a0
   102b0:	e51d                	bnez	a0,102de <main+0x126>
   102b2:	1090                	addi	a2,sp,96
   102b4:	45e2                	lw	a1,24(sp)
   102b6:	00021537          	lui	a0,0x21
   102ba:	55850513          	addi	a0,a0,1368 # 21558 <__clzsi2+0xbc>
   102be:	005070ef          	jal	17ac2 <printf>
   102c2:	8522                	mv	a0,s0
   102c4:	40fa                	lw	ra,156(sp)
   102c6:	446a                	lw	s0,152(sp)
   102c8:	44da                	lw	s1,148(sp)
   102ca:	610d                	addi	sp,sp,160
   102cc:	8082                	ret
   102ce:	00021537          	lui	a0,0x21
   102d2:	52450513          	addi	a0,a0,1316 # 21524 <__clzsi2+0x88>
   102d6:	0ad070ef          	jal	17b82 <puts>
   102da:	547d                	li	s0,-1
   102dc:	b7dd                	j	102c2 <main+0x10a>
   102de:	00021537          	lui	a0,0x21
   102e2:	54450513          	addi	a0,a0,1348 # 21544 <__clzsi2+0xa8>
   102e6:	09d070ef          	jal	17b82 <puts>
   102ea:	547d                	li	s0,-1
   102ec:	bfd9                	j	102c2 <main+0x10a>

000102ee <P8>:
   102ee:	1101                	addi	sp,sp,-32
   102f0:	ce22                	sw	s0,28(sp)
   102f2:	cc26                	sw	s1,24(sp)
   102f4:	ca4a                	sw	s2,20(sp)
   102f6:	c84e                	sw	s3,16(sp)
   102f8:	c652                	sw	s4,12(sp)
   102fa:	5118                	lw	a4,32(a0)
   102fc:	515c                	lw	a5,36(a0)
   102fe:	00052383          	lw	t2,0(a0)
   10302:	00e3c3b3          	xor	t2,t2,a4
   10306:	00452283          	lw	t0,4(a0)
   1030a:	00f2c2b3          	xor	t0,t0,a5
   1030e:	01852f83          	lw	t6,24(a0)
   10312:	01c52f03          	lw	t5,28(a0)
   10316:	01f74733          	xor	a4,a4,t6
   1031a:	01e7c7b3          	xor	a5,a5,t5
   1031e:	4504                	lw	s1,8(a0)
   10320:	4540                	lw	s0,12(a0)
   10322:	4910                	lw	a2,16(a0)
   10324:	8e25                	xor	a2,a2,s1
   10326:	4954                	lw	a3,20(a0)
   10328:	8ea1                	xor	a3,a3,s0
   1032a:	0b464893          	xori	a7,a2,180
   1032e:	fff4ce93          	not	t4,s1
   10332:	fff44e13          	not	t3,s0
   10336:	011efeb3          	and	t4,t4,a7
   1033a:	00de7e33          	and	t3,t3,a3
   1033e:	007eceb3          	xor	t4,t4,t2
   10342:	005e4e33          	xor	t3,t3,t0
   10346:	ffffc813          	not	a6,t6
   1034a:	ffff4593          	not	a1,t5
   1034e:	00e87833          	and	a6,a6,a4
   10352:	8dfd                	and	a1,a1,a5
   10354:	01184833          	xor	a6,a6,a7
   10358:	8db5                	xor	a1,a1,a3
   1035a:	fff3c313          	not	t1,t2
   1035e:	fff2c893          	not	a7,t0
   10362:	00937333          	and	t1,t1,s1
   10366:	0088f8b3          	and	a7,a7,s0
   1036a:	00e34333          	xor	t1,t1,a4
   1036e:	00f8c8b3          	xor	a7,a7,a5
   10372:	f4b64613          	xori	a2,a2,-181
   10376:	fff6c693          	not	a3,a3
   1037a:	01f67633          	and	a2,a2,t6
   1037e:	01e6f6b3          	and	a3,a3,t5
   10382:	8e25                	xor	a2,a2,s1
   10384:	8ea1                	xor	a3,a3,s0
   10386:	01d64633          	xor	a2,a2,t4
   1038a:	01c6c6b3          	xor	a3,a3,t3
   1038e:	006eceb3          	xor	t4,t4,t1
   10392:	011e4e33          	xor	t3,t3,a7
   10396:	fff74713          	not	a4,a4
   1039a:	fff7c793          	not	a5,a5
   1039e:	00777733          	and	a4,a4,t2
   103a2:	0057f7b3          	and	a5,a5,t0
   103a6:	01074733          	xor	a4,a4,a6
   103aa:	8fad                	xor	a5,a5,a1
   103ac:	01f74733          	xor	a4,a4,t6
   103b0:	01e7c7b3          	xor	a5,a5,t5
   103b4:	fff84393          	not	t2,a6
   103b8:	fff5c293          	not	t0,a1
   103bc:	01d65413          	srli	s0,a2,0x1d
   103c0:	00369593          	slli	a1,a3,0x3
   103c4:	8c4d                	or	s0,s0,a1
   103c6:	01d6d493          	srli	s1,a3,0x1d
   103ca:	00361593          	slli	a1,a2,0x3
   103ce:	8ccd                	or	s1,s1,a1
   103d0:	00765593          	srli	a1,a2,0x7
   103d4:	01969813          	slli	a6,a3,0x19
   103d8:	0105e5b3          	or	a1,a1,a6
   103dc:	0076d813          	srli	a6,a3,0x7
   103e0:	01961f13          	slli	t5,a2,0x19
   103e4:	01e86833          	or	a6,a6,t5
   103e8:	0104c4b3          	xor	s1,s1,a6
   103ec:	8c2d                	xor	s0,s0,a1
   103ee:	8cb1                	xor	s1,s1,a2
   103f0:	8c35                	xor	s0,s0,a3
   103f2:	01679f93          	slli	t6,a5,0x16
   103f6:	00a75693          	srli	a3,a4,0xa
   103fa:	00dfefb3          	or	t6,t6,a3
   103fe:	01671f13          	slli	t5,a4,0x16
   10402:	00a7d693          	srli	a3,a5,0xa
   10406:	00df6f33          	or	t5,t5,a3
   1040a:	00f79613          	slli	a2,a5,0xf
   1040e:	01175693          	srli	a3,a4,0x11
   10412:	8e55                	or	a2,a2,a3
   10414:	00f71693          	slli	a3,a4,0xf
   10418:	0117d593          	srli	a1,a5,0x11
   1041c:	8ecd                	or	a3,a3,a1
   1041e:	00cfcfb3          	xor	t6,t6,a2
   10422:	00df4f33          	xor	t5,t5,a3
   10426:	00efcfb3          	xor	t6,t6,a4
   1042a:	00ff4f33          	xor	t5,t5,a5
   1042e:	01989613          	slli	a2,a7,0x19
   10432:	00735793          	srli	a5,t1,0x7
   10436:	8e5d                	or	a2,a2,a5
   10438:	01931693          	slli	a3,t1,0x19
   1043c:	0078d793          	srli	a5,a7,0x7
   10440:	8edd                	or	a3,a3,a5
   10442:	00935793          	srli	a5,t1,0x9
   10446:	01789713          	slli	a4,a7,0x17
   1044a:	8fd9                	or	a5,a5,a4
   1044c:	0098d713          	srli	a4,a7,0x9
   10450:	01731593          	slli	a1,t1,0x17
   10454:	8f4d                	or	a4,a4,a1
   10456:	8e39                	xor	a2,a2,a4
   10458:	8ebd                	xor	a3,a3,a5
   1045a:	00664633          	xor	a2,a2,t1
   1045e:	0116c6b3          	xor	a3,a3,a7
   10462:	01f29813          	slli	a6,t0,0x1f
   10466:	0013d793          	srli	a5,t2,0x1
   1046a:	00f86833          	or	a6,a6,a5
   1046e:	01f39593          	slli	a1,t2,0x1f
   10472:	0012d793          	srli	a5,t0,0x1
   10476:	8ddd                	or	a1,a1,a5
   10478:	01a29713          	slli	a4,t0,0x1a
   1047c:	0063d793          	srli	a5,t2,0x6
   10480:	8f5d                	or	a4,a4,a5
   10482:	01a39793          	slli	a5,t2,0x1a
   10486:	0062d893          	srli	a7,t0,0x6
   1048a:	0117e7b3          	or	a5,a5,a7
   1048e:	00e84833          	xor	a6,a6,a4
   10492:	8dbd                	xor	a1,a1,a5
   10494:	00784833          	xor	a6,a6,t2
   10498:	0055c5b3          	xor	a1,a1,t0
   1049c:	00984833          	xor	a6,a6,s1
   104a0:	8da1                	xor	a1,a1,s0
   104a2:	00de1393          	slli	t2,t3,0xd
   104a6:	013ed793          	srli	a5,t4,0x13
   104aa:	00f3e3b3          	or	t2,t2,a5
   104ae:	00de9293          	slli	t0,t4,0xd
   104b2:	013e5793          	srli	a5,t3,0x13
   104b6:	00f2e2b3          	or	t0,t0,a5
   104ba:	004e1713          	slli	a4,t3,0x4
   104be:	01ced793          	srli	a5,t4,0x1c
   104c2:	8f5d                	or	a4,a4,a5
   104c4:	004e9793          	slli	a5,t4,0x4
   104c8:	01ce5893          	srli	a7,t3,0x1c
   104cc:	0117e7b3          	or	a5,a5,a7
   104d0:	00e3c3b3          	xor	t2,t2,a4
   104d4:	00f2c2b3          	xor	t0,t0,a5
   104d8:	01d3c3b3          	xor	t2,t2,t4
   104dc:	01c2c2b3          	xor	t0,t0,t3
   104e0:	00c3c3b3          	xor	t2,t2,a2
   104e4:	00d2c2b3          	xor	t0,t0,a3
   104e8:	00cfc633          	xor	a2,t6,a2
   104ec:	00df46b3          	xor	a3,t5,a3
   104f0:	0a584893          	xori	a7,a6,165
   104f4:	fff4c913          	not	s2,s1
   104f8:	fff44e93          	not	t4,s0
   104fc:	01197933          	and	s2,s2,a7
   10500:	00befeb3          	and	t4,t4,a1
   10504:	00794933          	xor	s2,s2,t2
   10508:	005eceb3          	xor	t4,t4,t0
   1050c:	ffffc713          	not	a4,t6
   10510:	ffff4793          	not	a5,t5
   10514:	8f71                	and	a4,a4,a2
   10516:	8ff5                	and	a5,a5,a3
   10518:	01174733          	xor	a4,a4,a7
   1051c:	8fad                	xor	a5,a5,a1
   1051e:	fff3ce13          	not	t3,t2
   10522:	fff2c313          	not	t1,t0
   10526:	009e7e33          	and	t3,t3,s1
   1052a:	00837333          	and	t1,t1,s0
   1052e:	00ce4e33          	xor	t3,t3,a2
   10532:	00d34333          	xor	t1,t1,a3
   10536:	f5a84813          	xori	a6,a6,-166
   1053a:	fff5c593          	not	a1,a1
   1053e:	01f87833          	and	a6,a6,t6
   10542:	01e5f5b3          	and	a1,a1,t5
   10546:	00984833          	xor	a6,a6,s1
   1054a:	8da1                	xor	a1,a1,s0
   1054c:	01284833          	xor	a6,a6,s2
   10550:	01d5c5b3          	xor	a1,a1,t4
   10554:	01c948b3          	xor	a7,s2,t3
   10558:	006ec9b3          	xor	s3,t4,t1
   1055c:	fff64613          	not	a2,a2
   10560:	fff6c693          	not	a3,a3
   10564:	00767633          	and	a2,a2,t2
   10568:	0056f6b3          	and	a3,a3,t0
   1056c:	01f64633          	xor	a2,a2,t6
   10570:	01e6c6b3          	xor	a3,a3,t5
   10574:	8e39                	xor	a2,a2,a4
   10576:	8ebd                	xor	a3,a3,a5
   10578:	fff74713          	not	a4,a4
   1057c:	fff7c293          	not	t0,a5
   10580:	01d85413          	srli	s0,a6,0x1d
   10584:	00359793          	slli	a5,a1,0x3
   10588:	8c5d                	or	s0,s0,a5
   1058a:	01d5d493          	srli	s1,a1,0x1d
   1058e:	00381793          	slli	a5,a6,0x3
   10592:	8cdd                	or	s1,s1,a5
   10594:	00785793          	srli	a5,a6,0x7
   10598:	01959f13          	slli	t5,a1,0x19
   1059c:	01e7e7b3          	or	a5,a5,t5
   105a0:	0075df13          	srli	t5,a1,0x7
   105a4:	01981f93          	slli	t6,a6,0x19
   105a8:	01ff6f33          	or	t5,t5,t6
   105ac:	01e4c4b3          	xor	s1,s1,t5
   105b0:	8c3d                	xor	s0,s0,a5
   105b2:	0104c4b3          	xor	s1,s1,a6
   105b6:	8c2d                	xor	s0,s0,a1
   105b8:	01669f93          	slli	t6,a3,0x16
   105bc:	00a65793          	srli	a5,a2,0xa
   105c0:	00ffefb3          	or	t6,t6,a5
   105c4:	01661f13          	slli	t5,a2,0x16
   105c8:	00a6d793          	srli	a5,a3,0xa
   105cc:	00ff6f33          	or	t5,t5,a5
   105d0:	00f69593          	slli	a1,a3,0xf
   105d4:	01165793          	srli	a5,a2,0x11
   105d8:	8ddd                	or	a1,a1,a5
   105da:	00f61793          	slli	a5,a2,0xf
   105de:	0116d813          	srli	a6,a3,0x11
   105e2:	0107e7b3          	or	a5,a5,a6
   105e6:	00bfcfb3          	xor	t6,t6,a1
   105ea:	00ff4f33          	xor	t5,t5,a5
   105ee:	00cfcfb3          	xor	t6,t6,a2
   105f2:	00df4f33          	xor	t5,t5,a3
   105f6:	01931793          	slli	a5,t1,0x19
   105fa:	007e5693          	srli	a3,t3,0x7
   105fe:	8fd5                	or	a5,a5,a3
   10600:	019e1693          	slli	a3,t3,0x19
   10604:	00735613          	srli	a2,t1,0x7
   10608:	8ed1                	or	a3,a3,a2
   1060a:	009e5613          	srli	a2,t3,0x9
   1060e:	01731593          	slli	a1,t1,0x17
   10612:	8e4d                	or	a2,a2,a1
   10614:	00935593          	srli	a1,t1,0x9
   10618:	017e1813          	slli	a6,t3,0x17
   1061c:	0105e5b3          	or	a1,a1,a6
   10620:	8fad                	xor	a5,a5,a1
   10622:	8eb1                	xor	a3,a3,a2
   10624:	01f29813          	slli	a6,t0,0x1f
   10628:	00175613          	srli	a2,a4,0x1
   1062c:	00c86833          	or	a6,a6,a2
   10630:	01f71593          	slli	a1,a4,0x1f
   10634:	0012d613          	srli	a2,t0,0x1
   10638:	8dd1                	or	a1,a1,a2
   1063a:	01a29393          	slli	t2,t0,0x1a
   1063e:	00675613          	srli	a2,a4,0x6
   10642:	00c3e3b3          	or	t2,t2,a2
   10646:	01a71613          	slli	a2,a4,0x1a
   1064a:	0062da13          	srli	s4,t0,0x6
   1064e:	01466633          	or	a2,a2,s4
   10652:	00784833          	xor	a6,a6,t2
   10656:	8db1                	xor	a1,a1,a2
   10658:	00e84833          	xor	a6,a6,a4
   1065c:	0055c5b3          	xor	a1,a1,t0
   10660:	00984833          	xor	a6,a6,s1
   10664:	8da1                	xor	a1,a1,s0
   10666:	00d99393          	slli	t2,s3,0xd
   1066a:	0138d713          	srli	a4,a7,0x13
   1066e:	00e3e3b3          	or	t2,t2,a4
   10672:	00d89293          	slli	t0,a7,0xd
   10676:	0139d713          	srli	a4,s3,0x13
   1067a:	00e2e2b3          	or	t0,t0,a4
   1067e:	0127c933          	xor	s2,a5,s2
   10682:	01d6ceb3          	xor	t4,a3,t4
   10686:	0123c3b3          	xor	t2,t2,s2
   1068a:	01d2c2b3          	xor	t0,t0,t4
   1068e:	00499713          	slli	a4,s3,0x4
   10692:	01c8d613          	srli	a2,a7,0x1c
   10696:	8f51                	or	a4,a4,a2
   10698:	0892                	slli	a7,a7,0x4
   1069a:	01c9d993          	srli	s3,s3,0x1c
   1069e:	0138e8b3          	or	a7,a7,s3
   106a2:	00e3c3b3          	xor	t2,t2,a4
   106a6:	0112c2b3          	xor	t0,t0,a7
   106aa:	01c7c7b3          	xor	a5,a5,t3
   106ae:	0066c733          	xor	a4,a3,t1
   106b2:	01f7c7b3          	xor	a5,a5,t6
   106b6:	01e74733          	xor	a4,a4,t5
   106ba:	09684893          	xori	a7,a6,150
   106be:	fff4ce93          	not	t4,s1
   106c2:	fff44e13          	not	t3,s0
   106c6:	011efeb3          	and	t4,t4,a7
   106ca:	00be7e33          	and	t3,t3,a1
   106ce:	007eceb3          	xor	t4,t4,t2
   106d2:	005e4e33          	xor	t3,t3,t0
   106d6:	ffffc613          	not	a2,t6
   106da:	ffff4693          	not	a3,t5
   106de:	8e7d                	and	a2,a2,a5
   106e0:	8ef9                	and	a3,a3,a4
   106e2:	01164633          	xor	a2,a2,a7
   106e6:	8ead                	xor	a3,a3,a1
   106e8:	fff3c313          	not	t1,t2
   106ec:	fff2c893          	not	a7,t0
   106f0:	00937333          	and	t1,t1,s1
   106f4:	0088f8b3          	and	a7,a7,s0
   106f8:	00f34333          	xor	t1,t1,a5
   106fc:	00e8c8b3          	xor	a7,a7,a4
   10700:	f6984813          	xori	a6,a6,-151
   10704:	fff5c593          	not	a1,a1
   10708:	01f87833          	and	a6,a6,t6
   1070c:	01e5f5b3          	and	a1,a1,t5
   10710:	00984833          	xor	a6,a6,s1
   10714:	8da1                	xor	a1,a1,s0
   10716:	01d84833          	xor	a6,a6,t4
   1071a:	01c5c5b3          	xor	a1,a1,t3
   1071e:	006ec9b3          	xor	s3,t4,t1
   10722:	011e4933          	xor	s2,t3,a7
   10726:	fff7c793          	not	a5,a5
   1072a:	fff74713          	not	a4,a4
   1072e:	0077f7b3          	and	a5,a5,t2
   10732:	00577733          	and	a4,a4,t0
   10736:	01f7c7b3          	xor	a5,a5,t6
   1073a:	01e74733          	xor	a4,a4,t5
   1073e:	8fb1                	xor	a5,a5,a2
   10740:	8f35                	xor	a4,a4,a3
   10742:	fff64613          	not	a2,a2
   10746:	fff6c293          	not	t0,a3
   1074a:	01d85413          	srli	s0,a6,0x1d
   1074e:	00359693          	slli	a3,a1,0x3
   10752:	8c55                	or	s0,s0,a3
   10754:	01d5d493          	srli	s1,a1,0x1d
   10758:	00381693          	slli	a3,a6,0x3
   1075c:	8cd5                	or	s1,s1,a3
   1075e:	00785693          	srli	a3,a6,0x7
   10762:	01959f13          	slli	t5,a1,0x19
   10766:	01e6e6b3          	or	a3,a3,t5
   1076a:	0075df13          	srli	t5,a1,0x7
   1076e:	01981f93          	slli	t6,a6,0x19
   10772:	01ff6f33          	or	t5,t5,t6
   10776:	01e4c4b3          	xor	s1,s1,t5
   1077a:	8c35                	xor	s0,s0,a3
   1077c:	0104c4b3          	xor	s1,s1,a6
   10780:	8c2d                	xor	s0,s0,a1
   10782:	01671f93          	slli	t6,a4,0x16
   10786:	00a7d693          	srli	a3,a5,0xa
   1078a:	00dfefb3          	or	t6,t6,a3
   1078e:	01679f13          	slli	t5,a5,0x16
   10792:	00a75693          	srli	a3,a4,0xa
   10796:	00df6f33          	or	t5,t5,a3
   1079a:	00f71593          	slli	a1,a4,0xf
   1079e:	0117d693          	srli	a3,a5,0x11
   107a2:	8dd5                	or	a1,a1,a3
   107a4:	00f79693          	slli	a3,a5,0xf
   107a8:	01175813          	srli	a6,a4,0x11
   107ac:	0106e6b3          	or	a3,a3,a6
   107b0:	00bfcfb3          	xor	t6,t6,a1
   107b4:	00df4f33          	xor	t5,t5,a3
   107b8:	00ffcfb3          	xor	t6,t6,a5
   107bc:	00ef4f33          	xor	t5,t5,a4
   107c0:	01989693          	slli	a3,a7,0x19
   107c4:	00735793          	srli	a5,t1,0x7
   107c8:	8edd                	or	a3,a3,a5
   107ca:	01931713          	slli	a4,t1,0x19
   107ce:	0078d793          	srli	a5,a7,0x7
   107d2:	8f5d                	or	a4,a4,a5
   107d4:	00935793          	srli	a5,t1,0x9
   107d8:	01789593          	slli	a1,a7,0x17
   107dc:	8fcd                	or	a5,a5,a1
   107de:	0098d593          	srli	a1,a7,0x9
   107e2:	01731813          	slli	a6,t1,0x17
   107e6:	0105e5b3          	or	a1,a1,a6
   107ea:	8ead                	xor	a3,a3,a1
   107ec:	8f3d                	xor	a4,a4,a5
   107ee:	01f29813          	slli	a6,t0,0x1f
   107f2:	00165793          	srli	a5,a2,0x1
   107f6:	00f86833          	or	a6,a6,a5
   107fa:	01f61593          	slli	a1,a2,0x1f
   107fe:	0012d793          	srli	a5,t0,0x1
   10802:	8ddd                	or	a1,a1,a5
   10804:	01a29393          	slli	t2,t0,0x1a
   10808:	00665793          	srli	a5,a2,0x6
   1080c:	00f3e3b3          	or	t2,t2,a5
   10810:	01a61793          	slli	a5,a2,0x1a
   10814:	0062da13          	srli	s4,t0,0x6
   10818:	0147e7b3          	or	a5,a5,s4
   1081c:	00784833          	xor	a6,a6,t2
   10820:	8dbd                	xor	a1,a1,a5
   10822:	00c84833          	xor	a6,a6,a2
   10826:	0055c5b3          	xor	a1,a1,t0
   1082a:	00984833          	xor	a6,a6,s1
   1082e:	8da1                	xor	a1,a1,s0
   10830:	00d91393          	slli	t2,s2,0xd
   10834:	0139d793          	srli	a5,s3,0x13
   10838:	00f3e3b3          	or	t2,t2,a5
   1083c:	00d99293          	slli	t0,s3,0xd
   10840:	01395793          	srli	a5,s2,0x13
   10844:	00f2e2b3          	or	t0,t0,a5
   10848:	01d6ceb3          	xor	t4,a3,t4
   1084c:	01c74e33          	xor	t3,a4,t3
   10850:	01d3c3b3          	xor	t2,t2,t4
   10854:	01c2c2b3          	xor	t0,t0,t3
   10858:	00491613          	slli	a2,s2,0x4
   1085c:	01c9d793          	srli	a5,s3,0x1c
   10860:	8e5d                	or	a2,a2,a5
   10862:	00499793          	slli	a5,s3,0x4
   10866:	01c95913          	srli	s2,s2,0x1c
   1086a:	0127e7b3          	or	a5,a5,s2
   1086e:	00c3c3b3          	xor	t2,t2,a2
   10872:	00f2c2b3          	xor	t0,t0,a5
   10876:	0066c6b3          	xor	a3,a3,t1
   1087a:	01174633          	xor	a2,a4,a7
   1087e:	01f6c6b3          	xor	a3,a3,t6
   10882:	01e64633          	xor	a2,a2,t5
   10886:	08784793          	xori	a5,a6,135
   1088a:	fff4ce13          	not	t3,s1
   1088e:	fff44313          	not	t1,s0
   10892:	00fe7e33          	and	t3,t3,a5
   10896:	00b37333          	and	t1,t1,a1
   1089a:	007e4e33          	xor	t3,t3,t2
   1089e:	00534333          	xor	t1,t1,t0
   108a2:	ffffce93          	not	t4,t6
   108a6:	ffff4893          	not	a7,t5
   108aa:	00defeb3          	and	t4,t4,a3
   108ae:	00c8f8b3          	and	a7,a7,a2
   108b2:	00feceb3          	xor	t4,t4,a5
   108b6:	00b8c8b3          	xor	a7,a7,a1
   108ba:	fff3c713          	not	a4,t2
   108be:	fff2c793          	not	a5,t0
   108c2:	8f65                	and	a4,a4,s1
   108c4:	8fe1                	and	a5,a5,s0
   108c6:	8f35                	xor	a4,a4,a3
   108c8:	8fb1                	xor	a5,a5,a2
   108ca:	f7884813          	xori	a6,a6,-136
   108ce:	fff5c593          	not	a1,a1
   108d2:	01f87833          	and	a6,a6,t6
   108d6:	01e5f5b3          	and	a1,a1,t5
   108da:	00984833          	xor	a6,a6,s1
   108de:	8da1                	xor	a1,a1,s0
   108e0:	01c84833          	xor	a6,a6,t3
   108e4:	0065c5b3          	xor	a1,a1,t1
   108e8:	00ee49b3          	xor	s3,t3,a4
   108ec:	00f34933          	xor	s2,t1,a5
   108f0:	fff6c693          	not	a3,a3
   108f4:	fff64613          	not	a2,a2
   108f8:	0076f6b3          	and	a3,a3,t2
   108fc:	00567633          	and	a2,a2,t0
   10900:	01f6c6b3          	xor	a3,a3,t6
   10904:	01e64633          	xor	a2,a2,t5
   10908:	01d6c6b3          	xor	a3,a3,t4
   1090c:	01164633          	xor	a2,a2,a7
   10910:	fffece93          	not	t4,t4
   10914:	fff8c393          	not	t2,a7
   10918:	01d85893          	srli	a7,a6,0x1d
   1091c:	00359f13          	slli	t5,a1,0x3
   10920:	01e8e8b3          	or	a7,a7,t5
   10924:	01d5d493          	srli	s1,a1,0x1d
   10928:	00381f13          	slli	t5,a6,0x3
   1092c:	01e4e4b3          	or	s1,s1,t5
   10930:	00785f13          	srli	t5,a6,0x7
   10934:	01959f93          	slli	t6,a1,0x19
   10938:	01ff6f33          	or	t5,t5,t6
   1093c:	0075df93          	srli	t6,a1,0x7
   10940:	01981293          	slli	t0,a6,0x19
   10944:	005fefb3          	or	t6,t6,t0
   10948:	01f4c4b3          	xor	s1,s1,t6
   1094c:	01e8c8b3          	xor	a7,a7,t5
   10950:	0104c4b3          	xor	s1,s1,a6
   10954:	00b8c8b3          	xor	a7,a7,a1
   10958:	01661293          	slli	t0,a2,0x16
   1095c:	00a6d593          	srli	a1,a3,0xa
   10960:	00b2e2b3          	or	t0,t0,a1
   10964:	01669f93          	slli	t6,a3,0x16
   10968:	00a65593          	srli	a1,a2,0xa
   1096c:	00bfefb3          	or	t6,t6,a1
   10970:	00f61813          	slli	a6,a2,0xf
   10974:	0116d593          	srli	a1,a3,0x11
   10978:	00b86833          	or	a6,a6,a1
   1097c:	00f69593          	slli	a1,a3,0xf
   10980:	01165f13          	srli	t5,a2,0x11
   10984:	01e5e5b3          	or	a1,a1,t5
   10988:	0102c2b3          	xor	t0,t0,a6
   1098c:	00bfcfb3          	xor	t6,t6,a1
   10990:	00d2c2b3          	xor	t0,t0,a3
   10994:	00cfcfb3          	xor	t6,t6,a2
   10998:	01979f13          	slli	t5,a5,0x19
   1099c:	00775693          	srli	a3,a4,0x7
   109a0:	00df6f33          	or	t5,t5,a3
   109a4:	01971613          	slli	a2,a4,0x19
   109a8:	0077d693          	srli	a3,a5,0x7
   109ac:	8e55                	or	a2,a2,a3
   109ae:	00975693          	srli	a3,a4,0x9
   109b2:	01779593          	slli	a1,a5,0x17
   109b6:	8ecd                	or	a3,a3,a1
   109b8:	0097d593          	srli	a1,a5,0x9
   109bc:	01771813          	slli	a6,a4,0x17
   109c0:	0105e5b3          	or	a1,a1,a6
   109c4:	00bf4f33          	xor	t5,t5,a1
   109c8:	8e35                	xor	a2,a2,a3
   109ca:	01f39813          	slli	a6,t2,0x1f
   109ce:	001ed693          	srli	a3,t4,0x1
   109d2:	00d86833          	or	a6,a6,a3
   109d6:	01fe9593          	slli	a1,t4,0x1f
   109da:	0013d693          	srli	a3,t2,0x1
   109de:	8dd5                	or	a1,a1,a3
   109e0:	01a39413          	slli	s0,t2,0x1a
   109e4:	006ed693          	srli	a3,t4,0x6
   109e8:	8c55                	or	s0,s0,a3
   109ea:	01ae9693          	slli	a3,t4,0x1a
   109ee:	0063da13          	srli	s4,t2,0x6
   109f2:	0146e6b3          	or	a3,a3,s4
   109f6:	00884833          	xor	a6,a6,s0
   109fa:	8db5                	xor	a1,a1,a3
   109fc:	01d84833          	xor	a6,a6,t4
   10a00:	0075c5b3          	xor	a1,a1,t2
   10a04:	00984833          	xor	a6,a6,s1
   10a08:	0115c5b3          	xor	a1,a1,a7
   10a0c:	00d91413          	slli	s0,s2,0xd
   10a10:	0139d693          	srli	a3,s3,0x13
   10a14:	8c55                	or	s0,s0,a3
   10a16:	00d99393          	slli	t2,s3,0xd
   10a1a:	01395693          	srli	a3,s2,0x13
   10a1e:	00d3e3b3          	or	t2,t2,a3
   10a22:	01ee4e33          	xor	t3,t3,t5
   10a26:	00c34333          	xor	t1,t1,a2
   10a2a:	01c44433          	xor	s0,s0,t3
   10a2e:	0063c3b3          	xor	t2,t2,t1
   10a32:	00491313          	slli	t1,s2,0x4
   10a36:	01c9d693          	srli	a3,s3,0x1c
   10a3a:	00d36333          	or	t1,t1,a3
   10a3e:	00499693          	slli	a3,s3,0x4
   10a42:	01c95913          	srli	s2,s2,0x1c
   10a46:	0126e6b3          	or	a3,a3,s2
   10a4a:	00644433          	xor	s0,s0,t1
   10a4e:	00d3c3b3          	xor	t2,t2,a3
   10a52:	01e74733          	xor	a4,a4,t5
   10a56:	8fb1                	xor	a5,a5,a2
   10a58:	00574633          	xor	a2,a4,t0
   10a5c:	01f7c6b3          	xor	a3,a5,t6
   10a60:	07884793          	xori	a5,a6,120
   10a64:	fff4ce93          	not	t4,s1
   10a68:	fff8ce13          	not	t3,a7
   10a6c:	00fefeb3          	and	t4,t4,a5
   10a70:	00be7e33          	and	t3,t3,a1
   10a74:	008eceb3          	xor	t4,t4,s0
   10a78:	007e4e33          	xor	t3,t3,t2
   10a7c:	fff2cf13          	not	t5,t0
   10a80:	ffffc313          	not	t1,t6
   10a84:	00cf7f33          	and	t5,t5,a2
   10a88:	00d37333          	and	t1,t1,a3
   10a8c:	00ff4f33          	xor	t5,t5,a5
   10a90:	00b34333          	xor	t1,t1,a1
   10a94:	fff44713          	not	a4,s0
   10a98:	fff3c793          	not	a5,t2
   10a9c:	8f65                	and	a4,a4,s1
   10a9e:	0117f7b3          	and	a5,a5,a7
   10aa2:	8f31                	xor	a4,a4,a2
   10aa4:	8fb5                	xor	a5,a5,a3
   10aa6:	f8784813          	xori	a6,a6,-121
   10aaa:	fff5c593          	not	a1,a1
   10aae:	00587833          	and	a6,a6,t0
   10ab2:	01f5f5b3          	and	a1,a1,t6
   10ab6:	00984833          	xor	a6,a6,s1
   10aba:	0115c5b3          	xor	a1,a1,a7
   10abe:	01d84833          	xor	a6,a6,t4
   10ac2:	01c5c5b3          	xor	a1,a1,t3
   10ac6:	00eec8b3          	xor	a7,t4,a4
   10aca:	00fe49b3          	xor	s3,t3,a5
   10ace:	fff64613          	not	a2,a2
   10ad2:	fff6c693          	not	a3,a3
   10ad6:	8e61                	and	a2,a2,s0
   10ad8:	0076f6b3          	and	a3,a3,t2
   10adc:	00564633          	xor	a2,a2,t0
   10ae0:	01f6c6b3          	xor	a3,a3,t6
   10ae4:	01e64633          	xor	a2,a2,t5
   10ae8:	0066c6b3          	xor	a3,a3,t1
   10aec:	ffff4293          	not	t0,t5
   10af0:	fff34313          	not	t1,t1
   10af4:	01d85493          	srli	s1,a6,0x1d
   10af8:	00359f13          	slli	t5,a1,0x3
   10afc:	01e4e4b3          	or	s1,s1,t5
   10b00:	01d5d913          	srli	s2,a1,0x1d
   10b04:	00381f13          	slli	t5,a6,0x3
   10b08:	01e96933          	or	s2,s2,t5
   10b0c:	00785f13          	srli	t5,a6,0x7
   10b10:	01959f93          	slli	t6,a1,0x19
   10b14:	01ff6f33          	or	t5,t5,t6
   10b18:	0075df93          	srli	t6,a1,0x7
   10b1c:	01981393          	slli	t2,a6,0x19
   10b20:	007fefb3          	or	t6,t6,t2
   10b24:	01f94933          	xor	s2,s2,t6
   10b28:	01e4c4b3          	xor	s1,s1,t5
   10b2c:	01094933          	xor	s2,s2,a6
   10b30:	8cad                	xor	s1,s1,a1
   10b32:	01669f93          	slli	t6,a3,0x16
   10b36:	00a65593          	srli	a1,a2,0xa
   10b3a:	00bfefb3          	or	t6,t6,a1
   10b3e:	01661f13          	slli	t5,a2,0x16
   10b42:	00a6d593          	srli	a1,a3,0xa
   10b46:	00bf6f33          	or	t5,t5,a1
   10b4a:	00f69813          	slli	a6,a3,0xf
   10b4e:	01165593          	srli	a1,a2,0x11
   10b52:	00b86833          	or	a6,a6,a1
   10b56:	00f61593          	slli	a1,a2,0xf
   10b5a:	0116d393          	srli	t2,a3,0x11
   10b5e:	0075e5b3          	or	a1,a1,t2
   10b62:	010fcfb3          	xor	t6,t6,a6
   10b66:	00bf4f33          	xor	t5,t5,a1
   10b6a:	00cfcfb3          	xor	t6,t6,a2
   10b6e:	00df4f33          	xor	t5,t5,a3
   10b72:	01979613          	slli	a2,a5,0x19
   10b76:	00775693          	srli	a3,a4,0x7
   10b7a:	8e55                	or	a2,a2,a3
   10b7c:	01971693          	slli	a3,a4,0x19
   10b80:	0077d593          	srli	a1,a5,0x7
   10b84:	8ecd                	or	a3,a3,a1
   10b86:	00975593          	srli	a1,a4,0x9
   10b8a:	01779813          	slli	a6,a5,0x17
   10b8e:	0105e5b3          	or	a1,a1,a6
   10b92:	0097d813          	srli	a6,a5,0x9
   10b96:	01771393          	slli	t2,a4,0x17
   10b9a:	00786833          	or	a6,a6,t2
   10b9e:	01064633          	xor	a2,a2,a6
   10ba2:	8ead                	xor	a3,a3,a1
   10ba4:	01f31813          	slli	a6,t1,0x1f
   10ba8:	0012d593          	srli	a1,t0,0x1
   10bac:	00b86833          	or	a6,a6,a1
   10bb0:	01f29593          	slli	a1,t0,0x1f
   10bb4:	00135393          	srli	t2,t1,0x1
   10bb8:	0075e5b3          	or	a1,a1,t2
   10bbc:	01a31413          	slli	s0,t1,0x1a
   10bc0:	0062d393          	srli	t2,t0,0x6
   10bc4:	00746433          	or	s0,s0,t2
   10bc8:	01a29393          	slli	t2,t0,0x1a
   10bcc:	00635a13          	srli	s4,t1,0x6
   10bd0:	0143e3b3          	or	t2,t2,s4
   10bd4:	00884833          	xor	a6,a6,s0
   10bd8:	0075c5b3          	xor	a1,a1,t2
   10bdc:	00584833          	xor	a6,a6,t0
   10be0:	0065c5b3          	xor	a1,a1,t1
   10be4:	01284833          	xor	a6,a6,s2
   10be8:	8da5                	xor	a1,a1,s1
   10bea:	00ceceb3          	xor	t4,t4,a2
   10bee:	00de4e33          	xor	t3,t3,a3
   10bf2:	00d99293          	slli	t0,s3,0xd
   10bf6:	0138d313          	srli	t1,a7,0x13
   10bfa:	0062e2b3          	or	t0,t0,t1
   10bfe:	00d89313          	slli	t1,a7,0xd
   10c02:	0139d393          	srli	t2,s3,0x13
   10c06:	00736333          	or	t1,t1,t2
   10c0a:	005eceb3          	xor	t4,t4,t0
   10c0e:	006e4e33          	xor	t3,t3,t1
   10c12:	00499313          	slli	t1,s3,0x4
   10c16:	01c8d293          	srli	t0,a7,0x1c
   10c1a:	00536333          	or	t1,t1,t0
   10c1e:	0892                	slli	a7,a7,0x4
   10c20:	01c9d993          	srli	s3,s3,0x1c
   10c24:	0138e8b3          	or	a7,a7,s3
   10c28:	006eceb3          	xor	t4,t4,t1
   10c2c:	011e4e33          	xor	t3,t3,a7
   10c30:	8f31                	xor	a4,a4,a2
   10c32:	8fb5                	xor	a5,a5,a3
   10c34:	01f74633          	xor	a2,a4,t6
   10c38:	01e7c6b3          	xor	a3,a5,t5
   10c3c:	06984793          	xori	a5,a6,105
   10c40:	fff94413          	not	s0,s2
   10c44:	fff4c313          	not	t1,s1
   10c48:	8c7d                	and	s0,s0,a5
   10c4a:	00b37333          	and	t1,t1,a1
   10c4e:	01d44433          	xor	s0,s0,t4
   10c52:	01c34333          	xor	t1,t1,t3
   10c56:	ffffc393          	not	t2,t6
   10c5a:	ffff4293          	not	t0,t5
   10c5e:	00c3f3b3          	and	t2,t2,a2
   10c62:	00d2f2b3          	and	t0,t0,a3
   10c66:	00f3c3b3          	xor	t2,t2,a5
   10c6a:	00b2c2b3          	xor	t0,t0,a1
   10c6e:	fffec713          	not	a4,t4
   10c72:	fffe4793          	not	a5,t3
   10c76:	01277733          	and	a4,a4,s2
   10c7a:	8fe5                	and	a5,a5,s1
   10c7c:	8f31                	xor	a4,a4,a2
   10c7e:	8fb5                	xor	a5,a5,a3
   10c80:	f9684813          	xori	a6,a6,-106
   10c84:	fff5c593          	not	a1,a1
   10c88:	01f87833          	and	a6,a6,t6
   10c8c:	01e5f5b3          	and	a1,a1,t5
   10c90:	01284833          	xor	a6,a6,s2
   10c94:	8da5                	xor	a1,a1,s1
   10c96:	00884833          	xor	a6,a6,s0
   10c9a:	0065c5b3          	xor	a1,a1,t1
   10c9e:	00e448b3          	xor	a7,s0,a4
   10ca2:	00f349b3          	xor	s3,t1,a5
   10ca6:	fff64613          	not	a2,a2
   10caa:	fff6c693          	not	a3,a3
   10cae:	01d67633          	and	a2,a2,t4
   10cb2:	01c6f6b3          	and	a3,a3,t3
   10cb6:	01f64633          	xor	a2,a2,t6
   10cba:	01e6c6b3          	xor	a3,a3,t5
   10cbe:	00764633          	xor	a2,a2,t2
   10cc2:	0056c6b3          	xor	a3,a3,t0
   10cc6:	fff3c393          	not	t2,t2
   10cca:	fff2c293          	not	t0,t0
   10cce:	01d85493          	srli	s1,a6,0x1d
   10cd2:	00359e13          	slli	t3,a1,0x3
   10cd6:	01c4e4b3          	or	s1,s1,t3
   10cda:	01d5d913          	srli	s2,a1,0x1d
   10cde:	00381e13          	slli	t3,a6,0x3
   10ce2:	01c96933          	or	s2,s2,t3
   10ce6:	00785e13          	srli	t3,a6,0x7
   10cea:	01959e93          	slli	t4,a1,0x19
   10cee:	01de6e33          	or	t3,t3,t4
   10cf2:	0075de93          	srli	t4,a1,0x7
   10cf6:	01981f13          	slli	t5,a6,0x19
   10cfa:	01eeeeb3          	or	t4,t4,t5
   10cfe:	01d94933          	xor	s2,s2,t4
   10d02:	01c4c4b3          	xor	s1,s1,t3
   10d06:	01094933          	xor	s2,s2,a6
   10d0a:	8cad                	xor	s1,s1,a1
   10d0c:	01669f13          	slli	t5,a3,0x16
   10d10:	00a65593          	srli	a1,a2,0xa
   10d14:	00bf6f33          	or	t5,t5,a1
   10d18:	01661e93          	slli	t4,a2,0x16
   10d1c:	00a6d593          	srli	a1,a3,0xa
   10d20:	00beeeb3          	or	t4,t4,a1
   10d24:	00f69813          	slli	a6,a3,0xf
   10d28:	01165593          	srli	a1,a2,0x11
   10d2c:	00b86833          	or	a6,a6,a1
   10d30:	00f61593          	slli	a1,a2,0xf
   10d34:	0116de13          	srli	t3,a3,0x11
   10d38:	01c5e5b3          	or	a1,a1,t3
   10d3c:	010f4f33          	xor	t5,t5,a6
   10d40:	00beceb3          	xor	t4,t4,a1
   10d44:	00cf4f33          	xor	t5,t5,a2
   10d48:	00deceb3          	xor	t4,t4,a3
   10d4c:	01979613          	slli	a2,a5,0x19
   10d50:	00775693          	srli	a3,a4,0x7
   10d54:	8e55                	or	a2,a2,a3
   10d56:	01971693          	slli	a3,a4,0x19
   10d5a:	0077d593          	srli	a1,a5,0x7
   10d5e:	8ecd                	or	a3,a3,a1
   10d60:	00975593          	srli	a1,a4,0x9
   10d64:	01779813          	slli	a6,a5,0x17
   10d68:	0105e5b3          	or	a1,a1,a6
   10d6c:	0097d813          	srli	a6,a5,0x9
   10d70:	01771e13          	slli	t3,a4,0x17
   10d74:	01c86833          	or	a6,a6,t3
   10d78:	01064633          	xor	a2,a2,a6
   10d7c:	8ead                	xor	a3,a3,a1
   10d7e:	01f29813          	slli	a6,t0,0x1f
   10d82:	0013d593          	srli	a1,t2,0x1
   10d86:	00b86833          	or	a6,a6,a1
   10d8a:	01f39593          	slli	a1,t2,0x1f
   10d8e:	0012de13          	srli	t3,t0,0x1
   10d92:	01c5e5b3          	or	a1,a1,t3
   10d96:	01a29f93          	slli	t6,t0,0x1a
   10d9a:	0063de13          	srli	t3,t2,0x6
   10d9e:	01cfefb3          	or	t6,t6,t3
   10da2:	01a39e13          	slli	t3,t2,0x1a
   10da6:	0062da13          	srli	s4,t0,0x6
   10daa:	014e6e33          	or	t3,t3,s4
   10dae:	01f84833          	xor	a6,a6,t6
   10db2:	01c5c5b3          	xor	a1,a1,t3
   10db6:	00784833          	xor	a6,a6,t2
   10dba:	0055c5b3          	xor	a1,a1,t0
   10dbe:	01284833          	xor	a6,a6,s2
   10dc2:	8da5                	xor	a1,a1,s1
   10dc4:	8c31                	xor	s0,s0,a2
   10dc6:	00d34333          	xor	t1,t1,a3
   10dca:	00d99f93          	slli	t6,s3,0xd
   10dce:	0138de13          	srli	t3,a7,0x13
   10dd2:	01cfefb3          	or	t6,t6,t3
   10dd6:	00d89e13          	slli	t3,a7,0xd
   10dda:	0139d293          	srli	t0,s3,0x13
   10dde:	005e6e33          	or	t3,t3,t0
   10de2:	01f44433          	xor	s0,s0,t6
   10de6:	01c34333          	xor	t1,t1,t3
   10dea:	00499e13          	slli	t3,s3,0x4
   10dee:	01c8df93          	srli	t6,a7,0x1c
   10df2:	01fe6e33          	or	t3,t3,t6
   10df6:	0892                	slli	a7,a7,0x4
   10df8:	01c9d993          	srli	s3,s3,0x1c
   10dfc:	0138e8b3          	or	a7,a7,s3
   10e00:	01c44433          	xor	s0,s0,t3
   10e04:	01134333          	xor	t1,t1,a7
   10e08:	8f31                	xor	a4,a4,a2
   10e0a:	8fb5                	xor	a5,a5,a3
   10e0c:	01e74633          	xor	a2,a4,t5
   10e10:	01d7c6b3          	xor	a3,a5,t4
   10e14:	05a84793          	xori	a5,a6,90
   10e18:	fff94293          	not	t0,s2
   10e1c:	fff4cf93          	not	t6,s1
   10e20:	00f2f2b3          	and	t0,t0,a5
   10e24:	00bfffb3          	and	t6,t6,a1
   10e28:	0082c2b3          	xor	t0,t0,s0
   10e2c:	006fcfb3          	xor	t6,t6,t1
   10e30:	ffff4393          	not	t2,t5
   10e34:	fffece13          	not	t3,t4
   10e38:	00c3f3b3          	and	t2,t2,a2
   10e3c:	00de7e33          	and	t3,t3,a3
   10e40:	00f3c3b3          	xor	t2,t2,a5
   10e44:	00be4e33          	xor	t3,t3,a1
   10e48:	fff44713          	not	a4,s0
   10e4c:	fff34793          	not	a5,t1
   10e50:	01277733          	and	a4,a4,s2
   10e54:	8fe5                	and	a5,a5,s1
   10e56:	8f31                	xor	a4,a4,a2
   10e58:	8fb5                	xor	a5,a5,a3
   10e5a:	fa584813          	xori	a6,a6,-91
   10e5e:	fff5c593          	not	a1,a1
   10e62:	01e87833          	and	a6,a6,t5
   10e66:	01d5f5b3          	and	a1,a1,t4
   10e6a:	01284833          	xor	a6,a6,s2
   10e6e:	8da5                	xor	a1,a1,s1
   10e70:	00584833          	xor	a6,a6,t0
   10e74:	01f5c5b3          	xor	a1,a1,t6
   10e78:	00e2c8b3          	xor	a7,t0,a4
   10e7c:	00ffc4b3          	xor	s1,t6,a5
   10e80:	fff64613          	not	a2,a2
   10e84:	fff6c693          	not	a3,a3
   10e88:	8e61                	and	a2,a2,s0
   10e8a:	0066f6b3          	and	a3,a3,t1
   10e8e:	01e64633          	xor	a2,a2,t5
   10e92:	01d6c6b3          	xor	a3,a3,t4
   10e96:	00764633          	xor	a2,a2,t2
   10e9a:	01c6c6b3          	xor	a3,a3,t3
   10e9e:	fff3c393          	not	t2,t2
   10ea2:	fffe4e13          	not	t3,t3
   10ea6:	01d85f13          	srli	t5,a6,0x1d
   10eaa:	00359313          	slli	t1,a1,0x3
   10eae:	006f6f33          	or	t5,t5,t1
   10eb2:	01d5d413          	srli	s0,a1,0x1d
   10eb6:	00381313          	slli	t1,a6,0x3
   10eba:	00646433          	or	s0,s0,t1
   10ebe:	00785313          	srli	t1,a6,0x7
   10ec2:	01959e93          	slli	t4,a1,0x19
   10ec6:	01d36333          	or	t1,t1,t4
   10eca:	0075de93          	srli	t4,a1,0x7
   10ece:	01981913          	slli	s2,a6,0x19
   10ed2:	012eeeb3          	or	t4,t4,s2
   10ed6:	01d44433          	xor	s0,s0,t4
   10eda:	006f4f33          	xor	t5,t5,t1
   10ede:	01044433          	xor	s0,s0,a6
   10ee2:	00bf4f33          	xor	t5,t5,a1
   10ee6:	01669e93          	slli	t4,a3,0x16
   10eea:	00a65593          	srli	a1,a2,0xa
   10eee:	00beeeb3          	or	t4,t4,a1
   10ef2:	01661313          	slli	t1,a2,0x16
   10ef6:	00a6d593          	srli	a1,a3,0xa
   10efa:	00b36333          	or	t1,t1,a1
   10efe:	00f69813          	slli	a6,a3,0xf
   10f02:	01165593          	srli	a1,a2,0x11
   10f06:	00b86833          	or	a6,a6,a1
   10f0a:	00f61593          	slli	a1,a2,0xf
   10f0e:	0116d913          	srli	s2,a3,0x11
   10f12:	0125e5b3          	or	a1,a1,s2
   10f16:	010eceb3          	xor	t4,t4,a6
   10f1a:	00b34333          	xor	t1,t1,a1
   10f1e:	00ceceb3          	xor	t4,t4,a2
   10f22:	00d34333          	xor	t1,t1,a3
   10f26:	01979593          	slli	a1,a5,0x19
   10f2a:	00775693          	srli	a3,a4,0x7
   10f2e:	8dd5                	or	a1,a1,a3
   10f30:	01971613          	slli	a2,a4,0x19
   10f34:	0077d693          	srli	a3,a5,0x7
   10f38:	8e55                	or	a2,a2,a3
   10f3a:	00975693          	srli	a3,a4,0x9
   10f3e:	01779813          	slli	a6,a5,0x17
   10f42:	0106e6b3          	or	a3,a3,a6
   10f46:	0097d813          	srli	a6,a5,0x9
   10f4a:	01771913          	slli	s2,a4,0x17
   10f4e:	01286833          	or	a6,a6,s2
   10f52:	0105c5b3          	xor	a1,a1,a6
   10f56:	8e35                	xor	a2,a2,a3
   10f58:	01fe1813          	slli	a6,t3,0x1f
   10f5c:	0013d693          	srli	a3,t2,0x1
   10f60:	00d86833          	or	a6,a6,a3
   10f64:	01f39693          	slli	a3,t2,0x1f
   10f68:	001e5913          	srli	s2,t3,0x1
   10f6c:	0126e6b3          	or	a3,a3,s2
   10f70:	01ae1993          	slli	s3,t3,0x1a
   10f74:	0063d913          	srli	s2,t2,0x6
   10f78:	0129e9b3          	or	s3,s3,s2
   10f7c:	01a39913          	slli	s2,t2,0x1a
   10f80:	006e5a13          	srli	s4,t3,0x6
   10f84:	01496933          	or	s2,s2,s4
   10f88:	01384833          	xor	a6,a6,s3
   10f8c:	0126c6b3          	xor	a3,a3,s2
   10f90:	00784833          	xor	a6,a6,t2
   10f94:	01c6c6b3          	xor	a3,a3,t3
   10f98:	00884833          	xor	a6,a6,s0
   10f9c:	01e6c6b3          	xor	a3,a3,t5
   10fa0:	00d49393          	slli	t2,s1,0xd
   10fa4:	0138de13          	srli	t3,a7,0x13
   10fa8:	01c3e3b3          	or	t2,t2,t3
   10fac:	00d89e13          	slli	t3,a7,0xd
   10fb0:	0134d913          	srli	s2,s1,0x13
   10fb4:	012e6e33          	or	t3,t3,s2
   10fb8:	00b2c2b3          	xor	t0,t0,a1
   10fbc:	00cfcfb3          	xor	t6,t6,a2
   10fc0:	0053c2b3          	xor	t0,t2,t0
   10fc4:	01fe4fb3          	xor	t6,t3,t6
   10fc8:	00449e13          	slli	t3,s1,0x4
   10fcc:	01c8d393          	srli	t2,a7,0x1c
   10fd0:	007e6e33          	or	t3,t3,t2
   10fd4:	0892                	slli	a7,a7,0x4
   10fd6:	80f1                	srli	s1,s1,0x1c
   10fd8:	0098e8b3          	or	a7,a7,s1
   10fdc:	01c2c2b3          	xor	t0,t0,t3
   10fe0:	011fcfb3          	xor	t6,t6,a7
   10fe4:	8f2d                	xor	a4,a4,a1
   10fe6:	8fb1                	xor	a5,a5,a2
   10fe8:	01d74733          	xor	a4,a4,t4
   10fec:	0067c7b3          	xor	a5,a5,t1
   10ff0:	04b84893          	xori	a7,a6,75
   10ff4:	fff44393          	not	t2,s0
   10ff8:	ffff4493          	not	s1,t5
   10ffc:	0113f3b3          	and	t2,t2,a7
   11000:	8cf5                	and	s1,s1,a3
   11002:	0053c3b3          	xor	t2,t2,t0
   11006:	01f4c4b3          	xor	s1,s1,t6
   1100a:	fffec593          	not	a1,t4
   1100e:	fff34613          	not	a2,t1
   11012:	8df9                	and	a1,a1,a4
   11014:	8e7d                	and	a2,a2,a5
   11016:	0115c5b3          	xor	a1,a1,a7
   1101a:	8e35                	xor	a2,a2,a3
   1101c:	fff2ce13          	not	t3,t0
   11020:	ffffc893          	not	a7,t6
   11024:	008e7e33          	and	t3,t3,s0
   11028:	01e8f8b3          	and	a7,a7,t5
   1102c:	00ee4e33          	xor	t3,t3,a4
   11030:	00f8c8b3          	xor	a7,a7,a5
   11034:	fb484813          	xori	a6,a6,-76
   11038:	fff6c693          	not	a3,a3
   1103c:	01d87833          	and	a6,a6,t4
   11040:	0066f6b3          	and	a3,a3,t1
   11044:	00884833          	xor	a6,a6,s0
   11048:	01e6c6b3          	xor	a3,a3,t5
   1104c:	00784833          	xor	a6,a6,t2
   11050:	8ea5                	xor	a3,a3,s1
   11052:	01c3c3b3          	xor	t2,t2,t3
   11056:	0114cf33          	xor	t5,s1,a7
   1105a:	fff74713          	not	a4,a4
   1105e:	fff7c793          	not	a5,a5
   11062:	00577733          	and	a4,a4,t0
   11066:	01f7f7b3          	and	a5,a5,t6
   1106a:	01d74733          	xor	a4,a4,t4
   1106e:	0067c7b3          	xor	a5,a5,t1
   11072:	8f2d                	xor	a4,a4,a1
   11074:	8fb1                	xor	a5,a5,a2
   11076:	fff5cf93          	not	t6,a1
   1107a:	fff64613          	not	a2,a2
   1107e:	00df1593          	slli	a1,t5,0xd
   11082:	0133d313          	srli	t1,t2,0x13
   11086:	0065e5b3          	or	a1,a1,t1
   1108a:	00d39313          	slli	t1,t2,0xd
   1108e:	013f5e93          	srli	t4,t5,0x13
   11092:	01d36333          	or	t1,t1,t4
   11096:	004f1293          	slli	t0,t5,0x4
   1109a:	01c3de93          	srli	t4,t2,0x1c
   1109e:	01d2e2b3          	or	t0,t0,t4
   110a2:	00439e93          	slli	t4,t2,0x4
   110a6:	01cf5413          	srli	s0,t5,0x1c
   110aa:	008eeeb3          	or	t4,t4,s0
   110ae:	0055c5b3          	xor	a1,a1,t0
   110b2:	01d34333          	xor	t1,t1,t4
   110b6:	0075c5b3          	xor	a1,a1,t2
   110ba:	c10c                	sw	a1,0(a0)
   110bc:	01e34333          	xor	t1,t1,t5
   110c0:	00652223          	sw	t1,4(a0)
   110c4:	01d85313          	srli	t1,a6,0x1d
   110c8:	00369593          	slli	a1,a3,0x3
   110cc:	00b36333          	or	t1,t1,a1
   110d0:	01d6de93          	srli	t4,a3,0x1d
   110d4:	00381593          	slli	a1,a6,0x3
   110d8:	00beeeb3          	or	t4,t4,a1
   110dc:	00785593          	srli	a1,a6,0x7
   110e0:	01969f13          	slli	t5,a3,0x19
   110e4:	01e5e5b3          	or	a1,a1,t5
   110e8:	0076df13          	srli	t5,a3,0x7
   110ec:	01981293          	slli	t0,a6,0x19
   110f0:	005f6f33          	or	t5,t5,t0
   110f4:	01eeceb3          	xor	t4,t4,t5
   110f8:	00b34333          	xor	t1,t1,a1
   110fc:	010ec833          	xor	a6,t4,a6
   11100:	01052423          	sw	a6,8(a0)
   11104:	00d346b3          	xor	a3,t1,a3
   11108:	c554                	sw	a3,12(a0)
   1110a:	01f61593          	slli	a1,a2,0x1f
   1110e:	001fd693          	srli	a3,t6,0x1
   11112:	8dd5                	or	a1,a1,a3
   11114:	01ff9693          	slli	a3,t6,0x1f
   11118:	00165813          	srli	a6,a2,0x1
   1111c:	0106e6b3          	or	a3,a3,a6
   11120:	01a61313          	slli	t1,a2,0x1a
   11124:	006fd813          	srli	a6,t6,0x6
   11128:	01036333          	or	t1,t1,a6
   1112c:	01af9813          	slli	a6,t6,0x1a
   11130:	00665e93          	srli	t4,a2,0x6
   11134:	01d86833          	or	a6,a6,t4
   11138:	0065c5b3          	xor	a1,a1,t1
   1113c:	0106c6b3          	xor	a3,a3,a6
   11140:	01f5c5b3          	xor	a1,a1,t6
   11144:	c90c                	sw	a1,16(a0)
   11146:	8e35                	xor	a2,a2,a3
   11148:	c950                	sw	a2,20(a0)
   1114a:	01679613          	slli	a2,a5,0x16
   1114e:	00a75693          	srli	a3,a4,0xa
   11152:	8e55                	or	a2,a2,a3
   11154:	01671693          	slli	a3,a4,0x16
   11158:	00a7d593          	srli	a1,a5,0xa
   1115c:	8ecd                	or	a3,a3,a1
   1115e:	00f79813          	slli	a6,a5,0xf
   11162:	01175593          	srli	a1,a4,0x11
   11166:	00b86833          	or	a6,a6,a1
   1116a:	00f71593          	slli	a1,a4,0xf
   1116e:	0117d313          	srli	t1,a5,0x11
   11172:	0065e5b3          	or	a1,a1,t1
   11176:	01064633          	xor	a2,a2,a6
   1117a:	8ead                	xor	a3,a3,a1
   1117c:	8f31                	xor	a4,a4,a2
   1117e:	cd18                	sw	a4,24(a0)
   11180:	8fb5                	xor	a5,a5,a3
   11182:	cd5c                	sw	a5,28(a0)
   11184:	01989713          	slli	a4,a7,0x19
   11188:	007e5793          	srli	a5,t3,0x7
   1118c:	8f5d                	or	a4,a4,a5
   1118e:	019e1793          	slli	a5,t3,0x19
   11192:	0078d693          	srli	a3,a7,0x7
   11196:	8fd5                	or	a5,a5,a3
   11198:	009e5693          	srli	a3,t3,0x9
   1119c:	01789613          	slli	a2,a7,0x17
   111a0:	8ed1                	or	a3,a3,a2
   111a2:	0098d613          	srli	a2,a7,0x9
   111a6:	017e1593          	slli	a1,t3,0x17
   111aa:	8e4d                	or	a2,a2,a1
   111ac:	8f31                	xor	a4,a4,a2
   111ae:	8fb5                	xor	a5,a5,a3
   111b0:	01c74733          	xor	a4,a4,t3
   111b4:	d118                	sw	a4,32(a0)
   111b6:	0117c7b3          	xor	a5,a5,a7
   111ba:	d15c                	sw	a5,36(a0)
   111bc:	4472                	lw	s0,28(sp)
   111be:	44e2                	lw	s1,24(sp)
   111c0:	4952                	lw	s2,20(sp)
   111c2:	49c2                	lw	s3,16(sp)
   111c4:	4a32                	lw	s4,12(sp)
   111c6:	6105                	addi	sp,sp,32
   111c8:	8082                	ret

000111ca <P12>:
   111ca:	1101                	addi	sp,sp,-32
   111cc:	ce22                	sw	s0,28(sp)
   111ce:	cc26                	sw	s1,24(sp)
   111d0:	ca4a                	sw	s2,20(sp)
   111d2:	c84e                	sw	s3,16(sp)
   111d4:	c652                	sw	s4,12(sp)
   111d6:	5118                	lw	a4,32(a0)
   111d8:	515c                	lw	a5,36(a0)
   111da:	00052383          	lw	t2,0(a0)
   111de:	00e3c3b3          	xor	t2,t2,a4
   111e2:	00452283          	lw	t0,4(a0)
   111e6:	00f2c2b3          	xor	t0,t0,a5
   111ea:	01852f83          	lw	t6,24(a0)
   111ee:	01c52f03          	lw	t5,28(a0)
   111f2:	01f74733          	xor	a4,a4,t6
   111f6:	01e7c7b3          	xor	a5,a5,t5
   111fa:	4504                	lw	s1,8(a0)
   111fc:	4540                	lw	s0,12(a0)
   111fe:	4910                	lw	a2,16(a0)
   11200:	8e25                	xor	a2,a2,s1
   11202:	4954                	lw	a3,20(a0)
   11204:	8ea1                	xor	a3,a3,s0
   11206:	0f064893          	xori	a7,a2,240
   1120a:	fff4ce93          	not	t4,s1
   1120e:	fff44e13          	not	t3,s0
   11212:	011efeb3          	and	t4,t4,a7
   11216:	00de7e33          	and	t3,t3,a3
   1121a:	007eceb3          	xor	t4,t4,t2
   1121e:	005e4e33          	xor	t3,t3,t0
   11222:	ffffc813          	not	a6,t6
   11226:	ffff4593          	not	a1,t5
   1122a:	00e87833          	and	a6,a6,a4
   1122e:	8dfd                	and	a1,a1,a5
   11230:	01184833          	xor	a6,a6,a7
   11234:	8db5                	xor	a1,a1,a3
   11236:	fff3c313          	not	t1,t2
   1123a:	fff2c893          	not	a7,t0
   1123e:	00937333          	and	t1,t1,s1
   11242:	0088f8b3          	and	a7,a7,s0
   11246:	00e34333          	xor	t1,t1,a4
   1124a:	00f8c8b3          	xor	a7,a7,a5
   1124e:	f0f64613          	xori	a2,a2,-241
   11252:	fff6c693          	not	a3,a3
   11256:	01f67633          	and	a2,a2,t6
   1125a:	01e6f6b3          	and	a3,a3,t5
   1125e:	8e25                	xor	a2,a2,s1
   11260:	8ea1                	xor	a3,a3,s0
   11262:	01d64633          	xor	a2,a2,t4
   11266:	01c6c6b3          	xor	a3,a3,t3
   1126a:	006eceb3          	xor	t4,t4,t1
   1126e:	011e4e33          	xor	t3,t3,a7
   11272:	fff74713          	not	a4,a4
   11276:	fff7c793          	not	a5,a5
   1127a:	00777733          	and	a4,a4,t2
   1127e:	0057f7b3          	and	a5,a5,t0
   11282:	01074733          	xor	a4,a4,a6
   11286:	8fad                	xor	a5,a5,a1
   11288:	01f74733          	xor	a4,a4,t6
   1128c:	01e7c7b3          	xor	a5,a5,t5
   11290:	fff84f93          	not	t6,a6
   11294:	fff5cf13          	not	t5,a1
   11298:	01d65913          	srli	s2,a2,0x1d
   1129c:	00369593          	slli	a1,a3,0x3
   112a0:	00b96933          	or	s2,s2,a1
   112a4:	01d6d993          	srli	s3,a3,0x1d
   112a8:	00361593          	slli	a1,a2,0x3
   112ac:	00b9e9b3          	or	s3,s3,a1
   112b0:	00765593          	srli	a1,a2,0x7
   112b4:	01969813          	slli	a6,a3,0x19
   112b8:	0105e5b3          	or	a1,a1,a6
   112bc:	0076d813          	srli	a6,a3,0x7
   112c0:	01961293          	slli	t0,a2,0x19
   112c4:	00586833          	or	a6,a6,t0
   112c8:	0109c9b3          	xor	s3,s3,a6
   112cc:	00b94933          	xor	s2,s2,a1
   112d0:	00c9c9b3          	xor	s3,s3,a2
   112d4:	00d94933          	xor	s2,s2,a3
   112d8:	01679393          	slli	t2,a5,0x16
   112dc:	00a75693          	srli	a3,a4,0xa
   112e0:	00d3e3b3          	or	t2,t2,a3
   112e4:	01671293          	slli	t0,a4,0x16
   112e8:	00a7d693          	srli	a3,a5,0xa
   112ec:	00d2e2b3          	or	t0,t0,a3
   112f0:	00f79613          	slli	a2,a5,0xf
   112f4:	01175693          	srli	a3,a4,0x11
   112f8:	8e55                	or	a2,a2,a3
   112fa:	00f71693          	slli	a3,a4,0xf
   112fe:	0117d593          	srli	a1,a5,0x11
   11302:	8ecd                	or	a3,a3,a1
   11304:	00c3c3b3          	xor	t2,t2,a2
   11308:	00d2c2b3          	xor	t0,t0,a3
   1130c:	00e3c3b3          	xor	t2,t2,a4
   11310:	00f2c2b3          	xor	t0,t0,a5
   11314:	01989613          	slli	a2,a7,0x19
   11318:	00735793          	srli	a5,t1,0x7
   1131c:	8e5d                	or	a2,a2,a5
   1131e:	01931793          	slli	a5,t1,0x19
   11322:	0078d713          	srli	a4,a7,0x7
   11326:	8fd9                	or	a5,a5,a4
   11328:	00935713          	srli	a4,t1,0x9
   1132c:	01789693          	slli	a3,a7,0x17
   11330:	8f55                	or	a4,a4,a3
   11332:	0098d693          	srli	a3,a7,0x9
   11336:	01731593          	slli	a1,t1,0x17
   1133a:	8ecd                	or	a3,a3,a1
   1133c:	8e35                	xor	a2,a2,a3
   1133e:	8fb9                	xor	a5,a5,a4
   11340:	00664633          	xor	a2,a2,t1
   11344:	0117c7b3          	xor	a5,a5,a7
   11348:	01ff1813          	slli	a6,t5,0x1f
   1134c:	001fd713          	srli	a4,t6,0x1
   11350:	00e86833          	or	a6,a6,a4
   11354:	01ff9593          	slli	a1,t6,0x1f
   11358:	001f5713          	srli	a4,t5,0x1
   1135c:	8dd9                	or	a1,a1,a4
   1135e:	01af1693          	slli	a3,t5,0x1a
   11362:	006fd713          	srli	a4,t6,0x6
   11366:	8ed9                	or	a3,a3,a4
   11368:	01af9713          	slli	a4,t6,0x1a
   1136c:	006f5893          	srli	a7,t5,0x6
   11370:	01176733          	or	a4,a4,a7
   11374:	00d84833          	xor	a6,a6,a3
   11378:	8db9                	xor	a1,a1,a4
   1137a:	01f84833          	xor	a6,a6,t6
   1137e:	01e5c5b3          	xor	a1,a1,t5
   11382:	01384833          	xor	a6,a6,s3
   11386:	0125c5b3          	xor	a1,a1,s2
   1138a:	00de1493          	slli	s1,t3,0xd
   1138e:	013ed713          	srli	a4,t4,0x13
   11392:	8cd9                	or	s1,s1,a4
   11394:	00de9413          	slli	s0,t4,0xd
   11398:	013e5713          	srli	a4,t3,0x13
   1139c:	8c59                	or	s0,s0,a4
   1139e:	004e1693          	slli	a3,t3,0x4
   113a2:	01ced713          	srli	a4,t4,0x1c
   113a6:	8ed9                	or	a3,a3,a4
   113a8:	004e9713          	slli	a4,t4,0x4
   113ac:	01ce5893          	srli	a7,t3,0x1c
   113b0:	01176733          	or	a4,a4,a7
   113b4:	8cb5                	xor	s1,s1,a3
   113b6:	8c39                	xor	s0,s0,a4
   113b8:	01d4c4b3          	xor	s1,s1,t4
   113bc:	01c44433          	xor	s0,s0,t3
   113c0:	8cb1                	xor	s1,s1,a2
   113c2:	8c3d                	xor	s0,s0,a5
   113c4:	00c3c633          	xor	a2,t2,a2
   113c8:	00f2c7b3          	xor	a5,t0,a5
   113cc:	0e184713          	xori	a4,a6,225
   113d0:	fff9cf13          	not	t5,s3
   113d4:	fff94e93          	not	t4,s2
   113d8:	00ef7f33          	and	t5,t5,a4
   113dc:	00befeb3          	and	t4,t4,a1
   113e0:	009f4f33          	xor	t5,t5,s1
   113e4:	008eceb3          	xor	t4,t4,s0
   113e8:	fff3cf93          	not	t6,t2
   113ec:	fff2c693          	not	a3,t0
   113f0:	00cfffb3          	and	t6,t6,a2
   113f4:	8efd                	and	a3,a3,a5
   113f6:	00efcfb3          	xor	t6,t6,a4
   113fa:	8ead                	xor	a3,a3,a1
   113fc:	fff4ce13          	not	t3,s1
   11400:	fff44313          	not	t1,s0
   11404:	013e7e33          	and	t3,t3,s3
   11408:	01237333          	and	t1,t1,s2
   1140c:	00ce4e33          	xor	t3,t3,a2
   11410:	00f34333          	xor	t1,t1,a5
   11414:	f1e84813          	xori	a6,a6,-226
   11418:	fff5c593          	not	a1,a1
   1141c:	00787833          	and	a6,a6,t2
   11420:	0055f5b3          	and	a1,a1,t0
   11424:	01384833          	xor	a6,a6,s3
   11428:	0125c5b3          	xor	a1,a1,s2
   1142c:	01e84833          	xor	a6,a6,t5
   11430:	01d5c733          	xor	a4,a1,t4
   11434:	01cf48b3          	xor	a7,t5,t3
   11438:	006ec933          	xor	s2,t4,t1
   1143c:	fff64613          	not	a2,a2
   11440:	fff7c793          	not	a5,a5
   11444:	8e65                	and	a2,a2,s1
   11446:	8fe1                	and	a5,a5,s0
   11448:	00764633          	xor	a2,a2,t2
   1144c:	0057c7b3          	xor	a5,a5,t0
   11450:	01f64633          	xor	a2,a2,t6
   11454:	8fb5                	xor	a5,a5,a3
   11456:	ffffcf93          	not	t6,t6
   1145a:	fff6c693          	not	a3,a3
   1145e:	01d85593          	srli	a1,a6,0x1d
   11462:	00371293          	slli	t0,a4,0x3
   11466:	0055e5b3          	or	a1,a1,t0
   1146a:	01d75993          	srli	s3,a4,0x1d
   1146e:	00381293          	slli	t0,a6,0x3
   11472:	0059e9b3          	or	s3,s3,t0
   11476:	00785293          	srli	t0,a6,0x7
   1147a:	01971393          	slli	t2,a4,0x19
   1147e:	0072e2b3          	or	t0,t0,t2
   11482:	00775393          	srli	t2,a4,0x7
   11486:	01981413          	slli	s0,a6,0x19
   1148a:	0083e3b3          	or	t2,t2,s0
   1148e:	0079c9b3          	xor	s3,s3,t2
   11492:	0055c5b3          	xor	a1,a1,t0
   11496:	0109c9b3          	xor	s3,s3,a6
   1149a:	8db9                	xor	a1,a1,a4
   1149c:	01679393          	slli	t2,a5,0x16
   114a0:	00a65713          	srli	a4,a2,0xa
   114a4:	00e3e3b3          	or	t2,t2,a4
   114a8:	01661293          	slli	t0,a2,0x16
   114ac:	00a7d713          	srli	a4,a5,0xa
   114b0:	00e2e2b3          	or	t0,t0,a4
   114b4:	00f79813          	slli	a6,a5,0xf
   114b8:	01165713          	srli	a4,a2,0x11
   114bc:	00e86833          	or	a6,a6,a4
   114c0:	00f61713          	slli	a4,a2,0xf
   114c4:	0117d413          	srli	s0,a5,0x11
   114c8:	8f41                	or	a4,a4,s0
   114ca:	0103c3b3          	xor	t2,t2,a6
   114ce:	00e2c2b3          	xor	t0,t0,a4
   114d2:	00c3c3b3          	xor	t2,t2,a2
   114d6:	00f2c2b3          	xor	t0,t0,a5
   114da:	01931713          	slli	a4,t1,0x19
   114de:	007e5793          	srli	a5,t3,0x7
   114e2:	8f5d                	or	a4,a4,a5
   114e4:	019e1793          	slli	a5,t3,0x19
   114e8:	00735613          	srli	a2,t1,0x7
   114ec:	8fd1                	or	a5,a5,a2
   114ee:	009e5613          	srli	a2,t3,0x9
   114f2:	01731813          	slli	a6,t1,0x17
   114f6:	01066633          	or	a2,a2,a6
   114fa:	00935813          	srli	a6,t1,0x9
   114fe:	017e1413          	slli	s0,t3,0x17
   11502:	00886833          	or	a6,a6,s0
   11506:	01074733          	xor	a4,a4,a6
   1150a:	8fb1                	xor	a5,a5,a2
   1150c:	01f69813          	slli	a6,a3,0x1f
   11510:	001fd613          	srli	a2,t6,0x1
   11514:	00c86833          	or	a6,a6,a2
   11518:	01ff9613          	slli	a2,t6,0x1f
   1151c:	0016d413          	srli	s0,a3,0x1
   11520:	8e41                	or	a2,a2,s0
   11522:	01a69493          	slli	s1,a3,0x1a
   11526:	006fd413          	srli	s0,t6,0x6
   1152a:	8cc1                	or	s1,s1,s0
   1152c:	01af9413          	slli	s0,t6,0x1a
   11530:	0066da13          	srli	s4,a3,0x6
   11534:	01446433          	or	s0,s0,s4
   11538:	00984833          	xor	a6,a6,s1
   1153c:	8e21                	xor	a2,a2,s0
   1153e:	01f84833          	xor	a6,a6,t6
   11542:	8e35                	xor	a2,a2,a3
   11544:	01384833          	xor	a6,a6,s3
   11548:	8e2d                	xor	a2,a2,a1
   1154a:	00d91493          	slli	s1,s2,0xd
   1154e:	0138d693          	srli	a3,a7,0x13
   11552:	8cd5                	or	s1,s1,a3
   11554:	00d89413          	slli	s0,a7,0xd
   11558:	01395693          	srli	a3,s2,0x13
   1155c:	8c55                	or	s0,s0,a3
   1155e:	01e74f33          	xor	t5,a4,t5
   11562:	01d7ceb3          	xor	t4,a5,t4
   11566:	01e4c4b3          	xor	s1,s1,t5
   1156a:	01d44433          	xor	s0,s0,t4
   1156e:	00491693          	slli	a3,s2,0x4
   11572:	01c8de93          	srli	t4,a7,0x1c
   11576:	01d6e6b3          	or	a3,a3,t4
   1157a:	0892                	slli	a7,a7,0x4
   1157c:	01c95913          	srli	s2,s2,0x1c
   11580:	0128e8b3          	or	a7,a7,s2
   11584:	8cb5                	xor	s1,s1,a3
   11586:	01144433          	xor	s0,s0,a7
   1158a:	01c74733          	xor	a4,a4,t3
   1158e:	0067c6b3          	xor	a3,a5,t1
   11592:	00774733          	xor	a4,a4,t2
   11596:	0056c6b3          	xor	a3,a3,t0
   1159a:	0d284793          	xori	a5,a6,210
   1159e:	fff9c913          	not	s2,s3
   115a2:	fff5ce93          	not	t4,a1
   115a6:	00f97933          	and	s2,s2,a5
   115aa:	00cefeb3          	and	t4,t4,a2
   115ae:	00994933          	xor	s2,s2,s1
   115b2:	008eceb3          	xor	t4,t4,s0
   115b6:	fff3cf93          	not	t6,t2
   115ba:	fff2cf13          	not	t5,t0
   115be:	00efffb3          	and	t6,t6,a4
   115c2:	00df7f33          	and	t5,t5,a3
   115c6:	00ffcfb3          	xor	t6,t6,a5
   115ca:	00cf4f33          	xor	t5,t5,a2
   115ce:	fff4ce13          	not	t3,s1
   115d2:	fff44313          	not	t1,s0
   115d6:	013e7e33          	and	t3,t3,s3
   115da:	00b37333          	and	t1,t1,a1
   115de:	00ee4e33          	xor	t3,t3,a4
   115e2:	00d34333          	xor	t1,t1,a3
   115e6:	f2d84813          	xori	a6,a6,-211
   115ea:	fff64613          	not	a2,a2
   115ee:	00787833          	and	a6,a6,t2
   115f2:	00567633          	and	a2,a2,t0
   115f6:	01384833          	xor	a6,a6,s3
   115fa:	8e2d                	xor	a2,a2,a1
   115fc:	01284833          	xor	a6,a6,s2
   11600:	01d64633          	xor	a2,a2,t4
   11604:	01c948b3          	xor	a7,s2,t3
   11608:	006ec9b3          	xor	s3,t4,t1
   1160c:	fff74793          	not	a5,a4
   11610:	fff6c693          	not	a3,a3
   11614:	8fe5                	and	a5,a5,s1
   11616:	8ee1                	and	a3,a3,s0
   11618:	0077c7b3          	xor	a5,a5,t2
   1161c:	0056c6b3          	xor	a3,a3,t0
   11620:	01f7c7b3          	xor	a5,a5,t6
   11624:	01e6c6b3          	xor	a3,a3,t5
   11628:	ffffc393          	not	t2,t6
   1162c:	ffff4293          	not	t0,t5
   11630:	01d85413          	srli	s0,a6,0x1d
   11634:	00361713          	slli	a4,a2,0x3
   11638:	8c59                	or	s0,s0,a4
   1163a:	01d65493          	srli	s1,a2,0x1d
   1163e:	00381713          	slli	a4,a6,0x3
   11642:	8cd9                	or	s1,s1,a4
   11644:	00785713          	srli	a4,a6,0x7
   11648:	01961593          	slli	a1,a2,0x19
   1164c:	8f4d                	or	a4,a4,a1
   1164e:	00765593          	srli	a1,a2,0x7
   11652:	01981f13          	slli	t5,a6,0x19
   11656:	01e5e5b3          	or	a1,a1,t5
   1165a:	8cad                	xor	s1,s1,a1
   1165c:	8c39                	xor	s0,s0,a4
   1165e:	0104c4b3          	xor	s1,s1,a6
   11662:	8c31                	xor	s0,s0,a2
   11664:	01669f93          	slli	t6,a3,0x16
   11668:	00a7d713          	srli	a4,a5,0xa
   1166c:	00efefb3          	or	t6,t6,a4
   11670:	01679f13          	slli	t5,a5,0x16
   11674:	00a6d713          	srli	a4,a3,0xa
   11678:	00ef6f33          	or	t5,t5,a4
   1167c:	00f69613          	slli	a2,a3,0xf
   11680:	0117d713          	srli	a4,a5,0x11
   11684:	8e59                	or	a2,a2,a4
   11686:	00f79713          	slli	a4,a5,0xf
   1168a:	0116d593          	srli	a1,a3,0x11
   1168e:	8f4d                	or	a4,a4,a1
   11690:	00cfcfb3          	xor	t6,t6,a2
   11694:	00ef4f33          	xor	t5,t5,a4
   11698:	00ffcfb3          	xor	t6,t6,a5
   1169c:	00df4f33          	xor	t5,t5,a3
   116a0:	01931793          	slli	a5,t1,0x19
   116a4:	007e5713          	srli	a4,t3,0x7
   116a8:	8fd9                	or	a5,a5,a4
   116aa:	019e1713          	slli	a4,t3,0x19
   116ae:	00735693          	srli	a3,t1,0x7
   116b2:	8f55                	or	a4,a4,a3
   116b4:	009e5693          	srli	a3,t3,0x9
   116b8:	01731613          	slli	a2,t1,0x17
   116bc:	8ed1                	or	a3,a3,a2
   116be:	00935613          	srli	a2,t1,0x9
   116c2:	017e1593          	slli	a1,t3,0x17
   116c6:	8e4d                	or	a2,a2,a1
   116c8:	8fb1                	xor	a5,a5,a2
   116ca:	8f35                	xor	a4,a4,a3
   116cc:	01f29813          	slli	a6,t0,0x1f
   116d0:	0013d693          	srli	a3,t2,0x1
   116d4:	00d86833          	or	a6,a6,a3
   116d8:	01f39593          	slli	a1,t2,0x1f
   116dc:	0012d693          	srli	a3,t0,0x1
   116e0:	8dd5                	or	a1,a1,a3
   116e2:	01a29613          	slli	a2,t0,0x1a
   116e6:	0063d693          	srli	a3,t2,0x6
   116ea:	8e55                	or	a2,a2,a3
   116ec:	01a39693          	slli	a3,t2,0x1a
   116f0:	0062da13          	srli	s4,t0,0x6
   116f4:	0146e6b3          	or	a3,a3,s4
   116f8:	00c84833          	xor	a6,a6,a2
   116fc:	8db5                	xor	a1,a1,a3
   116fe:	00784833          	xor	a6,a6,t2
   11702:	0055c5b3          	xor	a1,a1,t0
   11706:	00984833          	xor	a6,a6,s1
   1170a:	8da1                	xor	a1,a1,s0
   1170c:	00d99393          	slli	t2,s3,0xd
   11710:	0138d693          	srli	a3,a7,0x13
   11714:	00d3e3b3          	or	t2,t2,a3
   11718:	00d89293          	slli	t0,a7,0xd
   1171c:	0139d693          	srli	a3,s3,0x13
   11720:	00d2e2b3          	or	t0,t0,a3
   11724:	0127c933          	xor	s2,a5,s2
   11728:	01d74eb3          	xor	t4,a4,t4
   1172c:	0123c3b3          	xor	t2,t2,s2
   11730:	01d2c2b3          	xor	t0,t0,t4
   11734:	00499693          	slli	a3,s3,0x4
   11738:	01c8d613          	srli	a2,a7,0x1c
   1173c:	8ed1                	or	a3,a3,a2
   1173e:	0892                	slli	a7,a7,0x4
   11740:	01c9d993          	srli	s3,s3,0x1c
   11744:	0138e8b3          	or	a7,a7,s3
   11748:	00d3c3b3          	xor	t2,t2,a3
   1174c:	0112c2b3          	xor	t0,t0,a7
   11750:	01c7c7b3          	xor	a5,a5,t3
   11754:	00674733          	xor	a4,a4,t1
   11758:	01f7c7b3          	xor	a5,a5,t6
   1175c:	01e74733          	xor	a4,a4,t5
   11760:	0c384893          	xori	a7,a6,195
   11764:	fff4ce93          	not	t4,s1
   11768:	fff44e13          	not	t3,s0
   1176c:	011efeb3          	and	t4,t4,a7
   11770:	00be7e33          	and	t3,t3,a1
   11774:	007eceb3          	xor	t4,t4,t2
   11778:	005e4e33          	xor	t3,t3,t0
   1177c:	ffffc613          	not	a2,t6
   11780:	ffff4693          	not	a3,t5
   11784:	8e7d                	and	a2,a2,a5
   11786:	8ef9                	and	a3,a3,a4
   11788:	01164633          	xor	a2,a2,a7
   1178c:	8ead                	xor	a3,a3,a1
   1178e:	fff3c313          	not	t1,t2
   11792:	fff2c893          	not	a7,t0
   11796:	00937333          	and	t1,t1,s1
   1179a:	0088f8b3          	and	a7,a7,s0
   1179e:	00f34333          	xor	t1,t1,a5
   117a2:	00e8c8b3          	xor	a7,a7,a4
   117a6:	f3c84813          	xori	a6,a6,-196
   117aa:	fff5c593          	not	a1,a1
   117ae:	01f87833          	and	a6,a6,t6
   117b2:	01e5f5b3          	and	a1,a1,t5
   117b6:	00984833          	xor	a6,a6,s1
   117ba:	8da1                	xor	a1,a1,s0
   117bc:	01d84833          	xor	a6,a6,t4
   117c0:	01c5c5b3          	xor	a1,a1,t3
   117c4:	006ec9b3          	xor	s3,t4,t1
   117c8:	011e4933          	xor	s2,t3,a7
   117cc:	fff7c793          	not	a5,a5
   117d0:	fff74713          	not	a4,a4
   117d4:	0077f7b3          	and	a5,a5,t2
   117d8:	00577733          	and	a4,a4,t0
   117dc:	01f7c7b3          	xor	a5,a5,t6
   117e0:	01e74733          	xor	a4,a4,t5
   117e4:	8fb1                	xor	a5,a5,a2
   117e6:	8f35                	xor	a4,a4,a3
   117e8:	fff64613          	not	a2,a2
   117ec:	fff6c293          	not	t0,a3
   117f0:	01d85413          	srli	s0,a6,0x1d
   117f4:	00359693          	slli	a3,a1,0x3
   117f8:	8c55                	or	s0,s0,a3
   117fa:	01d5d493          	srli	s1,a1,0x1d
   117fe:	00381693          	slli	a3,a6,0x3
   11802:	8cd5                	or	s1,s1,a3
   11804:	00785693          	srli	a3,a6,0x7
   11808:	01959f13          	slli	t5,a1,0x19
   1180c:	01e6e6b3          	or	a3,a3,t5
   11810:	0075df13          	srli	t5,a1,0x7
   11814:	01981f93          	slli	t6,a6,0x19
   11818:	01ff6f33          	or	t5,t5,t6
   1181c:	01e4c4b3          	xor	s1,s1,t5
   11820:	8c35                	xor	s0,s0,a3
   11822:	0104c4b3          	xor	s1,s1,a6
   11826:	8c2d                	xor	s0,s0,a1
   11828:	01671f93          	slli	t6,a4,0x16
   1182c:	00a7d693          	srli	a3,a5,0xa
   11830:	00dfefb3          	or	t6,t6,a3
   11834:	01679f13          	slli	t5,a5,0x16
   11838:	00a75693          	srli	a3,a4,0xa
   1183c:	00df6f33          	or	t5,t5,a3
   11840:	00f71593          	slli	a1,a4,0xf
   11844:	0117d693          	srli	a3,a5,0x11
   11848:	8dd5                	or	a1,a1,a3
   1184a:	00f79693          	slli	a3,a5,0xf
   1184e:	01175813          	srli	a6,a4,0x11
   11852:	0106e6b3          	or	a3,a3,a6
   11856:	00bfcfb3          	xor	t6,t6,a1
   1185a:	00df4f33          	xor	t5,t5,a3
   1185e:	00ffcfb3          	xor	t6,t6,a5
   11862:	00ef4f33          	xor	t5,t5,a4
   11866:	01989693          	slli	a3,a7,0x19
   1186a:	00735793          	srli	a5,t1,0x7
   1186e:	8edd                	or	a3,a3,a5
   11870:	01931713          	slli	a4,t1,0x19
   11874:	0078d793          	srli	a5,a7,0x7
   11878:	8f5d                	or	a4,a4,a5
   1187a:	00935793          	srli	a5,t1,0x9
   1187e:	01789593          	slli	a1,a7,0x17
   11882:	8fcd                	or	a5,a5,a1
   11884:	0098d593          	srli	a1,a7,0x9
   11888:	01731813          	slli	a6,t1,0x17
   1188c:	0105e5b3          	or	a1,a1,a6
   11890:	8ead                	xor	a3,a3,a1
   11892:	8f3d                	xor	a4,a4,a5
   11894:	01f29813          	slli	a6,t0,0x1f
   11898:	00165793          	srli	a5,a2,0x1
   1189c:	00f86833          	or	a6,a6,a5
   118a0:	01f61593          	slli	a1,a2,0x1f
   118a4:	0012d793          	srli	a5,t0,0x1
   118a8:	8ddd                	or	a1,a1,a5
   118aa:	01a29393          	slli	t2,t0,0x1a
   118ae:	00665793          	srli	a5,a2,0x6
   118b2:	00f3e3b3          	or	t2,t2,a5
   118b6:	01a61793          	slli	a5,a2,0x1a
   118ba:	0062da13          	srli	s4,t0,0x6
   118be:	0147e7b3          	or	a5,a5,s4
   118c2:	00784833          	xor	a6,a6,t2
   118c6:	8dbd                	xor	a1,a1,a5
   118c8:	00c84833          	xor	a6,a6,a2
   118cc:	0055c5b3          	xor	a1,a1,t0
   118d0:	00984833          	xor	a6,a6,s1
   118d4:	8da1                	xor	a1,a1,s0
   118d6:	00d91393          	slli	t2,s2,0xd
   118da:	0139d793          	srli	a5,s3,0x13
   118de:	00f3e3b3          	or	t2,t2,a5
   118e2:	00d99293          	slli	t0,s3,0xd
   118e6:	01395793          	srli	a5,s2,0x13
   118ea:	00f2e2b3          	or	t0,t0,a5
   118ee:	01d6ceb3          	xor	t4,a3,t4
   118f2:	01c74e33          	xor	t3,a4,t3
   118f6:	01d3c3b3          	xor	t2,t2,t4
   118fa:	01c2c2b3          	xor	t0,t0,t3
   118fe:	00491613          	slli	a2,s2,0x4
   11902:	01c9d793          	srli	a5,s3,0x1c
   11906:	8e5d                	or	a2,a2,a5
   11908:	00499793          	slli	a5,s3,0x4
   1190c:	01c95913          	srli	s2,s2,0x1c
   11910:	0127e7b3          	or	a5,a5,s2
   11914:	00c3c3b3          	xor	t2,t2,a2
   11918:	00f2c2b3          	xor	t0,t0,a5
   1191c:	0066c6b3          	xor	a3,a3,t1
   11920:	01174633          	xor	a2,a4,a7
   11924:	01f6c6b3          	xor	a3,a3,t6
   11928:	01e64633          	xor	a2,a2,t5
   1192c:	0b484793          	xori	a5,a6,180
   11930:	fff4ce13          	not	t3,s1
   11934:	fff44313          	not	t1,s0
   11938:	00fe7e33          	and	t3,t3,a5
   1193c:	00b37333          	and	t1,t1,a1
   11940:	007e4e33          	xor	t3,t3,t2
   11944:	00534333          	xor	t1,t1,t0
   11948:	ffffce93          	not	t4,t6
   1194c:	ffff4893          	not	a7,t5
   11950:	00defeb3          	and	t4,t4,a3
   11954:	00c8f8b3          	and	a7,a7,a2
   11958:	00feceb3          	xor	t4,t4,a5
   1195c:	00b8c8b3          	xor	a7,a7,a1
   11960:	fff3c713          	not	a4,t2
   11964:	fff2c793          	not	a5,t0
   11968:	8f65                	and	a4,a4,s1
   1196a:	8fe1                	and	a5,a5,s0
   1196c:	8f35                	xor	a4,a4,a3
   1196e:	8fb1                	xor	a5,a5,a2
   11970:	f4b84813          	xori	a6,a6,-181
   11974:	fff5c593          	not	a1,a1
   11978:	01f87833          	and	a6,a6,t6
   1197c:	01e5f5b3          	and	a1,a1,t5
   11980:	00984833          	xor	a6,a6,s1
   11984:	8da1                	xor	a1,a1,s0
   11986:	01c84833          	xor	a6,a6,t3
   1198a:	0065c5b3          	xor	a1,a1,t1
   1198e:	00ee49b3          	xor	s3,t3,a4
   11992:	00f34933          	xor	s2,t1,a5
   11996:	fff6c693          	not	a3,a3
   1199a:	fff64613          	not	a2,a2
   1199e:	0076f6b3          	and	a3,a3,t2
   119a2:	00567633          	and	a2,a2,t0
   119a6:	01f6c6b3          	xor	a3,a3,t6
   119aa:	01e64633          	xor	a2,a2,t5
   119ae:	01d6c6b3          	xor	a3,a3,t4
   119b2:	01164633          	xor	a2,a2,a7
   119b6:	fffece93          	not	t4,t4
   119ba:	fff8c393          	not	t2,a7
   119be:	01d85893          	srli	a7,a6,0x1d
   119c2:	00359f13          	slli	t5,a1,0x3
   119c6:	01e8e8b3          	or	a7,a7,t5
   119ca:	01d5d493          	srli	s1,a1,0x1d
   119ce:	00381f13          	slli	t5,a6,0x3
   119d2:	01e4e4b3          	or	s1,s1,t5
   119d6:	00785f13          	srli	t5,a6,0x7
   119da:	01959f93          	slli	t6,a1,0x19
   119de:	01ff6f33          	or	t5,t5,t6
   119e2:	0075df93          	srli	t6,a1,0x7
   119e6:	01981293          	slli	t0,a6,0x19
   119ea:	005fefb3          	or	t6,t6,t0
   119ee:	01f4c4b3          	xor	s1,s1,t6
   119f2:	01e8c8b3          	xor	a7,a7,t5
   119f6:	0104c4b3          	xor	s1,s1,a6
   119fa:	00b8c8b3          	xor	a7,a7,a1
   119fe:	01661293          	slli	t0,a2,0x16
   11a02:	00a6d593          	srli	a1,a3,0xa
   11a06:	00b2e2b3          	or	t0,t0,a1
   11a0a:	01669f93          	slli	t6,a3,0x16
   11a0e:	00a65593          	srli	a1,a2,0xa
   11a12:	00bfefb3          	or	t6,t6,a1
   11a16:	00f61813          	slli	a6,a2,0xf
   11a1a:	0116d593          	srli	a1,a3,0x11
   11a1e:	00b86833          	or	a6,a6,a1
   11a22:	00f69593          	slli	a1,a3,0xf
   11a26:	01165f13          	srli	t5,a2,0x11
   11a2a:	01e5e5b3          	or	a1,a1,t5
   11a2e:	0102c2b3          	xor	t0,t0,a6
   11a32:	00bfcfb3          	xor	t6,t6,a1
   11a36:	00d2c2b3          	xor	t0,t0,a3
   11a3a:	00cfcfb3          	xor	t6,t6,a2
   11a3e:	01979f13          	slli	t5,a5,0x19
   11a42:	00775693          	srli	a3,a4,0x7
   11a46:	00df6f33          	or	t5,t5,a3
   11a4a:	01971613          	slli	a2,a4,0x19
   11a4e:	0077d693          	srli	a3,a5,0x7
   11a52:	8e55                	or	a2,a2,a3
   11a54:	00975693          	srli	a3,a4,0x9
   11a58:	01779593          	slli	a1,a5,0x17
   11a5c:	8ecd                	or	a3,a3,a1
   11a5e:	0097d593          	srli	a1,a5,0x9
   11a62:	01771813          	slli	a6,a4,0x17
   11a66:	0105e5b3          	or	a1,a1,a6
   11a6a:	00bf4f33          	xor	t5,t5,a1
   11a6e:	8e35                	xor	a2,a2,a3
   11a70:	01f39813          	slli	a6,t2,0x1f
   11a74:	001ed693          	srli	a3,t4,0x1
   11a78:	00d86833          	or	a6,a6,a3
   11a7c:	01fe9593          	slli	a1,t4,0x1f
   11a80:	0013d693          	srli	a3,t2,0x1
   11a84:	8dd5                	or	a1,a1,a3
   11a86:	01a39413          	slli	s0,t2,0x1a
   11a8a:	006ed693          	srli	a3,t4,0x6
   11a8e:	8c55                	or	s0,s0,a3
   11a90:	01ae9693          	slli	a3,t4,0x1a
   11a94:	0063da13          	srli	s4,t2,0x6
   11a98:	0146e6b3          	or	a3,a3,s4
   11a9c:	00884833          	xor	a6,a6,s0
   11aa0:	8db5                	xor	a1,a1,a3
   11aa2:	01d84833          	xor	a6,a6,t4
   11aa6:	0075c5b3          	xor	a1,a1,t2
   11aaa:	00984833          	xor	a6,a6,s1
   11aae:	0115c5b3          	xor	a1,a1,a7
   11ab2:	00d91413          	slli	s0,s2,0xd
   11ab6:	0139d693          	srli	a3,s3,0x13
   11aba:	8c55                	or	s0,s0,a3
   11abc:	00d99393          	slli	t2,s3,0xd
   11ac0:	01395693          	srli	a3,s2,0x13
   11ac4:	00d3e3b3          	or	t2,t2,a3
   11ac8:	01ee4e33          	xor	t3,t3,t5
   11acc:	00c34333          	xor	t1,t1,a2
   11ad0:	01c44433          	xor	s0,s0,t3
   11ad4:	0063c3b3          	xor	t2,t2,t1
   11ad8:	00491313          	slli	t1,s2,0x4
   11adc:	01c9d693          	srli	a3,s3,0x1c
   11ae0:	00d36333          	or	t1,t1,a3
   11ae4:	00499693          	slli	a3,s3,0x4
   11ae8:	01c95913          	srli	s2,s2,0x1c
   11aec:	0126e6b3          	or	a3,a3,s2
   11af0:	00644433          	xor	s0,s0,t1
   11af4:	00d3c3b3          	xor	t2,t2,a3
   11af8:	01e74733          	xor	a4,a4,t5
   11afc:	8fb1                	xor	a5,a5,a2
   11afe:	00574633          	xor	a2,a4,t0
   11b02:	01f7c6b3          	xor	a3,a5,t6
   11b06:	0a584793          	xori	a5,a6,165
   11b0a:	fff4cf13          	not	t5,s1
   11b0e:	fff8ce93          	not	t4,a7
   11b12:	00ff7f33          	and	t5,t5,a5
   11b16:	00befeb3          	and	t4,t4,a1
   11b1a:	008f4f33          	xor	t5,t5,s0
   11b1e:	007eceb3          	xor	t4,t4,t2
   11b22:	fff2ce13          	not	t3,t0
   11b26:	ffffc313          	not	t1,t6
   11b2a:	00ce7e33          	and	t3,t3,a2
   11b2e:	00d37333          	and	t1,t1,a3
   11b32:	00fe4e33          	xor	t3,t3,a5
   11b36:	00b34333          	xor	t1,t1,a1
   11b3a:	fff44713          	not	a4,s0
   11b3e:	fff3c793          	not	a5,t2
   11b42:	8f65                	and	a4,a4,s1
   11b44:	0117f7b3          	and	a5,a5,a7
   11b48:	8f31                	xor	a4,a4,a2
   11b4a:	8fb5                	xor	a5,a5,a3
   11b4c:	f5a84813          	xori	a6,a6,-166
   11b50:	fff5c593          	not	a1,a1
   11b54:	00587833          	and	a6,a6,t0
   11b58:	01f5f5b3          	and	a1,a1,t6
   11b5c:	00984833          	xor	a6,a6,s1
   11b60:	0115c5b3          	xor	a1,a1,a7
   11b64:	01e84833          	xor	a6,a6,t5
   11b68:	01d5c5b3          	xor	a1,a1,t4
   11b6c:	00ef48b3          	xor	a7,t5,a4
   11b70:	00fec9b3          	xor	s3,t4,a5
   11b74:	fff64613          	not	a2,a2
   11b78:	fff6c693          	not	a3,a3
   11b7c:	8e61                	and	a2,a2,s0
   11b7e:	0076f6b3          	and	a3,a3,t2
   11b82:	00564633          	xor	a2,a2,t0
   11b86:	01f6c6b3          	xor	a3,a3,t6
   11b8a:	01c64633          	xor	a2,a2,t3
   11b8e:	0066c6b3          	xor	a3,a3,t1
   11b92:	fffe4e13          	not	t3,t3
   11b96:	fff34313          	not	t1,t1
   11b9a:	01d85493          	srli	s1,a6,0x1d
   11b9e:	00359f93          	slli	t6,a1,0x3
   11ba2:	01f4e4b3          	or	s1,s1,t6
   11ba6:	01d5d913          	srli	s2,a1,0x1d
   11baa:	00381f93          	slli	t6,a6,0x3
   11bae:	01f96933          	or	s2,s2,t6
   11bb2:	00785f93          	srli	t6,a6,0x7
   11bb6:	01959293          	slli	t0,a1,0x19
   11bba:	005fefb3          	or	t6,t6,t0
   11bbe:	0075d293          	srli	t0,a1,0x7
   11bc2:	01981393          	slli	t2,a6,0x19
   11bc6:	0072e2b3          	or	t0,t0,t2
   11bca:	00594933          	xor	s2,s2,t0
   11bce:	01f4c4b3          	xor	s1,s1,t6
   11bd2:	01094933          	xor	s2,s2,a6
   11bd6:	8cad                	xor	s1,s1,a1
   11bd8:	01669293          	slli	t0,a3,0x16
   11bdc:	00a65593          	srli	a1,a2,0xa
   11be0:	00b2e2b3          	or	t0,t0,a1
   11be4:	01661f93          	slli	t6,a2,0x16
   11be8:	00a6d593          	srli	a1,a3,0xa
   11bec:	00bfefb3          	or	t6,t6,a1
   11bf0:	00f69813          	slli	a6,a3,0xf
   11bf4:	01165593          	srli	a1,a2,0x11
   11bf8:	00b86833          	or	a6,a6,a1
   11bfc:	00f61593          	slli	a1,a2,0xf
   11c00:	0116d393          	srli	t2,a3,0x11
   11c04:	0075e5b3          	or	a1,a1,t2
   11c08:	0102c2b3          	xor	t0,t0,a6
   11c0c:	00bfcfb3          	xor	t6,t6,a1
   11c10:	00c2c2b3          	xor	t0,t0,a2
   11c14:	00dfcfb3          	xor	t6,t6,a3
   11c18:	01979613          	slli	a2,a5,0x19
   11c1c:	00775693          	srli	a3,a4,0x7
   11c20:	8e55                	or	a2,a2,a3
   11c22:	01971693          	slli	a3,a4,0x19
   11c26:	0077d593          	srli	a1,a5,0x7
   11c2a:	8ecd                	or	a3,a3,a1
   11c2c:	00975593          	srli	a1,a4,0x9
   11c30:	01779813          	slli	a6,a5,0x17
   11c34:	0105e5b3          	or	a1,a1,a6
   11c38:	0097d813          	srli	a6,a5,0x9
   11c3c:	01771393          	slli	t2,a4,0x17
   11c40:	00786833          	or	a6,a6,t2
   11c44:	01064633          	xor	a2,a2,a6
   11c48:	8ead                	xor	a3,a3,a1
   11c4a:	01f31813          	slli	a6,t1,0x1f
   11c4e:	001e5593          	srli	a1,t3,0x1
   11c52:	00b86833          	or	a6,a6,a1
   11c56:	01fe1593          	slli	a1,t3,0x1f
   11c5a:	00135393          	srli	t2,t1,0x1
   11c5e:	0075e5b3          	or	a1,a1,t2
   11c62:	01a31413          	slli	s0,t1,0x1a
   11c66:	006e5393          	srli	t2,t3,0x6
   11c6a:	00746433          	or	s0,s0,t2
   11c6e:	01ae1393          	slli	t2,t3,0x1a
   11c72:	00635a13          	srli	s4,t1,0x6
   11c76:	0143e3b3          	or	t2,t2,s4
   11c7a:	00884833          	xor	a6,a6,s0
   11c7e:	0075c5b3          	xor	a1,a1,t2
   11c82:	01c84833          	xor	a6,a6,t3
   11c86:	0065c5b3          	xor	a1,a1,t1
   11c8a:	01284833          	xor	a6,a6,s2
   11c8e:	8da5                	xor	a1,a1,s1
   11c90:	00d99413          	slli	s0,s3,0xd
   11c94:	0138d313          	srli	t1,a7,0x13
   11c98:	00646433          	or	s0,s0,t1
   11c9c:	00d89393          	slli	t2,a7,0xd
   11ca0:	0139d313          	srli	t1,s3,0x13
   11ca4:	0063e3b3          	or	t2,t2,t1
   11ca8:	00cf4f33          	xor	t5,t5,a2
   11cac:	00deceb3          	xor	t4,t4,a3
   11cb0:	01e44433          	xor	s0,s0,t5
   11cb4:	01d3c3b3          	xor	t2,t2,t4
   11cb8:	00499313          	slli	t1,s3,0x4
   11cbc:	01c8de13          	srli	t3,a7,0x1c
   11cc0:	01c36333          	or	t1,t1,t3
   11cc4:	0892                	slli	a7,a7,0x4
   11cc6:	01c9d993          	srli	s3,s3,0x1c
   11cca:	0138e8b3          	or	a7,a7,s3
   11cce:	00644433          	xor	s0,s0,t1
   11cd2:	0113c3b3          	xor	t2,t2,a7
   11cd6:	8f31                	xor	a4,a4,a2
   11cd8:	8fb5                	xor	a5,a5,a3
   11cda:	00574633          	xor	a2,a4,t0
   11cde:	01f7c6b3          	xor	a3,a5,t6
   11ce2:	09684793          	xori	a5,a6,150
   11ce6:	fff94f13          	not	t5,s2
   11cea:	fff4ce93          	not	t4,s1
   11cee:	00ff7f33          	and	t5,t5,a5
   11cf2:	00befeb3          	and	t4,t4,a1
   11cf6:	008f4f33          	xor	t5,t5,s0
   11cfa:	007eceb3          	xor	t4,t4,t2
   11cfe:	fff2ce13          	not	t3,t0
   11d02:	ffffc313          	not	t1,t6
   11d06:	00ce7e33          	and	t3,t3,a2
   11d0a:	00d37333          	and	t1,t1,a3
   11d0e:	00fe4e33          	xor	t3,t3,a5
   11d12:	00b34333          	xor	t1,t1,a1
   11d16:	fff44713          	not	a4,s0
   11d1a:	fff3c793          	not	a5,t2
   11d1e:	01277733          	and	a4,a4,s2
   11d22:	8fe5                	and	a5,a5,s1
   11d24:	8f31                	xor	a4,a4,a2
   11d26:	8fb5                	xor	a5,a5,a3
   11d28:	f6984813          	xori	a6,a6,-151
   11d2c:	fff5c593          	not	a1,a1
   11d30:	00587833          	and	a6,a6,t0
   11d34:	01f5f5b3          	and	a1,a1,t6
   11d38:	01284833          	xor	a6,a6,s2
   11d3c:	8da5                	xor	a1,a1,s1
   11d3e:	01e84833          	xor	a6,a6,t5
   11d42:	01d5c5b3          	xor	a1,a1,t4
   11d46:	00ef48b3          	xor	a7,t5,a4
   11d4a:	00fec9b3          	xor	s3,t4,a5
   11d4e:	fff64613          	not	a2,a2
   11d52:	fff6c693          	not	a3,a3
   11d56:	8e61                	and	a2,a2,s0
   11d58:	0076f6b3          	and	a3,a3,t2
   11d5c:	00564633          	xor	a2,a2,t0
   11d60:	01f6c6b3          	xor	a3,a3,t6
   11d64:	01c64633          	xor	a2,a2,t3
   11d68:	0066c6b3          	xor	a3,a3,t1
   11d6c:	fffe4e13          	not	t3,t3
   11d70:	fff34313          	not	t1,t1
   11d74:	01d85493          	srli	s1,a6,0x1d
   11d78:	00359f93          	slli	t6,a1,0x3
   11d7c:	01f4e4b3          	or	s1,s1,t6
   11d80:	01d5d913          	srli	s2,a1,0x1d
   11d84:	00381f93          	slli	t6,a6,0x3
   11d88:	01f96933          	or	s2,s2,t6
   11d8c:	00785f93          	srli	t6,a6,0x7
   11d90:	01959293          	slli	t0,a1,0x19
   11d94:	005fefb3          	or	t6,t6,t0
   11d98:	0075d293          	srli	t0,a1,0x7
   11d9c:	01981393          	slli	t2,a6,0x19
   11da0:	0072e2b3          	or	t0,t0,t2
   11da4:	00594933          	xor	s2,s2,t0
   11da8:	01f4c4b3          	xor	s1,s1,t6
   11dac:	01094933          	xor	s2,s2,a6
   11db0:	8cad                	xor	s1,s1,a1
   11db2:	01669293          	slli	t0,a3,0x16
   11db6:	00a65593          	srli	a1,a2,0xa
   11dba:	00b2e2b3          	or	t0,t0,a1
   11dbe:	01661f93          	slli	t6,a2,0x16
   11dc2:	00a6d593          	srli	a1,a3,0xa
   11dc6:	00bfefb3          	or	t6,t6,a1
   11dca:	00f69813          	slli	a6,a3,0xf
   11dce:	01165593          	srli	a1,a2,0x11
   11dd2:	00b86833          	or	a6,a6,a1
   11dd6:	00f61593          	slli	a1,a2,0xf
   11dda:	0116d393          	srli	t2,a3,0x11
   11dde:	0075e5b3          	or	a1,a1,t2
   11de2:	0102c2b3          	xor	t0,t0,a6
   11de6:	00bfcfb3          	xor	t6,t6,a1
   11dea:	00c2c2b3          	xor	t0,t0,a2
   11dee:	00dfcfb3          	xor	t6,t6,a3
   11df2:	01979613          	slli	a2,a5,0x19
   11df6:	00775693          	srli	a3,a4,0x7
   11dfa:	8e55                	or	a2,a2,a3
   11dfc:	01971693          	slli	a3,a4,0x19
   11e00:	0077d593          	srli	a1,a5,0x7
   11e04:	8ecd                	or	a3,a3,a1
   11e06:	00975593          	srli	a1,a4,0x9
   11e0a:	01779813          	slli	a6,a5,0x17
   11e0e:	0105e5b3          	or	a1,a1,a6
   11e12:	0097d813          	srli	a6,a5,0x9
   11e16:	01771393          	slli	t2,a4,0x17
   11e1a:	00786833          	or	a6,a6,t2
   11e1e:	01064633          	xor	a2,a2,a6
   11e22:	8ead                	xor	a3,a3,a1
   11e24:	01f31813          	slli	a6,t1,0x1f
   11e28:	001e5593          	srli	a1,t3,0x1
   11e2c:	00b86833          	or	a6,a6,a1
   11e30:	01fe1593          	slli	a1,t3,0x1f
   11e34:	00135393          	srli	t2,t1,0x1
   11e38:	0075e5b3          	or	a1,a1,t2
   11e3c:	01a31413          	slli	s0,t1,0x1a
   11e40:	006e5393          	srli	t2,t3,0x6
   11e44:	00746433          	or	s0,s0,t2
   11e48:	01ae1393          	slli	t2,t3,0x1a
   11e4c:	00635a13          	srli	s4,t1,0x6
   11e50:	0143e3b3          	or	t2,t2,s4
   11e54:	00884833          	xor	a6,a6,s0
   11e58:	0075c5b3          	xor	a1,a1,t2
   11e5c:	01c84833          	xor	a6,a6,t3
   11e60:	0065c5b3          	xor	a1,a1,t1
   11e64:	01284833          	xor	a6,a6,s2
   11e68:	8da5                	xor	a1,a1,s1
   11e6a:	00d99413          	slli	s0,s3,0xd
   11e6e:	0138d313          	srli	t1,a7,0x13
   11e72:	00646433          	or	s0,s0,t1
   11e76:	00d89393          	slli	t2,a7,0xd
   11e7a:	0139d313          	srli	t1,s3,0x13
   11e7e:	0063e3b3          	or	t2,t2,t1
   11e82:	00cf4f33          	xor	t5,t5,a2
   11e86:	00deceb3          	xor	t4,t4,a3
   11e8a:	01e44433          	xor	s0,s0,t5
   11e8e:	01d3c3b3          	xor	t2,t2,t4
   11e92:	00499313          	slli	t1,s3,0x4
   11e96:	01c8de13          	srli	t3,a7,0x1c
   11e9a:	01c36333          	or	t1,t1,t3
   11e9e:	0892                	slli	a7,a7,0x4
   11ea0:	01c9d993          	srli	s3,s3,0x1c
   11ea4:	0138e8b3          	or	a7,a7,s3
   11ea8:	00644433          	xor	s0,s0,t1
   11eac:	0113c3b3          	xor	t2,t2,a7
   11eb0:	8f31                	xor	a4,a4,a2
   11eb2:	8fb5                	xor	a5,a5,a3
   11eb4:	00574633          	xor	a2,a4,t0
   11eb8:	01f7c6b3          	xor	a3,a5,t6
   11ebc:	08784793          	xori	a5,a6,135
   11ec0:	fff94f13          	not	t5,s2
   11ec4:	fff4ce93          	not	t4,s1
   11ec8:	00ff7f33          	and	t5,t5,a5
   11ecc:	00befeb3          	and	t4,t4,a1
   11ed0:	008f4f33          	xor	t5,t5,s0
   11ed4:	007eceb3          	xor	t4,t4,t2
   11ed8:	fff2ce13          	not	t3,t0
   11edc:	ffffc313          	not	t1,t6
   11ee0:	00ce7e33          	and	t3,t3,a2
   11ee4:	00d37333          	and	t1,t1,a3
   11ee8:	00fe4e33          	xor	t3,t3,a5
   11eec:	00b34333          	xor	t1,t1,a1
   11ef0:	fff44713          	not	a4,s0
   11ef4:	fff3c793          	not	a5,t2
   11ef8:	01277733          	and	a4,a4,s2
   11efc:	8fe5                	and	a5,a5,s1
   11efe:	8f31                	xor	a4,a4,a2
   11f00:	8fb5                	xor	a5,a5,a3
   11f02:	f7884813          	xori	a6,a6,-136
   11f06:	fff5c593          	not	a1,a1
   11f0a:	00587833          	and	a6,a6,t0
   11f0e:	01f5f5b3          	and	a1,a1,t6
   11f12:	01284833          	xor	a6,a6,s2
   11f16:	8da5                	xor	a1,a1,s1
   11f18:	01e84833          	xor	a6,a6,t5
   11f1c:	01d5c5b3          	xor	a1,a1,t4
   11f20:	00ef48b3          	xor	a7,t5,a4
   11f24:	00fec9b3          	xor	s3,t4,a5
   11f28:	fff64613          	not	a2,a2
   11f2c:	fff6c693          	not	a3,a3
   11f30:	8e61                	and	a2,a2,s0
   11f32:	0076f6b3          	and	a3,a3,t2
   11f36:	00564633          	xor	a2,a2,t0
   11f3a:	01f6c6b3          	xor	a3,a3,t6
   11f3e:	01c64633          	xor	a2,a2,t3
   11f42:	0066c6b3          	xor	a3,a3,t1
   11f46:	fffe4e13          	not	t3,t3
   11f4a:	fff34313          	not	t1,t1
   11f4e:	01d85493          	srli	s1,a6,0x1d
   11f52:	00359f93          	slli	t6,a1,0x3
   11f56:	01f4e4b3          	or	s1,s1,t6
   11f5a:	01d5d913          	srli	s2,a1,0x1d
   11f5e:	00381f93          	slli	t6,a6,0x3
   11f62:	01f96933          	or	s2,s2,t6
   11f66:	00785f93          	srli	t6,a6,0x7
   11f6a:	01959293          	slli	t0,a1,0x19
   11f6e:	005fefb3          	or	t6,t6,t0
   11f72:	0075d293          	srli	t0,a1,0x7
   11f76:	01981393          	slli	t2,a6,0x19
   11f7a:	0072e2b3          	or	t0,t0,t2
   11f7e:	00594933          	xor	s2,s2,t0
   11f82:	01f4c4b3          	xor	s1,s1,t6
   11f86:	01094933          	xor	s2,s2,a6
   11f8a:	8cad                	xor	s1,s1,a1
   11f8c:	01669293          	slli	t0,a3,0x16
   11f90:	00a65593          	srli	a1,a2,0xa
   11f94:	00b2e2b3          	or	t0,t0,a1
   11f98:	01661f93          	slli	t6,a2,0x16
   11f9c:	00a6d593          	srli	a1,a3,0xa
   11fa0:	00bfefb3          	or	t6,t6,a1
   11fa4:	00f69813          	slli	a6,a3,0xf
   11fa8:	01165593          	srli	a1,a2,0x11
   11fac:	00b86833          	or	a6,a6,a1
   11fb0:	00f61593          	slli	a1,a2,0xf
   11fb4:	0116d393          	srli	t2,a3,0x11
   11fb8:	0075e5b3          	or	a1,a1,t2
   11fbc:	0102c2b3          	xor	t0,t0,a6
   11fc0:	00bfcfb3          	xor	t6,t6,a1
   11fc4:	00c2c2b3          	xor	t0,t0,a2
   11fc8:	00dfcfb3          	xor	t6,t6,a3
   11fcc:	01979613          	slli	a2,a5,0x19
   11fd0:	00775693          	srli	a3,a4,0x7
   11fd4:	8e55                	or	a2,a2,a3
   11fd6:	01971693          	slli	a3,a4,0x19
   11fda:	0077d593          	srli	a1,a5,0x7
   11fde:	8ecd                	or	a3,a3,a1
   11fe0:	00975593          	srli	a1,a4,0x9
   11fe4:	01779813          	slli	a6,a5,0x17
   11fe8:	0105e5b3          	or	a1,a1,a6
   11fec:	0097d813          	srli	a6,a5,0x9
   11ff0:	01771393          	slli	t2,a4,0x17
   11ff4:	00786833          	or	a6,a6,t2
   11ff8:	01064633          	xor	a2,a2,a6
   11ffc:	8ead                	xor	a3,a3,a1
   11ffe:	01f31813          	slli	a6,t1,0x1f
   12002:	001e5593          	srli	a1,t3,0x1
   12006:	00b86833          	or	a6,a6,a1
   1200a:	01fe1593          	slli	a1,t3,0x1f
   1200e:	00135393          	srli	t2,t1,0x1
   12012:	0075e5b3          	or	a1,a1,t2
   12016:	01a31413          	slli	s0,t1,0x1a
   1201a:	006e5393          	srli	t2,t3,0x6
   1201e:	00746433          	or	s0,s0,t2
   12022:	01ae1393          	slli	t2,t3,0x1a
   12026:	00635a13          	srli	s4,t1,0x6
   1202a:	0143e3b3          	or	t2,t2,s4
   1202e:	00884833          	xor	a6,a6,s0
   12032:	0075c5b3          	xor	a1,a1,t2
   12036:	01c84833          	xor	a6,a6,t3
   1203a:	0065c5b3          	xor	a1,a1,t1
   1203e:	01284833          	xor	a6,a6,s2
   12042:	8da5                	xor	a1,a1,s1
   12044:	00cf4f33          	xor	t5,t5,a2
   12048:	00deceb3          	xor	t4,t4,a3
   1204c:	00d99e13          	slli	t3,s3,0xd
   12050:	0138d313          	srli	t1,a7,0x13
   12054:	006e6e33          	or	t3,t3,t1
   12058:	00d89313          	slli	t1,a7,0xd
   1205c:	0139d393          	srli	t2,s3,0x13
   12060:	00736333          	or	t1,t1,t2
   12064:	01cf4f33          	xor	t5,t5,t3
   12068:	006eceb3          	xor	t4,t4,t1
   1206c:	00499313          	slli	t1,s3,0x4
   12070:	01c8de13          	srli	t3,a7,0x1c
   12074:	01c36333          	or	t1,t1,t3
   12078:	0892                	slli	a7,a7,0x4
   1207a:	01c9d993          	srli	s3,s3,0x1c
   1207e:	0138e8b3          	or	a7,a7,s3
   12082:	006f4f33          	xor	t5,t5,t1
   12086:	011eceb3          	xor	t4,t4,a7
   1208a:	8f31                	xor	a4,a4,a2
   1208c:	8fb5                	xor	a5,a5,a3
   1208e:	00574633          	xor	a2,a4,t0
   12092:	01f7c6b3          	xor	a3,a5,t6
   12096:	07884793          	xori	a5,a6,120
   1209a:	fff94e13          	not	t3,s2
   1209e:	fff4c313          	not	t1,s1
   120a2:	00fe7e33          	and	t3,t3,a5
   120a6:	00b37333          	and	t1,t1,a1
   120aa:	01ee4e33          	xor	t3,t3,t5
   120ae:	01d34333          	xor	t1,t1,t4
   120b2:	fff2c413          	not	s0,t0
   120b6:	ffffc393          	not	t2,t6
   120ba:	8c71                	and	s0,s0,a2
   120bc:	00d3f3b3          	and	t2,t2,a3
   120c0:	8c3d                	xor	s0,s0,a5
   120c2:	00b3c3b3          	xor	t2,t2,a1
   120c6:	ffff4713          	not	a4,t5
   120ca:	fffec793          	not	a5,t4
   120ce:	01277733          	and	a4,a4,s2
   120d2:	8fe5                	and	a5,a5,s1
   120d4:	8f31                	xor	a4,a4,a2
   120d6:	8fb5                	xor	a5,a5,a3
   120d8:	f8784813          	xori	a6,a6,-121
   120dc:	fff5c593          	not	a1,a1
   120e0:	00587833          	and	a6,a6,t0
   120e4:	01f5f5b3          	and	a1,a1,t6
   120e8:	01284833          	xor	a6,a6,s2
   120ec:	8da5                	xor	a1,a1,s1
   120ee:	01c84833          	xor	a6,a6,t3
   120f2:	0065c5b3          	xor	a1,a1,t1
   120f6:	00ee48b3          	xor	a7,t3,a4
   120fa:	00f349b3          	xor	s3,t1,a5
   120fe:	fff64613          	not	a2,a2
   12102:	fff6c693          	not	a3,a3
   12106:	01e67633          	and	a2,a2,t5
   1210a:	01d6f6b3          	and	a3,a3,t4
   1210e:	00564633          	xor	a2,a2,t0
   12112:	01f6c6b3          	xor	a3,a3,t6
   12116:	8e21                	xor	a2,a2,s0
   12118:	0076c6b3          	xor	a3,a3,t2
   1211c:	fff44413          	not	s0,s0
   12120:	fff3c393          	not	t2,t2
   12124:	01d85493          	srli	s1,a6,0x1d
   12128:	00359e93          	slli	t4,a1,0x3
   1212c:	01d4e4b3          	or	s1,s1,t4
   12130:	01d5d913          	srli	s2,a1,0x1d
   12134:	00381e93          	slli	t4,a6,0x3
   12138:	01d96933          	or	s2,s2,t4
   1213c:	00785e93          	srli	t4,a6,0x7
   12140:	01959f13          	slli	t5,a1,0x19
   12144:	01eeeeb3          	or	t4,t4,t5
   12148:	0075df13          	srli	t5,a1,0x7
   1214c:	01981f93          	slli	t6,a6,0x19
   12150:	01ff6f33          	or	t5,t5,t6
   12154:	01e94933          	xor	s2,s2,t5
   12158:	01d4c4b3          	xor	s1,s1,t4
   1215c:	01094933          	xor	s2,s2,a6
   12160:	8cad                	xor	s1,s1,a1
   12162:	01669f13          	slli	t5,a3,0x16
   12166:	00a65593          	srli	a1,a2,0xa
   1216a:	00bf6f33          	or	t5,t5,a1
   1216e:	01661e93          	slli	t4,a2,0x16
   12172:	00a6d593          	srli	a1,a3,0xa
   12176:	00beeeb3          	or	t4,t4,a1
   1217a:	00f69813          	slli	a6,a3,0xf
   1217e:	01165593          	srli	a1,a2,0x11
   12182:	00b86833          	or	a6,a6,a1
   12186:	00f61593          	slli	a1,a2,0xf
   1218a:	0116df93          	srli	t6,a3,0x11
   1218e:	01f5e5b3          	or	a1,a1,t6
   12192:	010f4f33          	xor	t5,t5,a6
   12196:	00beceb3          	xor	t4,t4,a1
   1219a:	00cf4f33          	xor	t5,t5,a2
   1219e:	00deceb3          	xor	t4,t4,a3
   121a2:	01979613          	slli	a2,a5,0x19
   121a6:	00775693          	srli	a3,a4,0x7
   121aa:	8e55                	or	a2,a2,a3
   121ac:	01971693          	slli	a3,a4,0x19
   121b0:	0077d593          	srli	a1,a5,0x7
   121b4:	8ecd                	or	a3,a3,a1
   121b6:	00975593          	srli	a1,a4,0x9
   121ba:	01779813          	slli	a6,a5,0x17
   121be:	0105e5b3          	or	a1,a1,a6
   121c2:	0097d813          	srli	a6,a5,0x9
   121c6:	01771f93          	slli	t6,a4,0x17
   121ca:	01f86833          	or	a6,a6,t6
   121ce:	01064633          	xor	a2,a2,a6
   121d2:	8ead                	xor	a3,a3,a1
   121d4:	01f39813          	slli	a6,t2,0x1f
   121d8:	00145593          	srli	a1,s0,0x1
   121dc:	00b86833          	or	a6,a6,a1
   121e0:	01f41593          	slli	a1,s0,0x1f
   121e4:	0013df93          	srli	t6,t2,0x1
   121e8:	01f5e5b3          	or	a1,a1,t6
   121ec:	01a39293          	slli	t0,t2,0x1a
   121f0:	00645f93          	srli	t6,s0,0x6
   121f4:	01f2e2b3          	or	t0,t0,t6
   121f8:	01a41f93          	slli	t6,s0,0x1a
   121fc:	0063da13          	srli	s4,t2,0x6
   12200:	014fefb3          	or	t6,t6,s4
   12204:	00584833          	xor	a6,a6,t0
   12208:	01f5c5b3          	xor	a1,a1,t6
   1220c:	00884833          	xor	a6,a6,s0
   12210:	0075c5b3          	xor	a1,a1,t2
   12214:	01284833          	xor	a6,a6,s2
   12218:	8da5                	xor	a1,a1,s1
   1221a:	00ce4e33          	xor	t3,t3,a2
   1221e:	00d34333          	xor	t1,t1,a3
   12222:	00d99293          	slli	t0,s3,0xd
   12226:	0138df93          	srli	t6,a7,0x13
   1222a:	01f2e2b3          	or	t0,t0,t6
   1222e:	00d89f93          	slli	t6,a7,0xd
   12232:	0139d393          	srli	t2,s3,0x13
   12236:	007fefb3          	or	t6,t6,t2
   1223a:	005e4e33          	xor	t3,t3,t0
   1223e:	01f34333          	xor	t1,t1,t6
   12242:	00499f93          	slli	t6,s3,0x4
   12246:	01c8d293          	srli	t0,a7,0x1c
   1224a:	005fefb3          	or	t6,t6,t0
   1224e:	0892                	slli	a7,a7,0x4
   12250:	01c9d993          	srli	s3,s3,0x1c
   12254:	0138e8b3          	or	a7,a7,s3
   12258:	01fe4e33          	xor	t3,t3,t6
   1225c:	01134333          	xor	t1,t1,a7
   12260:	8f31                	xor	a4,a4,a2
   12262:	8fb5                	xor	a5,a5,a3
   12264:	01e74633          	xor	a2,a4,t5
   12268:	01d7c6b3          	xor	a3,a5,t4
   1226c:	06984793          	xori	a5,a6,105
   12270:	fff94293          	not	t0,s2
   12274:	fff4cf93          	not	t6,s1
   12278:	00f2f2b3          	and	t0,t0,a5
   1227c:	00bfffb3          	and	t6,t6,a1
   12280:	01c2c2b3          	xor	t0,t0,t3
   12284:	006fcfb3          	xor	t6,t6,t1
   12288:	ffff4413          	not	s0,t5
   1228c:	fffec393          	not	t2,t4
   12290:	8c71                	and	s0,s0,a2
   12292:	00d3f3b3          	and	t2,t2,a3
   12296:	8c3d                	xor	s0,s0,a5
   12298:	00b3c3b3          	xor	t2,t2,a1
   1229c:	fffe4713          	not	a4,t3
   122a0:	fff34793          	not	a5,t1
   122a4:	01277733          	and	a4,a4,s2
   122a8:	8fe5                	and	a5,a5,s1
   122aa:	8f31                	xor	a4,a4,a2
   122ac:	8fb5                	xor	a5,a5,a3
   122ae:	f9684813          	xori	a6,a6,-106
   122b2:	fff5c593          	not	a1,a1
   122b6:	01e87833          	and	a6,a6,t5
   122ba:	01d5f5b3          	and	a1,a1,t4
   122be:	01284833          	xor	a6,a6,s2
   122c2:	8da5                	xor	a1,a1,s1
   122c4:	00584833          	xor	a6,a6,t0
   122c8:	01f5c5b3          	xor	a1,a1,t6
   122cc:	00e2c8b3          	xor	a7,t0,a4
   122d0:	00ffc9b3          	xor	s3,t6,a5
   122d4:	fff64613          	not	a2,a2
   122d8:	fff6c693          	not	a3,a3
   122dc:	01c67633          	and	a2,a2,t3
   122e0:	0066f6b3          	and	a3,a3,t1
   122e4:	01e64633          	xor	a2,a2,t5
   122e8:	01d6c6b3          	xor	a3,a3,t4
   122ec:	8e21                	xor	a2,a2,s0
   122ee:	0076c6b3          	xor	a3,a3,t2
   122f2:	fff44413          	not	s0,s0
   122f6:	fff3c393          	not	t2,t2
   122fa:	01d85493          	srli	s1,a6,0x1d
   122fe:	00359313          	slli	t1,a1,0x3
   12302:	0064e4b3          	or	s1,s1,t1
   12306:	01d5d913          	srli	s2,a1,0x1d
   1230a:	00381313          	slli	t1,a6,0x3
   1230e:	00696933          	or	s2,s2,t1
   12312:	00785313          	srli	t1,a6,0x7
   12316:	01959e13          	slli	t3,a1,0x19
   1231a:	01c36333          	or	t1,t1,t3
   1231e:	0075de13          	srli	t3,a1,0x7
   12322:	01981e93          	slli	t4,a6,0x19
   12326:	01de6e33          	or	t3,t3,t4
   1232a:	01c94933          	xor	s2,s2,t3
   1232e:	0064c4b3          	xor	s1,s1,t1
   12332:	01094933          	xor	s2,s2,a6
   12336:	8cad                	xor	s1,s1,a1
   12338:	01669f13          	slli	t5,a3,0x16
   1233c:	00a65593          	srli	a1,a2,0xa
   12340:	00bf6f33          	or	t5,t5,a1
   12344:	01661e93          	slli	t4,a2,0x16
   12348:	00a6d593          	srli	a1,a3,0xa
   1234c:	00beeeb3          	or	t4,t4,a1
   12350:	00f69813          	slli	a6,a3,0xf
   12354:	01165593          	srli	a1,a2,0x11
   12358:	00b86833          	or	a6,a6,a1
   1235c:	00f61593          	slli	a1,a2,0xf
   12360:	0116d313          	srli	t1,a3,0x11
   12364:	0065e5b3          	or	a1,a1,t1
   12368:	010f4f33          	xor	t5,t5,a6
   1236c:	00beceb3          	xor	t4,t4,a1
   12370:	00cf4f33          	xor	t5,t5,a2
   12374:	00deceb3          	xor	t4,t4,a3
   12378:	01979613          	slli	a2,a5,0x19
   1237c:	00775693          	srli	a3,a4,0x7
   12380:	8e55                	or	a2,a2,a3
   12382:	01971693          	slli	a3,a4,0x19
   12386:	0077d593          	srli	a1,a5,0x7
   1238a:	8ecd                	or	a3,a3,a1
   1238c:	00975593          	srli	a1,a4,0x9
   12390:	01779813          	slli	a6,a5,0x17
   12394:	0105e5b3          	or	a1,a1,a6
   12398:	0097d813          	srli	a6,a5,0x9
   1239c:	01771313          	slli	t1,a4,0x17
   123a0:	00686833          	or	a6,a6,t1
   123a4:	01064633          	xor	a2,a2,a6
   123a8:	8ead                	xor	a3,a3,a1
   123aa:	01f39813          	slli	a6,t2,0x1f
   123ae:	00145593          	srli	a1,s0,0x1
   123b2:	00b86833          	or	a6,a6,a1
   123b6:	01f41593          	slli	a1,s0,0x1f
   123ba:	0013d313          	srli	t1,t2,0x1
   123be:	0065e5b3          	or	a1,a1,t1
   123c2:	01a39e13          	slli	t3,t2,0x1a
   123c6:	00645313          	srli	t1,s0,0x6
   123ca:	006e6e33          	or	t3,t3,t1
   123ce:	01a41313          	slli	t1,s0,0x1a
   123d2:	0063da13          	srli	s4,t2,0x6
   123d6:	01436333          	or	t1,t1,s4
   123da:	01c84833          	xor	a6,a6,t3
   123de:	0065c5b3          	xor	a1,a1,t1
   123e2:	00884833          	xor	a6,a6,s0
   123e6:	0075c5b3          	xor	a1,a1,t2
   123ea:	01284833          	xor	a6,a6,s2
   123ee:	8da5                	xor	a1,a1,s1
   123f0:	00d99413          	slli	s0,s3,0xd
   123f4:	0138d313          	srli	t1,a7,0x13
   123f8:	00646433          	or	s0,s0,t1
   123fc:	00d89393          	slli	t2,a7,0xd
   12400:	0139d313          	srli	t1,s3,0x13
   12404:	0063e3b3          	or	t2,t2,t1
   12408:	00c2c2b3          	xor	t0,t0,a2
   1240c:	00dfcfb3          	xor	t6,t6,a3
   12410:	00544433          	xor	s0,s0,t0
   12414:	01f3c3b3          	xor	t2,t2,t6
   12418:	00499313          	slli	t1,s3,0x4
   1241c:	01c8de13          	srli	t3,a7,0x1c
   12420:	01c36333          	or	t1,t1,t3
   12424:	0892                	slli	a7,a7,0x4
   12426:	01c9d993          	srli	s3,s3,0x1c
   1242a:	0138e8b3          	or	a7,a7,s3
   1242e:	00644433          	xor	s0,s0,t1
   12432:	0113c3b3          	xor	t2,t2,a7
   12436:	8f31                	xor	a4,a4,a2
   12438:	8fb5                	xor	a5,a5,a3
   1243a:	01e74633          	xor	a2,a4,t5
   1243e:	01d7c6b3          	xor	a3,a5,t4
   12442:	05a84793          	xori	a5,a6,90
   12446:	fff94293          	not	t0,s2
   1244a:	fff4cf93          	not	t6,s1
   1244e:	00f2f2b3          	and	t0,t0,a5
   12452:	00bfffb3          	and	t6,t6,a1
   12456:	0082c2b3          	xor	t0,t0,s0
   1245a:	007fcfb3          	xor	t6,t6,t2
   1245e:	ffff4e13          	not	t3,t5
   12462:	fffec313          	not	t1,t4
   12466:	00ce7e33          	and	t3,t3,a2
   1246a:	00d37333          	and	t1,t1,a3
   1246e:	00fe4e33          	xor	t3,t3,a5
   12472:	00b34333          	xor	t1,t1,a1
   12476:	fff44713          	not	a4,s0
   1247a:	fff3c793          	not	a5,t2
   1247e:	01277733          	and	a4,a4,s2
   12482:	8fe5                	and	a5,a5,s1
   12484:	8f31                	xor	a4,a4,a2
   12486:	8fb5                	xor	a5,a5,a3
   12488:	fa584813          	xori	a6,a6,-91
   1248c:	fff5c593          	not	a1,a1
   12490:	01e87833          	and	a6,a6,t5
   12494:	01d5f5b3          	and	a1,a1,t4
   12498:	01284833          	xor	a6,a6,s2
   1249c:	8da5                	xor	a1,a1,s1
   1249e:	00584833          	xor	a6,a6,t0
   124a2:	01f5c5b3          	xor	a1,a1,t6
   124a6:	00e2c8b3          	xor	a7,t0,a4
   124aa:	00ffc4b3          	xor	s1,t6,a5
   124ae:	fff64613          	not	a2,a2
   124b2:	fff6c693          	not	a3,a3
   124b6:	8e61                	and	a2,a2,s0
   124b8:	0076f6b3          	and	a3,a3,t2
   124bc:	01e64633          	xor	a2,a2,t5
   124c0:	01d6c6b3          	xor	a3,a3,t4
   124c4:	01c64633          	xor	a2,a2,t3
   124c8:	0066c6b3          	xor	a3,a3,t1
   124cc:	fffe4e13          	not	t3,t3
   124d0:	fff34313          	not	t1,t1
   124d4:	01d85393          	srli	t2,a6,0x1d
   124d8:	00359e93          	slli	t4,a1,0x3
   124dc:	01d3e3b3          	or	t2,t2,t4
   124e0:	01d5d413          	srli	s0,a1,0x1d
   124e4:	00381e93          	slli	t4,a6,0x3
   124e8:	01d46433          	or	s0,s0,t4
   124ec:	00785e93          	srli	t4,a6,0x7
   124f0:	01959f13          	slli	t5,a1,0x19
   124f4:	01eeeeb3          	or	t4,t4,t5
   124f8:	0075df13          	srli	t5,a1,0x7
   124fc:	01981913          	slli	s2,a6,0x19
   12500:	012f6f33          	or	t5,t5,s2
   12504:	01e44433          	xor	s0,s0,t5
   12508:	01d3c3b3          	xor	t2,t2,t4
   1250c:	01044433          	xor	s0,s0,a6
   12510:	00b3c3b3          	xor	t2,t2,a1
   12514:	01669f13          	slli	t5,a3,0x16
   12518:	00a65593          	srli	a1,a2,0xa
   1251c:	00bf6f33          	or	t5,t5,a1
   12520:	01661e93          	slli	t4,a2,0x16
   12524:	00a6d593          	srli	a1,a3,0xa
   12528:	00beeeb3          	or	t4,t4,a1
   1252c:	00f69813          	slli	a6,a3,0xf
   12530:	01165593          	srli	a1,a2,0x11
   12534:	00b86833          	or	a6,a6,a1
   12538:	00f61593          	slli	a1,a2,0xf
   1253c:	0116d913          	srli	s2,a3,0x11
   12540:	0125e5b3          	or	a1,a1,s2
   12544:	010f4f33          	xor	t5,t5,a6
   12548:	00beceb3          	xor	t4,t4,a1
   1254c:	00cf4f33          	xor	t5,t5,a2
   12550:	00deceb3          	xor	t4,t4,a3
   12554:	01979593          	slli	a1,a5,0x19
   12558:	00775693          	srli	a3,a4,0x7
   1255c:	8dd5                	or	a1,a1,a3
   1255e:	01971613          	slli	a2,a4,0x19
   12562:	0077d693          	srli	a3,a5,0x7
   12566:	8e55                	or	a2,a2,a3
   12568:	00975693          	srli	a3,a4,0x9
   1256c:	01779813          	slli	a6,a5,0x17
   12570:	0106e6b3          	or	a3,a3,a6
   12574:	0097d813          	srli	a6,a5,0x9
   12578:	01771913          	slli	s2,a4,0x17
   1257c:	01286833          	or	a6,a6,s2
   12580:	0105c5b3          	xor	a1,a1,a6
   12584:	8e35                	xor	a2,a2,a3
   12586:	01f31813          	slli	a6,t1,0x1f
   1258a:	001e5693          	srli	a3,t3,0x1
   1258e:	00d86833          	or	a6,a6,a3
   12592:	01fe1693          	slli	a3,t3,0x1f
   12596:	00135913          	srli	s2,t1,0x1
   1259a:	0126e6b3          	or	a3,a3,s2
   1259e:	01a31993          	slli	s3,t1,0x1a
   125a2:	006e5913          	srli	s2,t3,0x6
   125a6:	0129e9b3          	or	s3,s3,s2
   125aa:	01ae1913          	slli	s2,t3,0x1a
   125ae:	00635a13          	srli	s4,t1,0x6
   125b2:	01496933          	or	s2,s2,s4
   125b6:	01384833          	xor	a6,a6,s3
   125ba:	0126c6b3          	xor	a3,a3,s2
   125be:	01c84833          	xor	a6,a6,t3
   125c2:	0066c6b3          	xor	a3,a3,t1
   125c6:	00884833          	xor	a6,a6,s0
   125ca:	0076c6b3          	xor	a3,a3,t2
   125ce:	00d49313          	slli	t1,s1,0xd
   125d2:	0138de13          	srli	t3,a7,0x13
   125d6:	01c36333          	or	t1,t1,t3
   125da:	00d89e13          	slli	t3,a7,0xd
   125de:	0134d913          	srli	s2,s1,0x13
   125e2:	012e6e33          	or	t3,t3,s2
   125e6:	00b2c2b3          	xor	t0,t0,a1
   125ea:	00cfcfb3          	xor	t6,t6,a2
   125ee:	005342b3          	xor	t0,t1,t0
   125f2:	01fe4e33          	xor	t3,t3,t6
   125f6:	00449313          	slli	t1,s1,0x4
   125fa:	01c8df93          	srli	t6,a7,0x1c
   125fe:	01f36333          	or	t1,t1,t6
   12602:	0892                	slli	a7,a7,0x4
   12604:	80f1                	srli	s1,s1,0x1c
   12606:	0098e8b3          	or	a7,a7,s1
   1260a:	0062c2b3          	xor	t0,t0,t1
   1260e:	011e4e33          	xor	t3,t3,a7
   12612:	8f2d                	xor	a4,a4,a1
   12614:	8fb1                	xor	a5,a5,a2
   12616:	01e74733          	xor	a4,a4,t5
   1261a:	01d7c7b3          	xor	a5,a5,t4
   1261e:	04b84893          	xori	a7,a6,75
   12622:	fff44493          	not	s1,s0
   12626:	fff3cf93          	not	t6,t2
   1262a:	0114f4b3          	and	s1,s1,a7
   1262e:	00dfffb3          	and	t6,t6,a3
   12632:	0054c4b3          	xor	s1,s1,t0
   12636:	01cfcfb3          	xor	t6,t6,t3
   1263a:	ffff4593          	not	a1,t5
   1263e:	fffec613          	not	a2,t4
   12642:	8df9                	and	a1,a1,a4
   12644:	8e7d                	and	a2,a2,a5
   12646:	0115c5b3          	xor	a1,a1,a7
   1264a:	8e35                	xor	a2,a2,a3
   1264c:	fff2c313          	not	t1,t0
   12650:	fffe4893          	not	a7,t3
   12654:	00837333          	and	t1,t1,s0
   12658:	0078f8b3          	and	a7,a7,t2
   1265c:	00e34333          	xor	t1,t1,a4
   12660:	00f8c8b3          	xor	a7,a7,a5
   12664:	fb484813          	xori	a6,a6,-76
   12668:	fff6c693          	not	a3,a3
   1266c:	01e87833          	and	a6,a6,t5
   12670:	01d6f6b3          	and	a3,a3,t4
   12674:	00884833          	xor	a6,a6,s0
   12678:	0076c6b3          	xor	a3,a3,t2
   1267c:	00984833          	xor	a6,a6,s1
   12680:	01f6c6b3          	xor	a3,a3,t6
   12684:	0064c3b3          	xor	t2,s1,t1
   12688:	011fcfb3          	xor	t6,t6,a7
   1268c:	fff74713          	not	a4,a4
   12690:	fff7c793          	not	a5,a5
   12694:	00577733          	and	a4,a4,t0
   12698:	01c7f7b3          	and	a5,a5,t3
   1269c:	01e74733          	xor	a4,a4,t5
   126a0:	01d7c7b3          	xor	a5,a5,t4
   126a4:	8f2d                	xor	a4,a4,a1
   126a6:	8fb1                	xor	a5,a5,a2
   126a8:	fff5cf13          	not	t5,a1
   126ac:	fff64613          	not	a2,a2
   126b0:	00df9593          	slli	a1,t6,0xd
   126b4:	0133de13          	srli	t3,t2,0x13
   126b8:	01c5e5b3          	or	a1,a1,t3
   126bc:	00d39e13          	slli	t3,t2,0xd
   126c0:	013fde93          	srli	t4,t6,0x13
   126c4:	01de6e33          	or	t3,t3,t4
   126c8:	004f9293          	slli	t0,t6,0x4
   126cc:	01c3de93          	srli	t4,t2,0x1c
   126d0:	01d2e2b3          	or	t0,t0,t4
   126d4:	00439e93          	slli	t4,t2,0x4
   126d8:	01cfd413          	srli	s0,t6,0x1c
   126dc:	008eeeb3          	or	t4,t4,s0
   126e0:	0055c5b3          	xor	a1,a1,t0
   126e4:	01de4e33          	xor	t3,t3,t4
   126e8:	0075c5b3          	xor	a1,a1,t2
   126ec:	c10c                	sw	a1,0(a0)
   126ee:	01fe4e33          	xor	t3,t3,t6
   126f2:	01c52223          	sw	t3,4(a0)
   126f6:	01d85e13          	srli	t3,a6,0x1d
   126fa:	00369593          	slli	a1,a3,0x3
   126fe:	00be6e33          	or	t3,t3,a1
   12702:	01d6de93          	srli	t4,a3,0x1d
   12706:	00381593          	slli	a1,a6,0x3
   1270a:	00beeeb3          	or	t4,t4,a1
   1270e:	00785593          	srli	a1,a6,0x7
   12712:	01969f93          	slli	t6,a3,0x19
   12716:	01f5e5b3          	or	a1,a1,t6
   1271a:	0076df93          	srli	t6,a3,0x7
   1271e:	01981293          	slli	t0,a6,0x19
   12722:	005fefb3          	or	t6,t6,t0
   12726:	01feceb3          	xor	t4,t4,t6
   1272a:	00be4e33          	xor	t3,t3,a1
   1272e:	010ec833          	xor	a6,t4,a6
   12732:	01052423          	sw	a6,8(a0)
   12736:	00de46b3          	xor	a3,t3,a3
   1273a:	c554                	sw	a3,12(a0)
   1273c:	01f61593          	slli	a1,a2,0x1f
   12740:	001f5693          	srli	a3,t5,0x1
   12744:	8dd5                	or	a1,a1,a3
   12746:	01ff1693          	slli	a3,t5,0x1f
   1274a:	00165813          	srli	a6,a2,0x1
   1274e:	0106e6b3          	or	a3,a3,a6
   12752:	01a61e13          	slli	t3,a2,0x1a
   12756:	006f5813          	srli	a6,t5,0x6
   1275a:	010e6e33          	or	t3,t3,a6
   1275e:	01af1813          	slli	a6,t5,0x1a
   12762:	00665e93          	srli	t4,a2,0x6
   12766:	01d86833          	or	a6,a6,t4
   1276a:	01c5c5b3          	xor	a1,a1,t3
   1276e:	0106c6b3          	xor	a3,a3,a6
   12772:	01e5c5b3          	xor	a1,a1,t5
   12776:	c90c                	sw	a1,16(a0)
   12778:	8e35                	xor	a2,a2,a3
   1277a:	c950                	sw	a2,20(a0)
   1277c:	01679613          	slli	a2,a5,0x16
   12780:	00a75693          	srli	a3,a4,0xa
   12784:	8e55                	or	a2,a2,a3
   12786:	01671693          	slli	a3,a4,0x16
   1278a:	00a7d593          	srli	a1,a5,0xa
   1278e:	8ecd                	or	a3,a3,a1
   12790:	00f79813          	slli	a6,a5,0xf
   12794:	01175593          	srli	a1,a4,0x11
   12798:	00b86833          	or	a6,a6,a1
   1279c:	00f71593          	slli	a1,a4,0xf
   127a0:	0117de13          	srli	t3,a5,0x11
   127a4:	01c5e5b3          	or	a1,a1,t3
   127a8:	01064633          	xor	a2,a2,a6
   127ac:	8ead                	xor	a3,a3,a1
   127ae:	8f31                	xor	a4,a4,a2
   127b0:	cd18                	sw	a4,24(a0)
   127b2:	8fb5                	xor	a5,a5,a3
   127b4:	cd5c                	sw	a5,28(a0)
   127b6:	01989713          	slli	a4,a7,0x19
   127ba:	00735793          	srli	a5,t1,0x7
   127be:	8f5d                	or	a4,a4,a5
   127c0:	01931793          	slli	a5,t1,0x19
   127c4:	0078d693          	srli	a3,a7,0x7
   127c8:	8fd5                	or	a5,a5,a3
   127ca:	00935693          	srli	a3,t1,0x9
   127ce:	01789613          	slli	a2,a7,0x17
   127d2:	8ed1                	or	a3,a3,a2
   127d4:	0098d613          	srli	a2,a7,0x9
   127d8:	01731593          	slli	a1,t1,0x17
   127dc:	8e4d                	or	a2,a2,a1
   127de:	8f31                	xor	a4,a4,a2
   127e0:	8fb5                	xor	a5,a5,a3
   127e2:	00674733          	xor	a4,a4,t1
   127e6:	d118                	sw	a4,32(a0)
   127e8:	0117c7b3          	xor	a5,a5,a7
   127ec:	d15c                	sw	a5,36(a0)
   127ee:	4472                	lw	s0,28(sp)
   127f0:	44e2                	lw	s1,24(sp)
   127f2:	4952                	lw	s2,20(sp)
   127f4:	49c2                	lw	s3,16(sp)
   127f6:	4a32                	lw	s4,12(sp)
   127f8:	6105                	addi	sp,sp,32
   127fa:	8082                	ret

000127fc <crypto_aead_encrypt>:
   127fc:	7175                	addi	sp,sp,-144
   127fe:	c706                	sw	ra,140(sp)
   12800:	c522                	sw	s0,136(sp)
   12802:	c326                	sw	s1,132(sp)
   12804:	c14a                	sw	s2,128(sp)
   12806:	dece                	sw	s3,124(sp)
   12808:	dcd2                	sw	s4,120(sp)
   1280a:	dad6                	sw	s5,116(sp)
   1280c:	d8da                	sw	s6,112(sp)
   1280e:	d6de                	sw	s7,108(sp)
   12810:	d4e2                	sw	s8,104(sp)
   12812:	d2e6                	sw	s9,100(sp)
   12814:	d0ea                	sw	s10,96(sp)
   12816:	ceee                	sw	s11,92(sp)
   12818:	c42a                	sw	a0,8(sp)
   1281a:	c632                	sw	a2,12(sp)
   1281c:	8636                	mv	a2,a3
   1281e:	c236                	sw	a3,4(sp)
   12820:	84ba                	mv	s1,a4
   12822:	c83a                	sw	a4,16(sp)
   12824:	843e                	mv	s0,a5
   12826:	8d42                	mv	s10,a6
   12828:	89c6                	mv	s3,a7
   1282a:	455a                	lw	a0,148(sp)
   1282c:	47ea                	lw	a5,152(sp)
   1282e:	06c1                	addi	a3,a3,16
   12830:	00c6b733          	sltu	a4,a3,a2
   12834:	9726                	add	a4,a4,s1
   12836:	c194                	sw	a3,0(a1)
   12838:	c1d8                	sw	a4,4(a1)
   1283a:	863e                	mv	a2,a5
   1283c:	03800713          	li	a4,56
   12840:	4801                	li	a6,0
   12842:	4581                	li	a1,0
   12844:	4efd                	li	t4,31
   12846:	4e01                	li	t3,0
   12848:	58e1                	li	a7,-8
   1284a:	a01d                	j	12870 <crypto_aead_encrypt+0x74>
   1284c:	00135d93          	srli	s11,t1,0x1
   12850:	40ee86b3          	sub	a3,t4,a4
   12854:	00ddddb3          	srl	s11,s11,a3
   12858:	00e31b33          	sll	s6,t1,a4
   1285c:	01686b33          	or	s6,a6,s6
   12860:	01b5edb3          	or	s11,a1,s11
   12864:	885a                	mv	a6,s6
   12866:	85ee                	mv	a1,s11
   12868:	0605                	addi	a2,a2,1
   1286a:	1761                	addi	a4,a4,-8
   1286c:	01170c63          	beq	a4,a7,12884 <crypto_aead_encrypt+0x88>
   12870:	00064303          	lbu	t1,0(a2)
   12874:	fe070693          	addi	a3,a4,-32
   12878:	fc06cae3          	bltz	a3,1284c <crypto_aead_encrypt+0x50>
   1287c:	00d31db3          	sll	s11,t1,a3
   12880:	8b72                	mv	s6,t3
   12882:	bfe9                	j	1285c <crypto_aead_encrypt+0x60>
   12884:	00878713          	addi	a4,a5,8
   12888:	03800793          	li	a5,56
   1288c:	4601                	li	a2,0
   1288e:	4681                	li	a3,0
   12890:	437d                	li	t1,31
   12892:	4881                	li	a7,0
   12894:	55e1                	li	a1,-8
   12896:	a015                	j	128ba <crypto_aead_encrypt+0xbe>
   12898:	001e5813          	srli	a6,t3,0x1
   1289c:	40f30eb3          	sub	t4,t1,a5
   128a0:	01d85833          	srl	a6,a6,t4
   128a4:	00fe14b3          	sll	s1,t3,a5
   128a8:	8cd1                	or	s1,s1,a2
   128aa:	0106e833          	or	a6,a3,a6
   128ae:	8626                	mv	a2,s1
   128b0:	86c2                	mv	a3,a6
   128b2:	0705                	addi	a4,a4,1
   128b4:	17e1                	addi	a5,a5,-8
   128b6:	00b78c63          	beq	a5,a1,128ce <crypto_aead_encrypt+0xd2>
   128ba:	00074e03          	lbu	t3,0(a4)
   128be:	fe078813          	addi	a6,a5,-32
   128c2:	fc084be3          	bltz	a6,12898 <crypto_aead_encrypt+0x9c>
   128c6:	010e1833          	sll	a6,t3,a6
   128ca:	84c6                	mv	s1,a7
   128cc:	bff1                	j	128a8 <crypto_aead_encrypt+0xac>
   128ce:	ca42                	sw	a6,20(sp)
   128d0:	882a                	mv	a6,a0
   128d2:	03800713          	li	a4,56
   128d6:	4301                	li	t1,0
   128d8:	4881                	li	a7,0
   128da:	4f7d                	li	t5,31
   128dc:	4e81                	li	t4,0
   128de:	5e61                	li	t3,-8
   128e0:	a01d                	j	12906 <crypto_aead_encrypt+0x10a>
   128e2:	00165693          	srli	a3,a2,0x1
   128e6:	40ef07b3          	sub	a5,t5,a4
   128ea:	00f6d6b3          	srl	a3,a3,a5
   128ee:	00e615b3          	sll	a1,a2,a4
   128f2:	00b365b3          	or	a1,t1,a1
   128f6:	00d8e6b3          	or	a3,a7,a3
   128fa:	832e                	mv	t1,a1
   128fc:	88b6                	mv	a7,a3
   128fe:	0805                	addi	a6,a6,1
   12900:	1761                	addi	a4,a4,-8
   12902:	01c70c63          	beq	a4,t3,1291a <crypto_aead_encrypt+0x11e>
   12906:	00084603          	lbu	a2,0(a6)
   1290a:	fe070793          	addi	a5,a4,-32
   1290e:	fc07cae3          	bltz	a5,128e2 <crypto_aead_encrypt+0xe6>
   12912:	00f616b3          	sll	a3,a2,a5
   12916:	85f6                	mv	a1,t4
   12918:	bfe9                	j	128f2 <crypto_aead_encrypt+0xf6>
   1291a:	0521                	addi	a0,a0,8
   1291c:	03800613          	li	a2,56
   12920:	4881                	li	a7,0
   12922:	4801                	li	a6,0
   12924:	4f7d                	li	t5,31
   12926:	4e81                	li	t4,0
   12928:	5361                	li	t1,-8
   1292a:	a01d                	j	12950 <crypto_aead_encrypt+0x154>
   1292c:	00175793          	srli	a5,a4,0x1
   12930:	40cf0e33          	sub	t3,t5,a2
   12934:	01c7d7b3          	srl	a5,a5,t3
   12938:	00c71733          	sll	a4,a4,a2
   1293c:	00e8e733          	or	a4,a7,a4
   12940:	00f867b3          	or	a5,a6,a5
   12944:	88ba                	mv	a7,a4
   12946:	883e                	mv	a6,a5
   12948:	0505                	addi	a0,a0,1
   1294a:	1661                	addi	a2,a2,-8
   1294c:	00660c63          	beq	a2,t1,12964 <crypto_aead_encrypt+0x168>
   12950:	00054703          	lbu	a4,0(a0)
   12954:	fe060793          	addi	a5,a2,-32
   12958:	fc07cae3          	bltz	a5,1292c <crypto_aead_encrypt+0x130>
   1295c:	00f717b3          	sll	a5,a4,a5
   12960:	8776                	mv	a4,t4
   12962:	bfe9                	j	1293c <crypto_aead_encrypt+0x140>
   12964:	4801                	li	a6,0
   12966:	808018b7          	lui	a7,0x80801
   1296a:	c0888893          	addi	a7,a7,-1016 # 80800c08 <__BSS_END__+0x807de1ac>
   1296e:	d442                	sw	a6,40(sp)
   12970:	d646                	sw	a7,44(sp)
   12972:	d85a                	sw	s6,48(sp)
   12974:	da6e                	sw	s11,52(sp)
   12976:	dc26                	sw	s1,56(sp)
   12978:	4952                	lw	s2,20(sp)
   1297a:	de4a                	sw	s2,60(sp)
   1297c:	c0ae                	sw	a1,64(sp)
   1297e:	c2b6                	sw	a3,68(sp)
   12980:	c4ba                	sw	a4,72(sp)
   12982:	c6be                	sw	a5,76(sp)
   12984:	1028                	addi	a0,sp,40
   12986:	845fe0ef          	jal	111ca <P12>
   1298a:	4b86                	lw	s7,64(sp)
   1298c:	016bcbb3          	xor	s7,s7,s6
   12990:	4a96                	lw	s5,68(sp)
   12992:	01bacab3          	xor	s5,s5,s11
   12996:	c0de                	sw	s7,64(sp)
   12998:	c2d6                	sw	s5,68(sp)
   1299a:	43a6                	lw	t2,72(sp)
   1299c:	0093c3b3          	xor	t2,t2,s1
   129a0:	42b6                	lw	t0,76(sp)
   129a2:	0122c2b3          	xor	t0,t0,s2
   129a6:	c49e                	sw	t2,72(sp)
   129a8:	c696                	sw	t0,76(sp)
   129aa:	013d67b3          	or	a5,s10,s3
   129ae:	e399                	bnez	a5,129b4 <crypto_aead_encrypt+0x1b8>
   129b0:	0e00106f          	j	13a90 <crypto_aead_encrypt+0x1294>
   129b4:	02098263          	beqz	s3,129d8 <crypto_aead_encrypt+0x1dc>
   129b8:	5ca2                	lw	s9,40(sp)
   129ba:	5c32                	lw	s8,44(sp)
   129bc:	55c2                	lw	a1,48(sp)
   129be:	5752                	lw	a4,52(sp)
   129c0:	5962                	lw	s2,56(sp)
   129c2:	50f2                	lw	ra,60(sp)
   129c4:	8a6a                	mv	s4,s10
   129c6:	88ce                	mv	a7,s3
   129c8:	8f22                	mv	t5,s0
   129ca:	4e01                	li	t3,0
   129cc:	4efd                	li	t4,31
   129ce:	5361                	li	t1,-8
   129d0:	cc22                	sw	s0,24(sp)
   129d2:	ce6a                	sw	s10,28(sp)
   129d4:	7970006f          	j	1396a <crypto_aead_encrypt+0x116e>
   129d8:	00099563          	bnez	s3,129e2 <crypto_aead_encrypt+0x1e6>
   129dc:	47bd                	li	a5,15
   129de:	fda7ede3          	bltu	a5,s10,129b8 <crypto_aead_encrypt+0x1bc>
   129e2:	7e0993e3          	bnez	s3,139c8 <crypto_aead_encrypt+0x11cc>
   129e6:	00099563          	bnez	s3,129f0 <crypto_aead_encrypt+0x1f4>
   129ea:	479d                	li	a5,7
   129ec:	7da7eee3          	bltu	a5,s10,139c8 <crypto_aead_encrypt+0x11cc>
   129f0:	86ea                	mv	a3,s10
   129f2:	0ec0106f          	j	13ade <crypto_aead_encrypt+0x12e2>
   129f6:	00155693          	srli	a3,a0,0x1
   129fa:	40fe89b3          	sub	s3,t4,a5
   129fe:	0136d6b3          	srl	a3,a3,s3
   12a02:	00f51533          	sll	a0,a0,a5
   12a06:	8d41                	or	a0,a0,s0
   12a08:	00d866b3          	or	a3,a6,a3
   12a0c:	842a                	mv	s0,a0
   12a0e:	8836                	mv	a6,a3
   12a10:	0605                	addi	a2,a2,1
   12a12:	17e1                	addi	a5,a5,-8
   12a14:	00678c63          	beq	a5,t1,12a2c <crypto_aead_encrypt+0x230>
   12a18:	00064503          	lbu	a0,0(a2)
   12a1c:	fe078693          	addi	a3,a5,-32
   12a20:	fc06cbe3          	bltz	a3,129f6 <crypto_aead_encrypt+0x1fa>
   12a24:	00d516b3          	sll	a3,a0,a3
   12a28:	8572                	mv	a0,t3
   12a2a:	bff1                	j	12a06 <crypto_aead_encrypt+0x20a>
   12a2c:	0fa1                	addi	t6,t6,8
   12a2e:	03800813          	li	a6,56
   12a32:	89f2                	mv	s3,t3
   12a34:	8472                	mv	s0,t3
   12a36:	a015                	j	12a5a <crypto_aead_encrypt+0x25e>
   12a38:	00165793          	srli	a5,a2,0x1
   12a3c:	410e8d33          	sub	s10,t4,a6
   12a40:	01a7d7b3          	srl	a5,a5,s10
   12a44:	01061633          	sll	a2,a2,a6
   12a48:	00c9e633          	or	a2,s3,a2
   12a4c:	8fc1                	or	a5,a5,s0
   12a4e:	89b2                	mv	s3,a2
   12a50:	843e                	mv	s0,a5
   12a52:	0f85                	addi	t6,t6,1
   12a54:	1861                	addi	a6,a6,-8
   12a56:	00680c63          	beq	a6,t1,12a6e <crypto_aead_encrypt+0x272>
   12a5a:	000fc603          	lbu	a2,0(t6)
   12a5e:	fe080793          	addi	a5,a6,-32
   12a62:	fc07cbe3          	bltz	a5,12a38 <crypto_aead_encrypt+0x23c>
   12a66:	00f617b3          	sll	a5,a2,a5
   12a6a:	8672                	mv	a2,t3
   12a6c:	bff1                	j	12a48 <crypto_aead_encrypt+0x24c>
   12a6e:	8e2d                	xor	a2,a2,a1
   12a70:	8f3d                	xor	a4,a4,a5
   12a72:	01264933          	xor	s2,a2,s2
   12a76:	001740b3          	xor	ra,a4,ra
   12a7a:	007cccb3          	xor	s9,s9,t2
   12a7e:	005c4c33          	xor	s8,s8,t0
   12a82:	00acccb3          	xor	s9,s9,a0
   12a86:	00dc4c33          	xor	s8,s8,a3
   12a8a:	007bc3b3          	xor	t2,s7,t2
   12a8e:	005ac2b3          	xor	t0,s5,t0
   12a92:	0b494793          	xori	a5,s2,180
   12a96:	fff64f93          	not	t6,a2
   12a9a:	fff74813          	not	a6,a4
   12a9e:	00ffffb3          	and	t6,t6,a5
   12aa2:	00187833          	and	a6,a6,ra
   12aa6:	019fcfb3          	xor	t6,t6,s9
   12aaa:	01884833          	xor	a6,a6,s8
   12aae:	fffbc513          	not	a0,s7
   12ab2:	fffac593          	not	a1,s5
   12ab6:	00757533          	and	a0,a0,t2
   12aba:	0055f5b3          	and	a1,a1,t0
   12abe:	8d3d                	xor	a0,a0,a5
   12ac0:	0015c5b3          	xor	a1,a1,ra
   12ac4:	fffcc693          	not	a3,s9
   12ac8:	fffc4793          	not	a5,s8
   12acc:	8ef1                	and	a3,a3,a2
   12ace:	8ff9                	and	a5,a5,a4
   12ad0:	0076c6b3          	xor	a3,a3,t2
   12ad4:	0057c7b3          	xor	a5,a5,t0
   12ad8:	f4b94913          	xori	s2,s2,-181
   12adc:	fff0c093          	not	ra,ra
   12ae0:	01797933          	and	s2,s2,s7
   12ae4:	0150f0b3          	and	ra,ra,s5
   12ae8:	00c94633          	xor	a2,s2,a2
   12aec:	00e0c733          	xor	a4,ra,a4
   12af0:	01f64633          	xor	a2,a2,t6
   12af4:	01074733          	xor	a4,a4,a6
   12af8:	00dfc933          	xor	s2,t6,a3
   12afc:	00f84d33          	xor	s10,a6,a5
   12b00:	fff3c393          	not	t2,t2
   12b04:	fff2c993          	not	s3,t0
   12b08:	0193f2b3          	and	t0,t2,s9
   12b0c:	0189f9b3          	and	s3,s3,s8
   12b10:	0172c2b3          	xor	t0,t0,s7
   12b14:	0159c9b3          	xor	s3,s3,s5
   12b18:	00a2cab3          	xor	s5,t0,a0
   12b1c:	00b9c9b3          	xor	s3,s3,a1
   12b20:	fff54513          	not	a0,a0
   12b24:	fff5c593          	not	a1,a1
   12b28:	01d65093          	srli	ra,a2,0x1d
   12b2c:	00371293          	slli	t0,a4,0x3
   12b30:	0050e0b3          	or	ra,ra,t0
   12b34:	01d75413          	srli	s0,a4,0x1d
   12b38:	00361293          	slli	t0,a2,0x3
   12b3c:	00546433          	or	s0,s0,t0
   12b40:	00765293          	srli	t0,a2,0x7
   12b44:	01971393          	slli	t2,a4,0x19
   12b48:	0072e2b3          	or	t0,t0,t2
   12b4c:	00775393          	srli	t2,a4,0x7
   12b50:	01961b93          	slli	s7,a2,0x19
   12b54:	0173e3b3          	or	t2,t2,s7
   12b58:	00744433          	xor	s0,s0,t2
   12b5c:	0050c0b3          	xor	ra,ra,t0
   12b60:	8c31                	xor	s0,s0,a2
   12b62:	00e0c0b3          	xor	ra,ra,a4
   12b66:	01699393          	slli	t2,s3,0x16
   12b6a:	00aad713          	srli	a4,s5,0xa
   12b6e:	00e3e3b3          	or	t2,t2,a4
   12b72:	016a9293          	slli	t0,s5,0x16
   12b76:	00a9d713          	srli	a4,s3,0xa
   12b7a:	00e2e2b3          	or	t0,t0,a4
   12b7e:	00f99613          	slli	a2,s3,0xf
   12b82:	011ad713          	srli	a4,s5,0x11
   12b86:	8e59                	or	a2,a2,a4
   12b88:	00fa9713          	slli	a4,s5,0xf
   12b8c:	0119db93          	srli	s7,s3,0x11
   12b90:	01776733          	or	a4,a4,s7
   12b94:	00c3c3b3          	xor	t2,t2,a2
   12b98:	00e2c2b3          	xor	t0,t0,a4
   12b9c:	0153c3b3          	xor	t2,t2,s5
   12ba0:	0132c2b3          	xor	t0,t0,s3
   12ba4:	01979a93          	slli	s5,a5,0x19
   12ba8:	0076d713          	srli	a4,a3,0x7
   12bac:	00eaeab3          	or	s5,s5,a4
   12bb0:	01969993          	slli	s3,a3,0x19
   12bb4:	0077d713          	srli	a4,a5,0x7
   12bb8:	00e9e9b3          	or	s3,s3,a4
   12bbc:	0096d613          	srli	a2,a3,0x9
   12bc0:	01779713          	slli	a4,a5,0x17
   12bc4:	8e59                	or	a2,a2,a4
   12bc6:	0097d713          	srli	a4,a5,0x9
   12bca:	01769b93          	slli	s7,a3,0x17
   12bce:	01776733          	or	a4,a4,s7
   12bd2:	00eacab3          	xor	s5,s5,a4
   12bd6:	00c9c9b3          	xor	s3,s3,a2
   12bda:	01f59c13          	slli	s8,a1,0x1f
   12bde:	00155713          	srli	a4,a0,0x1
   12be2:	00ec6c33          	or	s8,s8,a4
   12be6:	01f51713          	slli	a4,a0,0x1f
   12bea:	0015d613          	srli	a2,a1,0x1
   12bee:	8f51                	or	a4,a4,a2
   12bf0:	01a59613          	slli	a2,a1,0x1a
   12bf4:	00655b93          	srli	s7,a0,0x6
   12bf8:	01766633          	or	a2,a2,s7
   12bfc:	01a51b93          	slli	s7,a0,0x1a
   12c00:	0065dc93          	srli	s9,a1,0x6
   12c04:	019bebb3          	or	s7,s7,s9
   12c08:	00cc4c33          	xor	s8,s8,a2
   12c0c:	01774733          	xor	a4,a4,s7
   12c10:	00ac4bb3          	xor	s7,s8,a0
   12c14:	00b74633          	xor	a2,a4,a1
   12c18:	008bcbb3          	xor	s7,s7,s0
   12c1c:	00164633          	xor	a2,a2,ra
   12c20:	00dd1c93          	slli	s9,s10,0xd
   12c24:	01395713          	srli	a4,s2,0x13
   12c28:	00ececb3          	or	s9,s9,a4
   12c2c:	00d91c13          	slli	s8,s2,0xd
   12c30:	013d5713          	srli	a4,s10,0x13
   12c34:	00ec6c33          	or	s8,s8,a4
   12c38:	015fcfb3          	xor	t6,t6,s5
   12c3c:	01384833          	xor	a6,a6,s3
   12c40:	01fcccb3          	xor	s9,s9,t6
   12c44:	010c4c33          	xor	s8,s8,a6
   12c48:	004d1713          	slli	a4,s10,0x4
   12c4c:	01c95593          	srli	a1,s2,0x1c
   12c50:	8f4d                	or	a4,a4,a1
   12c52:	0912                	slli	s2,s2,0x4
   12c54:	01cd5d13          	srli	s10,s10,0x1c
   12c58:	01a96933          	or	s2,s2,s10
   12c5c:	00ecccb3          	xor	s9,s9,a4
   12c60:	012c4c33          	xor	s8,s8,s2
   12c64:	0156c6b3          	xor	a3,a3,s5
   12c68:	0137c7b3          	xor	a5,a5,s3
   12c6c:	0076c6b3          	xor	a3,a3,t2
   12c70:	0057c9b3          	xor	s3,a5,t0
   12c74:	0a5bc793          	xori	a5,s7,165
   12c78:	fff44513          	not	a0,s0
   12c7c:	fff0c593          	not	a1,ra
   12c80:	8d7d                	and	a0,a0,a5
   12c82:	8df1                	and	a1,a1,a2
   12c84:	01954533          	xor	a0,a0,s9
   12c88:	0185c5b3          	xor	a1,a1,s8
   12c8c:	fff3cf93          	not	t6,t2
   12c90:	fff2c813          	not	a6,t0
   12c94:	00dfffb3          	and	t6,t6,a3
   12c98:	01387833          	and	a6,a6,s3
   12c9c:	00ffcfb3          	xor	t6,t6,a5
   12ca0:	00c84833          	xor	a6,a6,a2
   12ca4:	fffcc713          	not	a4,s9
   12ca8:	fffc4793          	not	a5,s8
   12cac:	8f61                	and	a4,a4,s0
   12cae:	0017f7b3          	and	a5,a5,ra
   12cb2:	8f35                	xor	a4,a4,a3
   12cb4:	0137c7b3          	xor	a5,a5,s3
   12cb8:	f5abca93          	xori	s5,s7,-166
   12cbc:	fff64613          	not	a2,a2
   12cc0:	007afab3          	and	s5,s5,t2
   12cc4:	00567633          	and	a2,a2,t0
   12cc8:	008acab3          	xor	s5,s5,s0
   12ccc:	00164633          	xor	a2,a2,ra
   12cd0:	00aacab3          	xor	s5,s5,a0
   12cd4:	8e2d                	xor	a2,a2,a1
   12cd6:	00e54933          	xor	s2,a0,a4
   12cda:	00f5cbb3          	xor	s7,a1,a5
   12cde:	fff6c093          	not	ra,a3
   12ce2:	fff9c693          	not	a3,s3
   12ce6:	0190f9b3          	and	s3,ra,s9
   12cea:	0186f6b3          	and	a3,a3,s8
   12cee:	0079c9b3          	xor	s3,s3,t2
   12cf2:	0056c6b3          	xor	a3,a3,t0
   12cf6:	01f9c9b3          	xor	s3,s3,t6
   12cfa:	0106c6b3          	xor	a3,a3,a6
   12cfe:	ffffcf93          	not	t6,t6
   12d02:	fff84813          	not	a6,a6
   12d06:	01dad093          	srli	ra,s5,0x1d
   12d0a:	00361293          	slli	t0,a2,0x3
   12d0e:	0050e0b3          	or	ra,ra,t0
   12d12:	01d65413          	srli	s0,a2,0x1d
   12d16:	003a9293          	slli	t0,s5,0x3
   12d1a:	00546433          	or	s0,s0,t0
   12d1e:	007ad293          	srli	t0,s5,0x7
   12d22:	01961393          	slli	t2,a2,0x19
   12d26:	0072e2b3          	or	t0,t0,t2
   12d2a:	00765393          	srli	t2,a2,0x7
   12d2e:	019a9c13          	slli	s8,s5,0x19
   12d32:	0183e3b3          	or	t2,t2,s8
   12d36:	00744433          	xor	s0,s0,t2
   12d3a:	0050c0b3          	xor	ra,ra,t0
   12d3e:	01544433          	xor	s0,s0,s5
   12d42:	00c0c0b3          	xor	ra,ra,a2
   12d46:	01669393          	slli	t2,a3,0x16
   12d4a:	00a9d613          	srli	a2,s3,0xa
   12d4e:	00c3e3b3          	or	t2,t2,a2
   12d52:	01699293          	slli	t0,s3,0x16
   12d56:	00a6d613          	srli	a2,a3,0xa
   12d5a:	00c2e2b3          	or	t0,t0,a2
   12d5e:	00f69a93          	slli	s5,a3,0xf
   12d62:	0119d613          	srli	a2,s3,0x11
   12d66:	00caeab3          	or	s5,s5,a2
   12d6a:	00f99613          	slli	a2,s3,0xf
   12d6e:	0116dc13          	srli	s8,a3,0x11
   12d72:	01866633          	or	a2,a2,s8
   12d76:	0153c3b3          	xor	t2,t2,s5
   12d7a:	00c2c2b3          	xor	t0,t0,a2
   12d7e:	0133c3b3          	xor	t2,t2,s3
   12d82:	00d2c2b3          	xor	t0,t0,a3
   12d86:	01979a93          	slli	s5,a5,0x19
   12d8a:	00775693          	srli	a3,a4,0x7
   12d8e:	00daeab3          	or	s5,s5,a3
   12d92:	01971993          	slli	s3,a4,0x19
   12d96:	0077d693          	srli	a3,a5,0x7
   12d9a:	00d9e9b3          	or	s3,s3,a3
   12d9e:	00975613          	srli	a2,a4,0x9
   12da2:	01779693          	slli	a3,a5,0x17
   12da6:	8e55                	or	a2,a2,a3
   12da8:	0097d693          	srli	a3,a5,0x9
   12dac:	01771c13          	slli	s8,a4,0x17
   12db0:	0186e6b3          	or	a3,a3,s8
   12db4:	00dacab3          	xor	s5,s5,a3
   12db8:	00c9c9b3          	xor	s3,s3,a2
   12dbc:	01f81c93          	slli	s9,a6,0x1f
   12dc0:	001fd693          	srli	a3,t6,0x1
   12dc4:	00dcecb3          	or	s9,s9,a3
   12dc8:	01ff9693          	slli	a3,t6,0x1f
   12dcc:	00185613          	srli	a2,a6,0x1
   12dd0:	8ed1                	or	a3,a3,a2
   12dd2:	01a81613          	slli	a2,a6,0x1a
   12dd6:	006fdc13          	srli	s8,t6,0x6
   12dda:	01866633          	or	a2,a2,s8
   12dde:	01af9c13          	slli	s8,t6,0x1a
   12de2:	00685d13          	srli	s10,a6,0x6
   12de6:	01ac6c33          	or	s8,s8,s10
   12dea:	00ccc633          	xor	a2,s9,a2
   12dee:	0186c6b3          	xor	a3,a3,s8
   12df2:	01f64633          	xor	a2,a2,t6
   12df6:	0106c6b3          	xor	a3,a3,a6
   12dfa:	8e21                	xor	a2,a2,s0
   12dfc:	0016c6b3          	xor	a3,a3,ra
   12e00:	01554cb3          	xor	s9,a0,s5
   12e04:	0135cc33          	xor	s8,a1,s3
   12e08:	00db9593          	slli	a1,s7,0xd
   12e0c:	01395513          	srli	a0,s2,0x13
   12e10:	8dc9                	or	a1,a1,a0
   12e12:	00d91813          	slli	a6,s2,0xd
   12e16:	013bd513          	srli	a0,s7,0x13
   12e1a:	00a86833          	or	a6,a6,a0
   12e1e:	00bcccb3          	xor	s9,s9,a1
   12e22:	010c4c33          	xor	s8,s8,a6
   12e26:	004b9593          	slli	a1,s7,0x4
   12e2a:	01c95513          	srli	a0,s2,0x1c
   12e2e:	8dc9                	or	a1,a1,a0
   12e30:	0912                	slli	s2,s2,0x4
   12e32:	01cbdb93          	srli	s7,s7,0x1c
   12e36:	01796933          	or	s2,s2,s7
   12e3a:	00bcccb3          	xor	s9,s9,a1
   12e3e:	012c4c33          	xor	s8,s8,s2
   12e42:	01574733          	xor	a4,a4,s5
   12e46:	0137c7b3          	xor	a5,a5,s3
   12e4a:	00774ab3          	xor	s5,a4,t2
   12e4e:	0057c9b3          	xor	s3,a5,t0
   12e52:	09664793          	xori	a5,a2,150
   12e56:	fff44513          	not	a0,s0
   12e5a:	fff0c593          	not	a1,ra
   12e5e:	8d7d                	and	a0,a0,a5
   12e60:	8df5                	and	a1,a1,a3
   12e62:	01954533          	xor	a0,a0,s9
   12e66:	0185c5b3          	xor	a1,a1,s8
   12e6a:	fff3cf93          	not	t6,t2
   12e6e:	fff2c813          	not	a6,t0
   12e72:	015fffb3          	and	t6,t6,s5
   12e76:	01387833          	and	a6,a6,s3
   12e7a:	00ffcfb3          	xor	t6,t6,a5
   12e7e:	00d84833          	xor	a6,a6,a3
   12e82:	fffcc713          	not	a4,s9
   12e86:	fffc4793          	not	a5,s8
   12e8a:	8f61                	and	a4,a4,s0
   12e8c:	0017f7b3          	and	a5,a5,ra
   12e90:	01574733          	xor	a4,a4,s5
   12e94:	0137c7b3          	xor	a5,a5,s3
   12e98:	f6964613          	xori	a2,a2,-151
   12e9c:	fff6c693          	not	a3,a3
   12ea0:	00767633          	and	a2,a2,t2
   12ea4:	0056f6b3          	and	a3,a3,t0
   12ea8:	8e21                	xor	a2,a2,s0
   12eaa:	0016c6b3          	xor	a3,a3,ra
   12eae:	8e29                	xor	a2,a2,a0
   12eb0:	8ead                	xor	a3,a3,a1
   12eb2:	00e54933          	xor	s2,a0,a4
   12eb6:	00f5cbb3          	xor	s7,a1,a5
   12eba:	fffaca93          	not	s5,s5
   12ebe:	fff9c993          	not	s3,s3
   12ec2:	019afab3          	and	s5,s5,s9
   12ec6:	0189f9b3          	and	s3,s3,s8
   12eca:	007acab3          	xor	s5,s5,t2
   12ece:	0059c9b3          	xor	s3,s3,t0
   12ed2:	01facab3          	xor	s5,s5,t6
   12ed6:	0109c9b3          	xor	s3,s3,a6
   12eda:	ffffcf93          	not	t6,t6
   12ede:	fff84813          	not	a6,a6
   12ee2:	01d65093          	srli	ra,a2,0x1d
   12ee6:	00369293          	slli	t0,a3,0x3
   12eea:	0050e0b3          	or	ra,ra,t0
   12eee:	01d6d413          	srli	s0,a3,0x1d
   12ef2:	00361293          	slli	t0,a2,0x3
   12ef6:	00546433          	or	s0,s0,t0
   12efa:	00765293          	srli	t0,a2,0x7
   12efe:	01969393          	slli	t2,a3,0x19
   12f02:	0072e2b3          	or	t0,t0,t2
   12f06:	0076d393          	srli	t2,a3,0x7
   12f0a:	01961c13          	slli	s8,a2,0x19
   12f0e:	0183e3b3          	or	t2,t2,s8
   12f12:	00744433          	xor	s0,s0,t2
   12f16:	0050c0b3          	xor	ra,ra,t0
   12f1a:	8c31                	xor	s0,s0,a2
   12f1c:	00d0c0b3          	xor	ra,ra,a3
   12f20:	01699393          	slli	t2,s3,0x16
   12f24:	00aad693          	srli	a3,s5,0xa
   12f28:	00d3e3b3          	or	t2,t2,a3
   12f2c:	016a9293          	slli	t0,s5,0x16
   12f30:	00a9d693          	srli	a3,s3,0xa
   12f34:	00d2e2b3          	or	t0,t0,a3
   12f38:	00f99613          	slli	a2,s3,0xf
   12f3c:	011ad693          	srli	a3,s5,0x11
   12f40:	8e55                	or	a2,a2,a3
   12f42:	00fa9693          	slli	a3,s5,0xf
   12f46:	0119dc13          	srli	s8,s3,0x11
   12f4a:	0186e6b3          	or	a3,a3,s8
   12f4e:	00c3c3b3          	xor	t2,t2,a2
   12f52:	00d2c2b3          	xor	t0,t0,a3
   12f56:	0153c3b3          	xor	t2,t2,s5
   12f5a:	0132c2b3          	xor	t0,t0,s3
   12f5e:	01979a93          	slli	s5,a5,0x19
   12f62:	00775693          	srli	a3,a4,0x7
   12f66:	00daeab3          	or	s5,s5,a3
   12f6a:	01971993          	slli	s3,a4,0x19
   12f6e:	0077d693          	srli	a3,a5,0x7
   12f72:	00d9e9b3          	or	s3,s3,a3
   12f76:	00975613          	srli	a2,a4,0x9
   12f7a:	01779693          	slli	a3,a5,0x17
   12f7e:	8e55                	or	a2,a2,a3
   12f80:	0097d693          	srli	a3,a5,0x9
   12f84:	01771c13          	slli	s8,a4,0x17
   12f88:	0186e6b3          	or	a3,a3,s8
   12f8c:	00dacab3          	xor	s5,s5,a3
   12f90:	00c9c9b3          	xor	s3,s3,a2
   12f94:	01f81c93          	slli	s9,a6,0x1f
   12f98:	001fd693          	srli	a3,t6,0x1
   12f9c:	00dcecb3          	or	s9,s9,a3
   12fa0:	01ff9693          	slli	a3,t6,0x1f
   12fa4:	00185613          	srli	a2,a6,0x1
   12fa8:	8ed1                	or	a3,a3,a2
   12faa:	01a81613          	slli	a2,a6,0x1a
   12fae:	006fdc13          	srli	s8,t6,0x6
   12fb2:	01866633          	or	a2,a2,s8
   12fb6:	01af9c13          	slli	s8,t6,0x1a
   12fba:	00685d13          	srli	s10,a6,0x6
   12fbe:	01ac6c33          	or	s8,s8,s10
   12fc2:	00ccc633          	xor	a2,s9,a2
   12fc6:	0186c6b3          	xor	a3,a3,s8
   12fca:	01f64633          	xor	a2,a2,t6
   12fce:	0106c6b3          	xor	a3,a3,a6
   12fd2:	8e21                	xor	a2,a2,s0
   12fd4:	0016c6b3          	xor	a3,a3,ra
   12fd8:	01554cb3          	xor	s9,a0,s5
   12fdc:	0135cc33          	xor	s8,a1,s3
   12fe0:	00db9593          	slli	a1,s7,0xd
   12fe4:	01395513          	srli	a0,s2,0x13
   12fe8:	8dc9                	or	a1,a1,a0
   12fea:	00d91813          	slli	a6,s2,0xd
   12fee:	013bd513          	srli	a0,s7,0x13
   12ff2:	00a86833          	or	a6,a6,a0
   12ff6:	00bcccb3          	xor	s9,s9,a1
   12ffa:	010c4c33          	xor	s8,s8,a6
   12ffe:	004b9593          	slli	a1,s7,0x4
   13002:	01c95513          	srli	a0,s2,0x1c
   13006:	8dc9                	or	a1,a1,a0
   13008:	0912                	slli	s2,s2,0x4
   1300a:	01cbdb93          	srli	s7,s7,0x1c
   1300e:	01796933          	or	s2,s2,s7
   13012:	00bcccb3          	xor	s9,s9,a1
   13016:	012c4c33          	xor	s8,s8,s2
   1301a:	01574733          	xor	a4,a4,s5
   1301e:	0137c7b3          	xor	a5,a5,s3
   13022:	00774ab3          	xor	s5,a4,t2
   13026:	0057c9b3          	xor	s3,a5,t0
   1302a:	08764793          	xori	a5,a2,135
   1302e:	fff44513          	not	a0,s0
   13032:	fff0c593          	not	a1,ra
   13036:	8d7d                	and	a0,a0,a5
   13038:	8df5                	and	a1,a1,a3
   1303a:	01954533          	xor	a0,a0,s9
   1303e:	0185c5b3          	xor	a1,a1,s8
   13042:	fff3cf93          	not	t6,t2
   13046:	fff2c813          	not	a6,t0
   1304a:	015fffb3          	and	t6,t6,s5
   1304e:	01387833          	and	a6,a6,s3
   13052:	00ffcfb3          	xor	t6,t6,a5
   13056:	00d84833          	xor	a6,a6,a3
   1305a:	fffcc713          	not	a4,s9
   1305e:	fffc4793          	not	a5,s8
   13062:	8f61                	and	a4,a4,s0
   13064:	0017f7b3          	and	a5,a5,ra
   13068:	01574733          	xor	a4,a4,s5
   1306c:	0137c7b3          	xor	a5,a5,s3
   13070:	f7864613          	xori	a2,a2,-136
   13074:	fff6c693          	not	a3,a3
   13078:	00767633          	and	a2,a2,t2
   1307c:	0056f6b3          	and	a3,a3,t0
   13080:	8e21                	xor	a2,a2,s0
   13082:	0016c6b3          	xor	a3,a3,ra
   13086:	8e29                	xor	a2,a2,a0
   13088:	8ead                	xor	a3,a3,a1
   1308a:	00e54933          	xor	s2,a0,a4
   1308e:	00f5cbb3          	xor	s7,a1,a5
   13092:	fffaca93          	not	s5,s5
   13096:	fff9c993          	not	s3,s3
   1309a:	019afab3          	and	s5,s5,s9
   1309e:	0189f9b3          	and	s3,s3,s8
   130a2:	007acab3          	xor	s5,s5,t2
   130a6:	0059c9b3          	xor	s3,s3,t0
   130aa:	01facab3          	xor	s5,s5,t6
   130ae:	0109c9b3          	xor	s3,s3,a6
   130b2:	ffffcf93          	not	t6,t6
   130b6:	fff84813          	not	a6,a6
   130ba:	01d65093          	srli	ra,a2,0x1d
   130be:	00369293          	slli	t0,a3,0x3
   130c2:	0050e0b3          	or	ra,ra,t0
   130c6:	01d6d413          	srli	s0,a3,0x1d
   130ca:	00361293          	slli	t0,a2,0x3
   130ce:	00546433          	or	s0,s0,t0
   130d2:	00765293          	srli	t0,a2,0x7
   130d6:	01969393          	slli	t2,a3,0x19
   130da:	0072e2b3          	or	t0,t0,t2
   130de:	0076d393          	srli	t2,a3,0x7
   130e2:	01961c13          	slli	s8,a2,0x19
   130e6:	0183e3b3          	or	t2,t2,s8
   130ea:	00744433          	xor	s0,s0,t2
   130ee:	0050c0b3          	xor	ra,ra,t0
   130f2:	8c31                	xor	s0,s0,a2
   130f4:	00d0c0b3          	xor	ra,ra,a3
   130f8:	01699393          	slli	t2,s3,0x16
   130fc:	00aad693          	srli	a3,s5,0xa
   13100:	00d3e3b3          	or	t2,t2,a3
   13104:	016a9293          	slli	t0,s5,0x16
   13108:	00a9d693          	srli	a3,s3,0xa
   1310c:	00d2e2b3          	or	t0,t0,a3
   13110:	00f99613          	slli	a2,s3,0xf
   13114:	011ad693          	srli	a3,s5,0x11
   13118:	8e55                	or	a2,a2,a3
   1311a:	00fa9693          	slli	a3,s5,0xf
   1311e:	0119dc13          	srli	s8,s3,0x11
   13122:	0186e6b3          	or	a3,a3,s8
   13126:	00c3c3b3          	xor	t2,t2,a2
   1312a:	00d2c2b3          	xor	t0,t0,a3
   1312e:	0153c3b3          	xor	t2,t2,s5
   13132:	0132c2b3          	xor	t0,t0,s3
   13136:	01979a93          	slli	s5,a5,0x19
   1313a:	00775693          	srli	a3,a4,0x7
   1313e:	00daeab3          	or	s5,s5,a3
   13142:	01971993          	slli	s3,a4,0x19
   13146:	0077d693          	srli	a3,a5,0x7
   1314a:	00d9e9b3          	or	s3,s3,a3
   1314e:	00975613          	srli	a2,a4,0x9
   13152:	01779693          	slli	a3,a5,0x17
   13156:	8e55                	or	a2,a2,a3
   13158:	0097d693          	srli	a3,a5,0x9
   1315c:	01771c13          	slli	s8,a4,0x17
   13160:	0186e6b3          	or	a3,a3,s8
   13164:	00dacab3          	xor	s5,s5,a3
   13168:	00c9c9b3          	xor	s3,s3,a2
   1316c:	01f81c93          	slli	s9,a6,0x1f
   13170:	001fd693          	srli	a3,t6,0x1
   13174:	00dcecb3          	or	s9,s9,a3
   13178:	01ff9693          	slli	a3,t6,0x1f
   1317c:	00185613          	srli	a2,a6,0x1
   13180:	8ed1                	or	a3,a3,a2
   13182:	01a81613          	slli	a2,a6,0x1a
   13186:	006fdc13          	srli	s8,t6,0x6
   1318a:	01866633          	or	a2,a2,s8
   1318e:	01af9c13          	slli	s8,t6,0x1a
   13192:	00685d13          	srli	s10,a6,0x6
   13196:	01ac6c33          	or	s8,s8,s10
   1319a:	00ccc633          	xor	a2,s9,a2
   1319e:	0186c6b3          	xor	a3,a3,s8
   131a2:	01f64633          	xor	a2,a2,t6
   131a6:	0106c6b3          	xor	a3,a3,a6
   131aa:	8e21                	xor	a2,a2,s0
   131ac:	0016c6b3          	xor	a3,a3,ra
   131b0:	01554cb3          	xor	s9,a0,s5
   131b4:	0135cc33          	xor	s8,a1,s3
   131b8:	00db9593          	slli	a1,s7,0xd
   131bc:	01395513          	srli	a0,s2,0x13
   131c0:	8dc9                	or	a1,a1,a0
   131c2:	00d91813          	slli	a6,s2,0xd
   131c6:	013bd513          	srli	a0,s7,0x13
   131ca:	00a86833          	or	a6,a6,a0
   131ce:	00bcccb3          	xor	s9,s9,a1
   131d2:	010c4c33          	xor	s8,s8,a6
   131d6:	004b9593          	slli	a1,s7,0x4
   131da:	01c95513          	srli	a0,s2,0x1c
   131de:	8dc9                	or	a1,a1,a0
   131e0:	0912                	slli	s2,s2,0x4
   131e2:	01cbdb93          	srli	s7,s7,0x1c
   131e6:	01796933          	or	s2,s2,s7
   131ea:	00bcccb3          	xor	s9,s9,a1
   131ee:	012c4c33          	xor	s8,s8,s2
   131f2:	01574733          	xor	a4,a4,s5
   131f6:	0137c7b3          	xor	a5,a5,s3
   131fa:	00774ab3          	xor	s5,a4,t2
   131fe:	0057c9b3          	xor	s3,a5,t0
   13202:	07864793          	xori	a5,a2,120
   13206:	fff44513          	not	a0,s0
   1320a:	fff0c593          	not	a1,ra
   1320e:	8d7d                	and	a0,a0,a5
   13210:	8df5                	and	a1,a1,a3
   13212:	01954533          	xor	a0,a0,s9
   13216:	0185c5b3          	xor	a1,a1,s8
   1321a:	fff3cf93          	not	t6,t2
   1321e:	fff2c813          	not	a6,t0
   13222:	015fffb3          	and	t6,t6,s5
   13226:	01387833          	and	a6,a6,s3
   1322a:	00ffcfb3          	xor	t6,t6,a5
   1322e:	00d84833          	xor	a6,a6,a3
   13232:	fffcc713          	not	a4,s9
   13236:	fffc4793          	not	a5,s8
   1323a:	8f61                	and	a4,a4,s0
   1323c:	0017f7b3          	and	a5,a5,ra
   13240:	01574733          	xor	a4,a4,s5
   13244:	0137c7b3          	xor	a5,a5,s3
   13248:	f8764613          	xori	a2,a2,-121
   1324c:	fff6c693          	not	a3,a3
   13250:	00767633          	and	a2,a2,t2
   13254:	0056f6b3          	and	a3,a3,t0
   13258:	8e21                	xor	a2,a2,s0
   1325a:	0016c6b3          	xor	a3,a3,ra
   1325e:	8e29                	xor	a2,a2,a0
   13260:	8ead                	xor	a3,a3,a1
   13262:	00e54933          	xor	s2,a0,a4
   13266:	00f5cbb3          	xor	s7,a1,a5
   1326a:	fffaca93          	not	s5,s5
   1326e:	fff9c993          	not	s3,s3
   13272:	019afab3          	and	s5,s5,s9
   13276:	0189f9b3          	and	s3,s3,s8
   1327a:	007acab3          	xor	s5,s5,t2
   1327e:	0059c9b3          	xor	s3,s3,t0
   13282:	01facab3          	xor	s5,s5,t6
   13286:	0109c9b3          	xor	s3,s3,a6
   1328a:	ffffcf93          	not	t6,t6
   1328e:	fff84813          	not	a6,a6
   13292:	01d65093          	srli	ra,a2,0x1d
   13296:	00369293          	slli	t0,a3,0x3
   1329a:	0050e0b3          	or	ra,ra,t0
   1329e:	01d6d413          	srli	s0,a3,0x1d
   132a2:	00361293          	slli	t0,a2,0x3
   132a6:	00546433          	or	s0,s0,t0
   132aa:	00765293          	srli	t0,a2,0x7
   132ae:	01969393          	slli	t2,a3,0x19
   132b2:	0072e2b3          	or	t0,t0,t2
   132b6:	0076d393          	srli	t2,a3,0x7
   132ba:	01961c13          	slli	s8,a2,0x19
   132be:	0183e3b3          	or	t2,t2,s8
   132c2:	00744433          	xor	s0,s0,t2
   132c6:	0050c0b3          	xor	ra,ra,t0
   132ca:	8c31                	xor	s0,s0,a2
   132cc:	00d0c0b3          	xor	ra,ra,a3
   132d0:	01699393          	slli	t2,s3,0x16
   132d4:	00aad693          	srli	a3,s5,0xa
   132d8:	00d3e3b3          	or	t2,t2,a3
   132dc:	016a9293          	slli	t0,s5,0x16
   132e0:	00a9d693          	srli	a3,s3,0xa
   132e4:	00d2e2b3          	or	t0,t0,a3
   132e8:	00f99613          	slli	a2,s3,0xf
   132ec:	011ad693          	srli	a3,s5,0x11
   132f0:	8e55                	or	a2,a2,a3
   132f2:	00fa9693          	slli	a3,s5,0xf
   132f6:	0119dc13          	srli	s8,s3,0x11
   132fa:	0186e6b3          	or	a3,a3,s8
   132fe:	00c3c3b3          	xor	t2,t2,a2
   13302:	00d2c2b3          	xor	t0,t0,a3
   13306:	0153c3b3          	xor	t2,t2,s5
   1330a:	0132c2b3          	xor	t0,t0,s3
   1330e:	01979a93          	slli	s5,a5,0x19
   13312:	00775693          	srli	a3,a4,0x7
   13316:	00daeab3          	or	s5,s5,a3
   1331a:	01971993          	slli	s3,a4,0x19
   1331e:	0077d693          	srli	a3,a5,0x7
   13322:	00d9e9b3          	or	s3,s3,a3
   13326:	00975613          	srli	a2,a4,0x9
   1332a:	01779693          	slli	a3,a5,0x17
   1332e:	8e55                	or	a2,a2,a3
   13330:	0097d693          	srli	a3,a5,0x9
   13334:	01771c13          	slli	s8,a4,0x17
   13338:	0186e6b3          	or	a3,a3,s8
   1333c:	00dacab3          	xor	s5,s5,a3
   13340:	00c9c9b3          	xor	s3,s3,a2
   13344:	01f81c93          	slli	s9,a6,0x1f
   13348:	001fd693          	srli	a3,t6,0x1
   1334c:	00dcecb3          	or	s9,s9,a3
   13350:	01ff9693          	slli	a3,t6,0x1f
   13354:	00185613          	srli	a2,a6,0x1
   13358:	8ed1                	or	a3,a3,a2
   1335a:	01a81613          	slli	a2,a6,0x1a
   1335e:	006fdc13          	srli	s8,t6,0x6
   13362:	01866633          	or	a2,a2,s8
   13366:	01af9c13          	slli	s8,t6,0x1a
   1336a:	00685d13          	srli	s10,a6,0x6
   1336e:	01ac6c33          	or	s8,s8,s10
   13372:	00ccc633          	xor	a2,s9,a2
   13376:	0186c6b3          	xor	a3,a3,s8
   1337a:	01f64633          	xor	a2,a2,t6
   1337e:	0106c6b3          	xor	a3,a3,a6
   13382:	8e21                	xor	a2,a2,s0
   13384:	0016c6b3          	xor	a3,a3,ra
   13388:	01554fb3          	xor	t6,a0,s5
   1338c:	0135c833          	xor	a6,a1,s3
   13390:	00db9593          	slli	a1,s7,0xd
   13394:	01395513          	srli	a0,s2,0x13
   13398:	8dc9                	or	a1,a1,a0
   1339a:	00d91c13          	slli	s8,s2,0xd
   1339e:	013bd513          	srli	a0,s7,0x13
   133a2:	00ac6c33          	or	s8,s8,a0
   133a6:	00bfcfb3          	xor	t6,t6,a1
   133aa:	01884833          	xor	a6,a6,s8
   133ae:	004b9593          	slli	a1,s7,0x4
   133b2:	01c95513          	srli	a0,s2,0x1c
   133b6:	8dc9                	or	a1,a1,a0
   133b8:	0912                	slli	s2,s2,0x4
   133ba:	01cbdb93          	srli	s7,s7,0x1c
   133be:	01796933          	or	s2,s2,s7
   133c2:	00bfcfb3          	xor	t6,t6,a1
   133c6:	01284833          	xor	a6,a6,s2
   133ca:	01574733          	xor	a4,a4,s5
   133ce:	0137c7b3          	xor	a5,a5,s3
   133d2:	00774c33          	xor	s8,a4,t2
   133d6:	0057cab3          	xor	s5,a5,t0
   133da:	06964793          	xori	a5,a2,105
   133de:	fff44993          	not	s3,s0
   133e2:	fff0c913          	not	s2,ra
   133e6:	00f9f9b3          	and	s3,s3,a5
   133ea:	00d97933          	and	s2,s2,a3
   133ee:	01f9c9b3          	xor	s3,s3,t6
   133f2:	01094933          	xor	s2,s2,a6
   133f6:	fff3c513          	not	a0,t2
   133fa:	fff2c593          	not	a1,t0
   133fe:	01857533          	and	a0,a0,s8
   13402:	0155f5b3          	and	a1,a1,s5
   13406:	8d3d                	xor	a0,a0,a5
   13408:	8db5                	xor	a1,a1,a3
   1340a:	ffffc713          	not	a4,t6
   1340e:	fff84793          	not	a5,a6
   13412:	8f61                	and	a4,a4,s0
   13414:	0017f7b3          	and	a5,a5,ra
   13418:	01874733          	xor	a4,a4,s8
   1341c:	0157c7b3          	xor	a5,a5,s5
   13420:	f9664613          	xori	a2,a2,-106
   13424:	fff6c693          	not	a3,a3
   13428:	00767633          	and	a2,a2,t2
   1342c:	0056f6b3          	and	a3,a3,t0
   13430:	8e21                	xor	a2,a2,s0
   13432:	0016c6b3          	xor	a3,a3,ra
   13436:	01364633          	xor	a2,a2,s3
   1343a:	0126c6b3          	xor	a3,a3,s2
   1343e:	00e9c0b3          	xor	ra,s3,a4
   13442:	00f94bb3          	xor	s7,s2,a5
   13446:	fffc4c13          	not	s8,s8
   1344a:	fffac413          	not	s0,s5
   1344e:	01fc7ab3          	and	s5,s8,t6
   13452:	01047433          	and	s0,s0,a6
   13456:	007acab3          	xor	s5,s5,t2
   1345a:	00544433          	xor	s0,s0,t0
   1345e:	00aacab3          	xor	s5,s5,a0
   13462:	8c2d                	xor	s0,s0,a1
   13464:	fff54513          	not	a0,a0
   13468:	fff5c593          	not	a1,a1
   1346c:	01d65293          	srli	t0,a2,0x1d
   13470:	00369813          	slli	a6,a3,0x3
   13474:	0102e2b3          	or	t0,t0,a6
   13478:	01d6d393          	srli	t2,a3,0x1d
   1347c:	00361813          	slli	a6,a2,0x3
   13480:	0103e3b3          	or	t2,t2,a6
   13484:	00765813          	srli	a6,a2,0x7
   13488:	01969f93          	slli	t6,a3,0x19
   1348c:	01f86833          	or	a6,a6,t6
   13490:	0076df93          	srli	t6,a3,0x7
   13494:	01961c13          	slli	s8,a2,0x19
   13498:	018fefb3          	or	t6,t6,s8
   1349c:	01f3c3b3          	xor	t2,t2,t6
   134a0:	0102c2b3          	xor	t0,t0,a6
   134a4:	00c3c3b3          	xor	t2,t2,a2
   134a8:	00d2c2b3          	xor	t0,t0,a3
   134ac:	01641f93          	slli	t6,s0,0x16
   134b0:	00aad693          	srli	a3,s5,0xa
   134b4:	00dfefb3          	or	t6,t6,a3
   134b8:	016a9813          	slli	a6,s5,0x16
   134bc:	00a45693          	srli	a3,s0,0xa
   134c0:	00d86833          	or	a6,a6,a3
   134c4:	00f41613          	slli	a2,s0,0xf
   134c8:	011ad693          	srli	a3,s5,0x11
   134cc:	8e55                	or	a2,a2,a3
   134ce:	00fa9693          	slli	a3,s5,0xf
   134d2:	01145c13          	srli	s8,s0,0x11
   134d6:	0186e6b3          	or	a3,a3,s8
   134da:	00cfcfb3          	xor	t6,t6,a2
   134de:	00d84833          	xor	a6,a6,a3
   134e2:	015fcfb3          	xor	t6,t6,s5
   134e6:	00884833          	xor	a6,a6,s0
   134ea:	01979a93          	slli	s5,a5,0x19
   134ee:	00775693          	srli	a3,a4,0x7
   134f2:	00daeab3          	or	s5,s5,a3
   134f6:	01971413          	slli	s0,a4,0x19
   134fa:	0077d693          	srli	a3,a5,0x7
   134fe:	8c55                	or	s0,s0,a3
   13500:	00975613          	srli	a2,a4,0x9
   13504:	01779693          	slli	a3,a5,0x17
   13508:	8e55                	or	a2,a2,a3
   1350a:	0097d693          	srli	a3,a5,0x9
   1350e:	01771c13          	slli	s8,a4,0x17
   13512:	0186e6b3          	or	a3,a3,s8
   13516:	00dacab3          	xor	s5,s5,a3
   1351a:	8c31                	xor	s0,s0,a2
   1351c:	01f59c93          	slli	s9,a1,0x1f
   13520:	00155693          	srli	a3,a0,0x1
   13524:	00dcecb3          	or	s9,s9,a3
   13528:	01f51693          	slli	a3,a0,0x1f
   1352c:	0015d613          	srli	a2,a1,0x1
   13530:	8ed1                	or	a3,a3,a2
   13532:	01a59613          	slli	a2,a1,0x1a
   13536:	00655c13          	srli	s8,a0,0x6
   1353a:	01866633          	or	a2,a2,s8
   1353e:	01a51c13          	slli	s8,a0,0x1a
   13542:	0065dd13          	srli	s10,a1,0x6
   13546:	01ac6c33          	or	s8,s8,s10
   1354a:	00ccc633          	xor	a2,s9,a2
   1354e:	0186c6b3          	xor	a3,a3,s8
   13552:	8e29                	xor	a2,a2,a0
   13554:	8ead                	xor	a3,a3,a1
   13556:	00764633          	xor	a2,a2,t2
   1355a:	0056c6b3          	xor	a3,a3,t0
   1355e:	00db9c13          	slli	s8,s7,0xd
   13562:	0130d593          	srli	a1,ra,0x13
   13566:	00bc6c33          	or	s8,s8,a1
   1356a:	00d09593          	slli	a1,ra,0xd
   1356e:	013bd513          	srli	a0,s7,0x13
   13572:	8dc9                	or	a1,a1,a0
   13574:	0159c9b3          	xor	s3,s3,s5
   13578:	00894933          	xor	s2,s2,s0
   1357c:	013c4c33          	xor	s8,s8,s3
   13580:	0125c9b3          	xor	s3,a1,s2
   13584:	004b9593          	slli	a1,s7,0x4
   13588:	01c0d513          	srli	a0,ra,0x1c
   1358c:	8dc9                	or	a1,a1,a0
   1358e:	0092                	slli	ra,ra,0x4
   13590:	01cbdb93          	srli	s7,s7,0x1c
   13594:	0170e0b3          	or	ra,ra,s7
   13598:	00bc4c33          	xor	s8,s8,a1
   1359c:	0019c9b3          	xor	s3,s3,ra
   135a0:	01574733          	xor	a4,a4,s5
   135a4:	8fa1                	xor	a5,a5,s0
   135a6:	01f74cb3          	xor	s9,a4,t6
   135aa:	0107cab3          	xor	s5,a5,a6
   135ae:	05a64793          	xori	a5,a2,90
   135b2:	fff3c413          	not	s0,t2
   135b6:	fff2c093          	not	ra,t0
   135ba:	8c7d                	and	s0,s0,a5
   135bc:	00d0f0b3          	and	ra,ra,a3
   135c0:	01844433          	xor	s0,s0,s8
   135c4:	0130c0b3          	xor	ra,ra,s3
   135c8:	ffffc513          	not	a0,t6
   135cc:	fff84593          	not	a1,a6
   135d0:	01957533          	and	a0,a0,s9
   135d4:	0155f5b3          	and	a1,a1,s5
   135d8:	8d3d                	xor	a0,a0,a5
   135da:	8db5                	xor	a1,a1,a3
   135dc:	fffc4713          	not	a4,s8
   135e0:	fff9c793          	not	a5,s3
   135e4:	00777733          	and	a4,a4,t2
   135e8:	0057f7b3          	and	a5,a5,t0
   135ec:	01974733          	xor	a4,a4,s9
   135f0:	0157c7b3          	xor	a5,a5,s5
   135f4:	fa564613          	xori	a2,a2,-91
   135f8:	fff6c693          	not	a3,a3
   135fc:	01f67633          	and	a2,a2,t6
   13600:	0106f6b3          	and	a3,a3,a6
   13604:	00764633          	xor	a2,a2,t2
   13608:	0056c6b3          	xor	a3,a3,t0
   1360c:	8e21                	xor	a2,a2,s0
   1360e:	0016c6b3          	xor	a3,a3,ra
   13612:	00e44933          	xor	s2,s0,a4
   13616:	00f0cbb3          	xor	s7,ra,a5
   1361a:	fffccc93          	not	s9,s9
   1361e:	fffaca93          	not	s5,s5
   13622:	018cfcb3          	and	s9,s9,s8
   13626:	013af9b3          	and	s3,s5,s3
   1362a:	01fccab3          	xor	s5,s9,t6
   1362e:	0109c9b3          	xor	s3,s3,a6
   13632:	00aacab3          	xor	s5,s5,a0
   13636:	00b9c9b3          	xor	s3,s3,a1
   1363a:	fff54513          	not	a0,a0
   1363e:	fff5c593          	not	a1,a1
   13642:	01d65293          	srli	t0,a2,0x1d
   13646:	00369813          	slli	a6,a3,0x3
   1364a:	0102e2b3          	or	t0,t0,a6
   1364e:	01d6d393          	srli	t2,a3,0x1d
   13652:	00361813          	slli	a6,a2,0x3
   13656:	0103e3b3          	or	t2,t2,a6
   1365a:	00765813          	srli	a6,a2,0x7
   1365e:	01969f93          	slli	t6,a3,0x19
   13662:	01f86833          	or	a6,a6,t6
   13666:	0076df93          	srli	t6,a3,0x7
   1366a:	01961c13          	slli	s8,a2,0x19
   1366e:	018fefb3          	or	t6,t6,s8
   13672:	01f3c3b3          	xor	t2,t2,t6
   13676:	0102c2b3          	xor	t0,t0,a6
   1367a:	00c3c3b3          	xor	t2,t2,a2
   1367e:	00d2c2b3          	xor	t0,t0,a3
   13682:	01699f93          	slli	t6,s3,0x16
   13686:	00aad693          	srli	a3,s5,0xa
   1368a:	00dfefb3          	or	t6,t6,a3
   1368e:	016a9813          	slli	a6,s5,0x16
   13692:	00a9d693          	srli	a3,s3,0xa
   13696:	00d86833          	or	a6,a6,a3
   1369a:	00f99613          	slli	a2,s3,0xf
   1369e:	011ad693          	srli	a3,s5,0x11
   136a2:	8e55                	or	a2,a2,a3
   136a4:	00fa9693          	slli	a3,s5,0xf
   136a8:	0119dc13          	srli	s8,s3,0x11
   136ac:	0186e6b3          	or	a3,a3,s8
   136b0:	00cfcfb3          	xor	t6,t6,a2
   136b4:	00d84833          	xor	a6,a6,a3
   136b8:	015fcfb3          	xor	t6,t6,s5
   136bc:	01384833          	xor	a6,a6,s3
   136c0:	01979a93          	slli	s5,a5,0x19
   136c4:	00775693          	srli	a3,a4,0x7
   136c8:	00daeab3          	or	s5,s5,a3
   136cc:	01971993          	slli	s3,a4,0x19
   136d0:	0077d693          	srli	a3,a5,0x7
   136d4:	00d9e9b3          	or	s3,s3,a3
   136d8:	00975613          	srli	a2,a4,0x9
   136dc:	01779693          	slli	a3,a5,0x17
   136e0:	8e55                	or	a2,a2,a3
   136e2:	0097d693          	srli	a3,a5,0x9
   136e6:	01771c13          	slli	s8,a4,0x17
   136ea:	0186e6b3          	or	a3,a3,s8
   136ee:	00dacab3          	xor	s5,s5,a3
   136f2:	00c9c9b3          	xor	s3,s3,a2
   136f6:	01f59c93          	slli	s9,a1,0x1f
   136fa:	00155693          	srli	a3,a0,0x1
   136fe:	00dcecb3          	or	s9,s9,a3
   13702:	01f51693          	slli	a3,a0,0x1f
   13706:	0015d613          	srli	a2,a1,0x1
   1370a:	8ed1                	or	a3,a3,a2
   1370c:	01a59613          	slli	a2,a1,0x1a
   13710:	00655c13          	srli	s8,a0,0x6
   13714:	01866633          	or	a2,a2,s8
   13718:	01a51c13          	slli	s8,a0,0x1a
   1371c:	0065dd13          	srli	s10,a1,0x6
   13720:	01ac6c33          	or	s8,s8,s10
   13724:	00ccc633          	xor	a2,s9,a2
   13728:	0186c6b3          	xor	a3,a3,s8
   1372c:	8e29                	xor	a2,a2,a0
   1372e:	8ead                	xor	a3,a3,a1
   13730:	007645b3          	xor	a1,a2,t2
   13734:	0056c6b3          	xor	a3,a3,t0
   13738:	00db9c13          	slli	s8,s7,0xd
   1373c:	01395613          	srli	a2,s2,0x13
   13740:	00cc6c33          	or	s8,s8,a2
   13744:	00d91513          	slli	a0,s2,0xd
   13748:	013bd613          	srli	a2,s7,0x13
   1374c:	8d51                	or	a0,a0,a2
   1374e:	01544433          	xor	s0,s0,s5
   13752:	0130c633          	xor	a2,ra,s3
   13756:	008c4433          	xor	s0,s8,s0
   1375a:	00c540b3          	xor	ra,a0,a2
   1375e:	004b9613          	slli	a2,s7,0x4
   13762:	01c95513          	srli	a0,s2,0x1c
   13766:	8e49                	or	a2,a2,a0
   13768:	0912                	slli	s2,s2,0x4
   1376a:	01cbdb93          	srli	s7,s7,0x1c
   1376e:	01796933          	or	s2,s2,s7
   13772:	8c31                	xor	s0,s0,a2
   13774:	0120c0b3          	xor	ra,ra,s2
   13778:	01574733          	xor	a4,a4,s5
   1377c:	0137c7b3          	xor	a5,a5,s3
   13780:	01f74733          	xor	a4,a4,t6
   13784:	0107c7b3          	xor	a5,a5,a6
   13788:	04b5c613          	xori	a2,a1,75
   1378c:	fff3cb93          	not	s7,t2
   13790:	fff2ca93          	not	s5,t0
   13794:	00cbfbb3          	and	s7,s7,a2
   13798:	00dafab3          	and	s5,s5,a3
   1379c:	008bcbb3          	xor	s7,s7,s0
   137a0:	001acab3          	xor	s5,s5,ra
   137a4:	ffffc993          	not	s3,t6
   137a8:	fff84913          	not	s2,a6
   137ac:	00e9f9b3          	and	s3,s3,a4
   137b0:	00f97933          	and	s2,s2,a5
   137b4:	00c9c9b3          	xor	s3,s3,a2
   137b8:	00d94933          	xor	s2,s2,a3
   137bc:	fff44513          	not	a0,s0
   137c0:	fff0c613          	not	a2,ra
   137c4:	00757533          	and	a0,a0,t2
   137c8:	00567633          	and	a2,a2,t0
   137cc:	8d39                	xor	a0,a0,a4
   137ce:	8e3d                	xor	a2,a2,a5
   137d0:	fb45c593          	xori	a1,a1,-76
   137d4:	fff6c693          	not	a3,a3
   137d8:	01f5f5b3          	and	a1,a1,t6
   137dc:	0106f6b3          	and	a3,a3,a6
   137e0:	0075c5b3          	xor	a1,a1,t2
   137e4:	0056c6b3          	xor	a3,a3,t0
   137e8:	0175c2b3          	xor	t0,a1,s7
   137ec:	0156c6b3          	xor	a3,a3,s5
   137f0:	00abcbb3          	xor	s7,s7,a0
   137f4:	00cacab3          	xor	s5,s5,a2
   137f8:	fff74713          	not	a4,a4
   137fc:	fff7c793          	not	a5,a5
   13800:	8f61                	and	a4,a4,s0
   13802:	0017f7b3          	and	a5,a5,ra
   13806:	01f74733          	xor	a4,a4,t6
   1380a:	0107c7b3          	xor	a5,a5,a6
   1380e:	01374833          	xor	a6,a4,s3
   13812:	0127c7b3          	xor	a5,a5,s2
   13816:	fff9c993          	not	s3,s3
   1381a:	fff94f93          	not	t6,s2
   1381e:	00da9c93          	slli	s9,s5,0xd
   13822:	013bd713          	srli	a4,s7,0x13
   13826:	00ececb3          	or	s9,s9,a4
   1382a:	00db9c13          	slli	s8,s7,0xd
   1382e:	013ad713          	srli	a4,s5,0x13
   13832:	00ec6c33          	or	s8,s8,a4
   13836:	004a9593          	slli	a1,s5,0x4
   1383a:	01cbd713          	srli	a4,s7,0x1c
   1383e:	8dd9                	or	a1,a1,a4
   13840:	004b9713          	slli	a4,s7,0x4
   13844:	01cad393          	srli	t2,s5,0x1c
   13848:	00776733          	or	a4,a4,t2
   1384c:	00bcccb3          	xor	s9,s9,a1
   13850:	00ec4c33          	xor	s8,s8,a4
   13854:	017cccb3          	xor	s9,s9,s7
   13858:	015c4c33          	xor	s8,s8,s5
   1385c:	01d2d713          	srli	a4,t0,0x1d
   13860:	00369593          	slli	a1,a3,0x3
   13864:	8f4d                	or	a4,a4,a1
   13866:	01d6d593          	srli	a1,a3,0x1d
   1386a:	00329393          	slli	t2,t0,0x3
   1386e:	0075e5b3          	or	a1,a1,t2
   13872:	0072d393          	srli	t2,t0,0x7
   13876:	01969093          	slli	ra,a3,0x19
   1387a:	0013e3b3          	or	t2,t2,ra
   1387e:	0076d093          	srli	ra,a3,0x7
   13882:	01929413          	slli	s0,t0,0x19
   13886:	0080e0b3          	or	ra,ra,s0
   1388a:	0015c5b3          	xor	a1,a1,ra
   1388e:	00774733          	xor	a4,a4,t2
   13892:	0055c5b3          	xor	a1,a1,t0
   13896:	8f35                	xor	a4,a4,a3
   13898:	01ff9913          	slli	s2,t6,0x1f
   1389c:	0019d693          	srli	a3,s3,0x1
   138a0:	00d96933          	or	s2,s2,a3
   138a4:	01f99093          	slli	ra,s3,0x1f
   138a8:	001fd693          	srli	a3,t6,0x1
   138ac:	00d0e0b3          	or	ra,ra,a3
   138b0:	01af9293          	slli	t0,t6,0x1a
   138b4:	0069d693          	srli	a3,s3,0x6
   138b8:	00d2e2b3          	or	t0,t0,a3
   138bc:	01a99693          	slli	a3,s3,0x1a
   138c0:	006fd393          	srli	t2,t6,0x6
   138c4:	0076e6b3          	or	a3,a3,t2
   138c8:	00594933          	xor	s2,s2,t0
   138cc:	00d0c0b3          	xor	ra,ra,a3
   138d0:	01394933          	xor	s2,s2,s3
   138d4:	01f0c0b3          	xor	ra,ra,t6
   138d8:	01679b93          	slli	s7,a5,0x16
   138dc:	00a85693          	srli	a3,a6,0xa
   138e0:	00dbebb3          	or	s7,s7,a3
   138e4:	01681a93          	slli	s5,a6,0x16
   138e8:	00a7d693          	srli	a3,a5,0xa
   138ec:	00daeab3          	or	s5,s5,a3
   138f0:	00f79f93          	slli	t6,a5,0xf
   138f4:	01185693          	srli	a3,a6,0x11
   138f8:	00dfefb3          	or	t6,t6,a3
   138fc:	00f81693          	slli	a3,a6,0xf
   13900:	0117d293          	srli	t0,a5,0x11
   13904:	0056e6b3          	or	a3,a3,t0
   13908:	01fbcbb3          	xor	s7,s7,t6
   1390c:	00dacab3          	xor	s5,s5,a3
   13910:	010bcbb3          	xor	s7,s7,a6
   13914:	00facab3          	xor	s5,s5,a5
   13918:	01961393          	slli	t2,a2,0x19
   1391c:	00755793          	srli	a5,a0,0x7
   13920:	00f3e3b3          	or	t2,t2,a5
   13924:	01951293          	slli	t0,a0,0x19
   13928:	00765793          	srli	a5,a2,0x7
   1392c:	00f2e2b3          	or	t0,t0,a5
   13930:	00955793          	srli	a5,a0,0x9
   13934:	01761693          	slli	a3,a2,0x17
   13938:	8fd5                	or	a5,a5,a3
   1393a:	00965693          	srli	a3,a2,0x9
   1393e:	01751813          	slli	a6,a0,0x17
   13942:	0106e6b3          	or	a3,a3,a6
   13946:	00d3c3b3          	xor	t2,t2,a3
   1394a:	00f2c2b3          	xor	t0,t0,a5
   1394e:	00a3c3b3          	xor	t2,t2,a0
   13952:	00c2c2b3          	xor	t0,t0,a2
   13956:	0f41                	addi	t5,t5,16
   13958:	ff0a0793          	addi	a5,s4,-16
   1395c:	0147b6b3          	sltu	a3,a5,s4
   13960:	18fd                	addi	a7,a7,-1
   13962:	8a3e                	mv	s4,a5
   13964:	98b6                	add	a7,a7,a3
   13966:	00088a63          	beqz	a7,1397a <crypto_aead_encrypt+0x117e>
   1396a:	8ffa                	mv	t6,t5
   1396c:	867a                	mv	a2,t5
   1396e:	03800793          	li	a5,56
   13972:	8472                	mv	s0,t3
   13974:	8872                	mv	a6,t3
   13976:	8a2ff06f          	j	12a18 <crypto_aead_encrypt+0x21c>
   1397a:	00089563          	bnez	a7,13984 <crypto_aead_encrypt+0x1188>
   1397e:	47bd                	li	a5,15
   13980:	ff47e5e3          	bltu	a5,s4,1396a <crypto_aead_encrypt+0x116e>
   13984:	4462                	lw	s0,24(sp)
   13986:	4d72                	lw	s10,28(sp)
   13988:	ff0d0793          	addi	a5,s10,-16
   1398c:	9bc1                	andi	a5,a5,-16
   1398e:	07c1                	addi	a5,a5,16
   13990:	943e                	add	s0,s0,a5
   13992:	00fd7693          	andi	a3,s10,15
   13996:	d466                	sw	s9,40(sp)
   13998:	d662                	sw	s8,44(sp)
   1399a:	d82e                	sw	a1,48(sp)
   1399c:	da3a                	sw	a4,52(sp)
   1399e:	dc4a                	sw	s2,56(sp)
   139a0:	de06                	sw	ra,60(sp)
   139a2:	c0de                	sw	s7,64(sp)
   139a4:	c2d6                	sw	s5,68(sp)
   139a6:	c49e                	sw	t2,72(sp)
   139a8:	c696                	sw	t0,76(sp)
   139aa:	008d7513          	andi	a0,s10,8
   139ae:	4801                	li	a6,0
   139b0:	12050563          	beqz	a0,13ada <crypto_aead_encrypt+0x12de>
   139b4:	88a2                	mv	a7,s0
   139b6:	85a2                	mv	a1,s0
   139b8:	03800613          	li	a2,56
   139bc:	4801                	li	a6,0
   139be:	4501                	li	a0,0
   139c0:	4f7d                	li	t5,31
   139c2:	4e81                	li	t4,0
   139c4:	5361                	li	t1,-8
   139c6:	a025                	j	139ee <crypto_aead_encrypt+0x11f2>
   139c8:	86ea                	mv	a3,s10
   139ca:	b7ed                	j	139b4 <crypto_aead_encrypt+0x11b8>
   139cc:	00175793          	srli	a5,a4,0x1
   139d0:	40cf0e33          	sub	t3,t5,a2
   139d4:	01c7d7b3          	srl	a5,a5,t3
   139d8:	00c71733          	sll	a4,a4,a2
   139dc:	00e86733          	or	a4,a6,a4
   139e0:	8fc9                	or	a5,a5,a0
   139e2:	883a                	mv	a6,a4
   139e4:	853e                	mv	a0,a5
   139e6:	0585                	addi	a1,a1,1
   139e8:	1661                	addi	a2,a2,-8
   139ea:	00660c63          	beq	a2,t1,13a02 <crypto_aead_encrypt+0x1206>
   139ee:	0005c703          	lbu	a4,0(a1)
   139f2:	fe060793          	addi	a5,a2,-32
   139f6:	fc07cbe3          	bltz	a5,139cc <crypto_aead_encrypt+0x11d0>
   139fa:	00f717b3          	sll	a5,a4,a5
   139fe:	8776                	mv	a4,t4
   13a00:	bff1                	j	139dc <crypto_aead_encrypt+0x11e0>
   13a02:	5622                	lw	a2,40(sp)
   13a04:	8e39                	xor	a2,a2,a4
   13a06:	5732                	lw	a4,44(sp)
   13a08:	8fb9                	xor	a5,a5,a4
   13a0a:	d432                	sw	a2,40(sp)
   13a0c:	d63e                	sw	a5,44(sp)
   13a0e:	ff868793          	addi	a5,a3,-8
   13a12:	04f05563          	blez	a5,13a5c <crypto_aead_encrypt+0x1260>
   13a16:	00840613          	addi	a2,s0,8
   13a1a:	98b6                	add	a7,a7,a3
   13a1c:	03800593          	li	a1,56
   13a20:	4801                	li	a6,0
   13a22:	4501                	li	a0,0
   13a24:	4efd                	li	t4,31
   13a26:	4e01                	li	t3,0
   13a28:	a005                	j	13a48 <crypto_aead_encrypt+0x124c>
   13a2a:	00175793          	srli	a5,a4,0x1
   13a2e:	40be8333          	sub	t1,t4,a1
   13a32:	0067d7b3          	srl	a5,a5,t1
   13a36:	00b71733          	sll	a4,a4,a1
   13a3a:	00e86833          	or	a6,a6,a4
   13a3e:	8d5d                	or	a0,a0,a5
   13a40:	0605                	addi	a2,a2,1
   13a42:	15e1                	addi	a1,a1,-8
   13a44:	01160e63          	beq	a2,a7,13a60 <crypto_aead_encrypt+0x1264>
   13a48:	00064703          	lbu	a4,0(a2)
   13a4c:	fe058793          	addi	a5,a1,-32
   13a50:	fc07cde3          	bltz	a5,13a2a <crypto_aead_encrypt+0x122e>
   13a54:	00f717b3          	sll	a5,a4,a5
   13a58:	8772                	mv	a4,t3
   13a5a:	b7c5                	j	13a3a <crypto_aead_encrypt+0x123e>
   13a5c:	4801                	li	a6,0
   13a5e:	4501                	li	a0,0
   13a60:	47bd                	li	a5,15
   13a62:	8f95                	sub	a5,a5,a3
   13a64:	078e                	slli	a5,a5,0x3
   13a66:	fe078713          	addi	a4,a5,-32
   13a6a:	04074d63          	bltz	a4,13ac4 <crypto_aead_encrypt+0x12c8>
   13a6e:	08000693          	li	a3,128
   13a72:	00e696b3          	sll	a3,a3,a4
   13a76:	4781                	li	a5,0
   13a78:	5742                	lw	a4,48(sp)
   13a7a:	8f3d                	xor	a4,a4,a5
   13a7c:	57d2                	lw	a5,52(sp)
   13a7e:	8fb5                	xor	a5,a5,a3
   13a80:	01074733          	xor	a4,a4,a6
   13a84:	d83a                	sw	a4,48(sp)
   13a86:	8fa9                	xor	a5,a5,a0
   13a88:	da3e                	sw	a5,52(sp)
   13a8a:	1028                	addi	a0,sp,40
   13a8c:	863fc0ef          	jal	102ee <P8>
   13a90:	4626                	lw	a2,72(sp)
   13a92:	00164c93          	xori	s9,a2,1
   13a96:	4c36                	lw	s8,76(sp)
   13a98:	c4e6                	sw	s9,72(sp)
   13a9a:	47c2                	lw	a5,16(sp)
   13a9c:	c7e9                	beqz	a5,13b66 <crypto_aead_encrypt+0x136a>
   13a9e:	5fa2                	lw	t6,40(sp)
   13aa0:	5632                	lw	a2,44(sp)
   13aa2:	5bc2                	lw	s7,48(sp)
   13aa4:	5752                	lw	a4,52(sp)
   13aa6:	50e2                	lw	ra,56(sp)
   13aa8:	5d72                	lw	s10,60(sp)
   13aaa:	4986                	lw	s3,64(sp)
   13aac:	4916                	lw	s2,68(sp)
   13aae:	4e12                	lw	t3,4(sp)
   13ab0:	4842                	lw	a6,16(sp)
   13ab2:	4332                	lw	t1,12(sp)
   13ab4:	48a2                	lw	a7,8(sp)
   13ab6:	4581                	li	a1,0
   13ab8:	457d                	li	a0,31
   13aba:	57e1                	li	a5,-8
   13abc:	8afe                	mv	s5,t6
   13abe:	c85a                	sw	s6,16(sp)
   13ac0:	1240106f          	j	14be4 <crypto_aead_encrypt+0x23e8>
   13ac4:	477d                	li	a4,31
   13ac6:	8f1d                	sub	a4,a4,a5
   13ac8:	04000693          	li	a3,64
   13acc:	00e6d6b3          	srl	a3,a3,a4
   13ad0:	08000713          	li	a4,128
   13ad4:	00f717b3          	sll	a5,a4,a5
   13ad8:	b745                	j	13a78 <crypto_aead_encrypt+0x127c>
   13ada:	04d05563          	blez	a3,13b24 <crypto_aead_encrypt+0x1328>
   13ade:	8622                	mv	a2,s0
   13ae0:	00d408b3          	add	a7,s0,a3
   13ae4:	03800593          	li	a1,56
   13ae8:	4501                	li	a0,0
   13aea:	4801                	li	a6,0
   13aec:	4efd                	li	t4,31
   13aee:	4e01                	li	t3,0
   13af0:	a005                	j	13b10 <crypto_aead_encrypt+0x1314>
   13af2:	00175793          	srli	a5,a4,0x1
   13af6:	40be8333          	sub	t1,t4,a1
   13afa:	0067d7b3          	srl	a5,a5,t1
   13afe:	00b71733          	sll	a4,a4,a1
   13b02:	8d59                	or	a0,a0,a4
   13b04:	00f86833          	or	a6,a6,a5
   13b08:	0605                	addi	a2,a2,1
   13b0a:	15e1                	addi	a1,a1,-8
   13b0c:	01160c63          	beq	a2,a7,13b24 <crypto_aead_encrypt+0x1328>
   13b10:	00064703          	lbu	a4,0(a2)
   13b14:	fe058793          	addi	a5,a1,-32
   13b18:	fc07cde3          	bltz	a5,13af2 <crypto_aead_encrypt+0x12f6>
   13b1c:	00f717b3          	sll	a5,a4,a5
   13b20:	8772                	mv	a4,t3
   13b22:	b7c5                	j	13b02 <crypto_aead_encrypt+0x1306>
   13b24:	479d                	li	a5,7
   13b26:	8f95                	sub	a5,a5,a3
   13b28:	078e                	slli	a5,a5,0x3
   13b2a:	fe078713          	addi	a4,a5,-32
   13b2e:	02074163          	bltz	a4,13b50 <crypto_aead_encrypt+0x1354>
   13b32:	08000693          	li	a3,128
   13b36:	00e696b3          	sll	a3,a3,a4
   13b3a:	4781                	li	a5,0
   13b3c:	5722                	lw	a4,40(sp)
   13b3e:	8f3d                	xor	a4,a4,a5
   13b40:	57b2                	lw	a5,44(sp)
   13b42:	8fb5                	xor	a5,a5,a3
   13b44:	8f29                	xor	a4,a4,a0
   13b46:	d43a                	sw	a4,40(sp)
   13b48:	0107c7b3          	xor	a5,a5,a6
   13b4c:	d63e                	sw	a5,44(sp)
   13b4e:	bf35                	j	13a8a <crypto_aead_encrypt+0x128e>
   13b50:	477d                	li	a4,31
   13b52:	8f1d                	sub	a4,a4,a5
   13b54:	04000693          	li	a3,64
   13b58:	00e6d6b3          	srl	a3,a3,a4
   13b5c:	08000713          	li	a4,128
   13b60:	00f717b3          	sll	a5,a4,a5
   13b64:	bfe1                	j	13b3c <crypto_aead_encrypt+0x1340>
   13b66:	c399                	beqz	a5,13b6c <crypto_aead_encrypt+0x1370>
   13b68:	0ca0106f          	j	14c32 <crypto_aead_encrypt+0x2436>
   13b6c:	47bd                	li	a5,15
   13b6e:	4712                	lw	a4,4(sp)
   13b70:	f2e7e7e3          	bltu	a5,a4,13a9e <crypto_aead_encrypt+0x12a2>
   13b74:	0be0106f          	j	14c32 <crypto_aead_encrypt+0x2436>
   13b78:	001ed693          	srli	a3,t4,0x1
   13b7c:	40550fb3          	sub	t6,a0,t0
   13b80:	01f6d6b3          	srl	a3,a3,t6
   13b84:	005e9eb3          	sll	t4,t4,t0
   13b88:	01da6eb3          	or	t4,s4,t4
   13b8c:	8ec1                	or	a3,a3,s0
   13b8e:	8a76                	mv	s4,t4
   13b90:	8436                	mv	s0,a3
   13b92:	0385                	addi	t2,t2,1
   13b94:	12e1                	addi	t0,t0,-8
   13b96:	00f28c63          	beq	t0,a5,13bae <crypto_aead_encrypt+0x13b2>
   13b9a:	0003ce83          	lbu	t4,0(t2)
   13b9e:	fe028693          	addi	a3,t0,-32
   13ba2:	fc06cbe3          	bltz	a3,13b78 <crypto_aead_encrypt+0x137c>
   13ba6:	00de96b3          	sll	a3,t4,a3
   13baa:	8eae                	mv	t4,a1
   13bac:	bff1                	j	13b88 <crypto_aead_encrypt+0x138c>
   13bae:	015ecfb3          	xor	t6,t4,s5
   13bb2:	8e35                	xor	a2,a2,a3
   13bb4:	0f21                	addi	t5,t5,8
   13bb6:	03800e93          	li	t4,56
   13bba:	83ae                	mv	t2,a1
   13bbc:	82ae                	mv	t0,a1
   13bbe:	a01d                	j	13be4 <crypto_aead_encrypt+0x13e8>
   13bc0:	00145693          	srli	a3,s0,0x1
   13bc4:	41d50a33          	sub	s4,a0,t4
   13bc8:	0146d6b3          	srl	a3,a3,s4
   13bcc:	01d41433          	sll	s0,s0,t4
   13bd0:	0083e433          	or	s0,t2,s0
   13bd4:	00d2e6b3          	or	a3,t0,a3
   13bd8:	83a2                	mv	t2,s0
   13bda:	82b6                	mv	t0,a3
   13bdc:	0f05                	addi	t5,t5,1
   13bde:	1ee1                	addi	t4,t4,-8
   13be0:	00fe8c63          	beq	t4,a5,13bf8 <crypto_aead_encrypt+0x13fc>
   13be4:	000f4403          	lbu	s0,0(t5)
   13be8:	fe0e8693          	addi	a3,t4,-32
   13bec:	fc06cae3          	bltz	a3,13bc0 <crypto_aead_encrypt+0x13c4>
   13bf0:	00d416b3          	sll	a3,s0,a3
   13bf4:	842e                	mv	s0,a1
   13bf6:	bfe9                	j	13bd0 <crypto_aead_encrypt+0x13d4>
   13bf8:	01744433          	xor	s0,s0,s7
   13bfc:	8eb9                	xor	a3,a3,a4
   13bfe:	8f46                	mv	t5,a7
   13c00:	82c6                	mv	t0,a7
   13c02:	03800e93          	li	t4,56
   13c06:	00161a13          	slli	s4,a2,0x1
   13c0a:	a839                	j	13c28 <crypto_aead_encrypt+0x142c>
   13c0c:	41d503b3          	sub	t2,a0,t4
   13c10:	007a13b3          	sll	t2,s4,t2
   13c14:	01dfd733          	srl	a4,t6,t4
   13c18:	00e3e733          	or	a4,t2,a4
   13c1c:	00e28023          	sb	a4,0(t0)
   13c20:	1ee1                	addi	t4,t4,-8
   13c22:	0285                	addi	t0,t0,1
   13c24:	00fe8963          	beq	t4,a5,13c36 <crypto_aead_encrypt+0x143a>
   13c28:	fe0e8713          	addi	a4,t4,-32
   13c2c:	fe0740e3          	bltz	a4,13c0c <crypto_aead_encrypt+0x1410>
   13c30:	00e65733          	srl	a4,a2,a4
   13c34:	b7e5                	j	13c1c <crypto_aead_encrypt+0x1420>
   13c36:	0f21                	addi	t5,t5,8
   13c38:	03800e93          	li	t4,56
   13c3c:	00169393          	slli	t2,a3,0x1
   13c40:	a839                	j	13c5e <crypto_aead_encrypt+0x1462>
   13c42:	41d502b3          	sub	t0,a0,t4
   13c46:	005392b3          	sll	t0,t2,t0
   13c4a:	01d45733          	srl	a4,s0,t4
   13c4e:	00e2e733          	or	a4,t0,a4
   13c52:	00ef0023          	sb	a4,0(t5)
   13c56:	1ee1                	addi	t4,t4,-8
   13c58:	0f05                	addi	t5,t5,1
   13c5a:	00fe8963          	beq	t4,a5,13c6c <crypto_aead_encrypt+0x1470>
   13c5e:	fe0e8713          	addi	a4,t4,-32
   13c62:	fe0740e3          	bltz	a4,13c42 <crypto_aead_encrypt+0x1446>
   13c66:	00e6d733          	srl	a4,a3,a4
   13c6a:	b7e5                	j	13c52 <crypto_aead_encrypt+0x1456>
   13c6c:	001440b3          	xor	ra,s0,ra
   13c70:	01a6cd33          	xor	s10,a3,s10
   13c74:	019fceb3          	xor	t4,t6,s9
   13c78:	01864633          	xor	a2,a2,s8
   13c7c:	0199ccb3          	xor	s9,s3,s9
   13c80:	01894733          	xor	a4,s2,s8
   13c84:	0b40c293          	xori	t0,ra,180
   13c88:	fff44c13          	not	s8,s0
   13c8c:	fff6cb13          	not	s6,a3
   13c90:	005c7c33          	and	s8,s8,t0
   13c94:	01ab7b33          	and	s6,s6,s10
   13c98:	01dc4c33          	xor	s8,s8,t4
   13c9c:	00cb4b33          	xor	s6,s6,a2
   13ca0:	fff9cf93          	not	t6,s3
   13ca4:	fff94f13          	not	t5,s2
   13ca8:	019fffb3          	and	t6,t6,s9
   13cac:	00ef7f33          	and	t5,t5,a4
   13cb0:	005fcfb3          	xor	t6,t6,t0
   13cb4:	01af4f33          	xor	t5,t5,s10
   13cb8:	fffeca93          	not	s5,t4
   13cbc:	fff64a13          	not	s4,a2
   13cc0:	008afab3          	and	s5,s5,s0
   13cc4:	00da7a33          	and	s4,s4,a3
   13cc8:	019acab3          	xor	s5,s5,s9
   13ccc:	00ea4a33          	xor	s4,s4,a4
   13cd0:	f4b0c293          	xori	t0,ra,-181
   13cd4:	fffd4d13          	not	s10,s10
   13cd8:	0132f2b3          	and	t0,t0,s3
   13cdc:	012d7d33          	and	s10,s10,s2
   13ce0:	0082c2b3          	xor	t0,t0,s0
   13ce4:	00dd46b3          	xor	a3,s10,a3
   13ce8:	0182c2b3          	xor	t0,t0,s8
   13cec:	0166c6b3          	xor	a3,a3,s6
   13cf0:	015c4bb3          	xor	s7,s8,s5
   13cf4:	014b4d33          	xor	s10,s6,s4
   13cf8:	fffccc93          	not	s9,s9
   13cfc:	fff74713          	not	a4,a4
   13d00:	01dcfcb3          	and	s9,s9,t4
   13d04:	8f71                	and	a4,a4,a2
   13d06:	013cc633          	xor	a2,s9,s3
   13d0a:	01274733          	xor	a4,a4,s2
   13d0e:	01f64633          	xor	a2,a2,t6
   13d12:	01e74733          	xor	a4,a4,t5
   13d16:	ffffcf93          	not	t6,t6
   13d1a:	ffff4f13          	not	t5,t5
   13d1e:	01d2d093          	srli	ra,t0,0x1d
   13d22:	00369e93          	slli	t4,a3,0x3
   13d26:	01d0e0b3          	or	ra,ra,t4
   13d2a:	01d6d413          	srli	s0,a3,0x1d
   13d2e:	00329e93          	slli	t4,t0,0x3
   13d32:	01d46433          	or	s0,s0,t4
   13d36:	0072de93          	srli	t4,t0,0x7
   13d3a:	01969393          	slli	t2,a3,0x19
   13d3e:	007eeeb3          	or	t4,t4,t2
   13d42:	0076d393          	srli	t2,a3,0x7
   13d46:	01929913          	slli	s2,t0,0x19
   13d4a:	0123e3b3          	or	t2,t2,s2
   13d4e:	00744433          	xor	s0,s0,t2
   13d52:	01d0c0b3          	xor	ra,ra,t4
   13d56:	00544433          	xor	s0,s0,t0
   13d5a:	00d0c0b3          	xor	ra,ra,a3
   13d5e:	01671393          	slli	t2,a4,0x16
   13d62:	00a65693          	srli	a3,a2,0xa
   13d66:	00d3e3b3          	or	t2,t2,a3
   13d6a:	01661293          	slli	t0,a2,0x16
   13d6e:	00a75693          	srli	a3,a4,0xa
   13d72:	00d2e2b3          	or	t0,t0,a3
   13d76:	00f71e93          	slli	t4,a4,0xf
   13d7a:	01165693          	srli	a3,a2,0x11
   13d7e:	00deeeb3          	or	t4,t4,a3
   13d82:	00f61693          	slli	a3,a2,0xf
   13d86:	01175913          	srli	s2,a4,0x11
   13d8a:	0126e6b3          	or	a3,a3,s2
   13d8e:	01d3c3b3          	xor	t2,t2,t4
   13d92:	00d2c2b3          	xor	t0,t0,a3
   13d96:	00c3c3b3          	xor	t2,t2,a2
   13d9a:	00e2c2b3          	xor	t0,t0,a4
   13d9e:	019a1693          	slli	a3,s4,0x19
   13da2:	007ad713          	srli	a4,s5,0x7
   13da6:	8ed9                	or	a3,a3,a4
   13da8:	019a9713          	slli	a4,s5,0x19
   13dac:	007a5613          	srli	a2,s4,0x7
   13db0:	8f51                	or	a4,a4,a2
   13db2:	009ade93          	srli	t4,s5,0x9
   13db6:	017a1613          	slli	a2,s4,0x17
   13dba:	00ceeeb3          	or	t4,t4,a2
   13dbe:	009a5613          	srli	a2,s4,0x9
   13dc2:	017a9913          	slli	s2,s5,0x17
   13dc6:	01266633          	or	a2,a2,s2
   13dca:	8eb1                	xor	a3,a3,a2
   13dcc:	01d74733          	xor	a4,a4,t4
   13dd0:	01ff1e93          	slli	t4,t5,0x1f
   13dd4:	001fd613          	srli	a2,t6,0x1
   13dd8:	00ceeeb3          	or	t4,t4,a2
   13ddc:	01ff9613          	slli	a2,t6,0x1f
   13de0:	001f5913          	srli	s2,t5,0x1
   13de4:	01266633          	or	a2,a2,s2
   13de8:	01af1993          	slli	s3,t5,0x1a
   13dec:	006fd913          	srli	s2,t6,0x6
   13df0:	0129e9b3          	or	s3,s3,s2
   13df4:	01af9c93          	slli	s9,t6,0x1a
   13df8:	006f5913          	srli	s2,t5,0x6
   13dfc:	012ce933          	or	s2,s9,s2
   13e00:	013eceb3          	xor	t4,t4,s3
   13e04:	01264633          	xor	a2,a2,s2
   13e08:	01feceb3          	xor	t4,t4,t6
   13e0c:	01e64633          	xor	a2,a2,t5
   13e10:	008eceb3          	xor	t4,t4,s0
   13e14:	00164633          	xor	a2,a2,ra
   13e18:	00dd1c93          	slli	s9,s10,0xd
   13e1c:	013bdf13          	srli	t5,s7,0x13
   13e20:	01ececb3          	or	s9,s9,t5
   13e24:	00db9f13          	slli	t5,s7,0xd
   13e28:	013d5f93          	srli	t6,s10,0x13
   13e2c:	01ff6f33          	or	t5,t5,t6
   13e30:	0186cc33          	xor	s8,a3,s8
   13e34:	01674b33          	xor	s6,a4,s6
   13e38:	018cccb3          	xor	s9,s9,s8
   13e3c:	016f4c33          	xor	s8,t5,s6
   13e40:	004d1f13          	slli	t5,s10,0x4
   13e44:	01cbdf93          	srli	t6,s7,0x1c
   13e48:	01ff6f33          	or	t5,t5,t6
   13e4c:	0b92                	slli	s7,s7,0x4
   13e4e:	01cd5d13          	srli	s10,s10,0x1c
   13e52:	01abebb3          	or	s7,s7,s10
   13e56:	01ecccb3          	xor	s9,s9,t5
   13e5a:	017c4c33          	xor	s8,s8,s7
   13e5e:	0156c6b3          	xor	a3,a3,s5
   13e62:	01474733          	xor	a4,a4,s4
   13e66:	0076c6b3          	xor	a3,a3,t2
   13e6a:	00574733          	xor	a4,a4,t0
   13e6e:	0a5ec913          	xori	s2,t4,165
   13e72:	fff44a93          	not	s5,s0
   13e76:	fff0ca13          	not	s4,ra
   13e7a:	012afab3          	and	s5,s5,s2
   13e7e:	00ca7a33          	and	s4,s4,a2
   13e82:	019acab3          	xor	s5,s5,s9
   13e86:	018a4a33          	xor	s4,s4,s8
   13e8a:	fff3cf93          	not	t6,t2
   13e8e:	fff2cf13          	not	t5,t0
   13e92:	00dfffb3          	and	t6,t6,a3
   13e96:	00ef7f33          	and	t5,t5,a4
   13e9a:	012fcfb3          	xor	t6,t6,s2
   13e9e:	00cf4f33          	xor	t5,t5,a2
   13ea2:	fffcc993          	not	s3,s9
   13ea6:	fffc4913          	not	s2,s8
   13eaa:	0089f9b3          	and	s3,s3,s0
   13eae:	00197933          	and	s2,s2,ra
   13eb2:	00d9c9b3          	xor	s3,s3,a3
   13eb6:	00e94933          	xor	s2,s2,a4
   13eba:	f5aece93          	xori	t4,t4,-166
   13ebe:	fff64613          	not	a2,a2
   13ec2:	007efeb3          	and	t4,t4,t2
   13ec6:	00567633          	and	a2,a2,t0
   13eca:	008eceb3          	xor	t4,t4,s0
   13ece:	00164633          	xor	a2,a2,ra
   13ed2:	015eceb3          	xor	t4,t4,s5
   13ed6:	01464633          	xor	a2,a2,s4
   13eda:	013acb33          	xor	s6,s5,s3
   13ede:	012a4bb3          	xor	s7,s4,s2
   13ee2:	fff6c693          	not	a3,a3
   13ee6:	fff74713          	not	a4,a4
   13eea:	0196f6b3          	and	a3,a3,s9
   13eee:	01877733          	and	a4,a4,s8
   13ef2:	0076c6b3          	xor	a3,a3,t2
   13ef6:	00574733          	xor	a4,a4,t0
   13efa:	01f6c6b3          	xor	a3,a3,t6
   13efe:	01e74733          	xor	a4,a4,t5
   13f02:	ffffcf93          	not	t6,t6
   13f06:	ffff4f13          	not	t5,t5
   13f0a:	01ded093          	srli	ra,t4,0x1d
   13f0e:	00361293          	slli	t0,a2,0x3
   13f12:	0050e0b3          	or	ra,ra,t0
   13f16:	01d65413          	srli	s0,a2,0x1d
   13f1a:	003e9293          	slli	t0,t4,0x3
   13f1e:	00546433          	or	s0,s0,t0
   13f22:	007ed393          	srli	t2,t4,0x7
   13f26:	01961293          	slli	t0,a2,0x19
   13f2a:	0053e3b3          	or	t2,t2,t0
   13f2e:	00765293          	srli	t0,a2,0x7
   13f32:	019e9c13          	slli	s8,t4,0x19
   13f36:	0182e2b3          	or	t0,t0,s8
   13f3a:	00544433          	xor	s0,s0,t0
   13f3e:	0070c0b3          	xor	ra,ra,t2
   13f42:	01d44433          	xor	s0,s0,t4
   13f46:	00c0c0b3          	xor	ra,ra,a2
   13f4a:	01671393          	slli	t2,a4,0x16
   13f4e:	00a6d613          	srli	a2,a3,0xa
   13f52:	00c3e3b3          	or	t2,t2,a2
   13f56:	01669293          	slli	t0,a3,0x16
   13f5a:	00a75613          	srli	a2,a4,0xa
   13f5e:	00c2e2b3          	or	t0,t0,a2
   13f62:	00f71e93          	slli	t4,a4,0xf
   13f66:	0116d613          	srli	a2,a3,0x11
   13f6a:	00ceeeb3          	or	t4,t4,a2
   13f6e:	00f69613          	slli	a2,a3,0xf
   13f72:	01175c13          	srli	s8,a4,0x11
   13f76:	01866633          	or	a2,a2,s8
   13f7a:	01d3c3b3          	xor	t2,t2,t4
   13f7e:	00c2c2b3          	xor	t0,t0,a2
   13f82:	00d3c3b3          	xor	t2,t2,a3
   13f86:	00e2c2b3          	xor	t0,t0,a4
   13f8a:	01991693          	slli	a3,s2,0x19
   13f8e:	0079d713          	srli	a4,s3,0x7
   13f92:	8ed9                	or	a3,a3,a4
   13f94:	01999713          	slli	a4,s3,0x19
   13f98:	00795613          	srli	a2,s2,0x7
   13f9c:	8f51                	or	a4,a4,a2
   13f9e:	0099de93          	srli	t4,s3,0x9
   13fa2:	01791613          	slli	a2,s2,0x17
   13fa6:	00ceeeb3          	or	t4,t4,a2
   13faa:	00995613          	srli	a2,s2,0x9
   13fae:	01799c13          	slli	s8,s3,0x17
   13fb2:	01866633          	or	a2,a2,s8
   13fb6:	8eb1                	xor	a3,a3,a2
   13fb8:	01d74733          	xor	a4,a4,t4
   13fbc:	01ff1e93          	slli	t4,t5,0x1f
   13fc0:	001fd613          	srli	a2,t6,0x1
   13fc4:	00ceeeb3          	or	t4,t4,a2
   13fc8:	01ff9613          	slli	a2,t6,0x1f
   13fcc:	001f5c13          	srli	s8,t5,0x1
   13fd0:	01866633          	or	a2,a2,s8
   13fd4:	01af1c93          	slli	s9,t5,0x1a
   13fd8:	006fdc13          	srli	s8,t6,0x6
   13fdc:	018cecb3          	or	s9,s9,s8
   13fe0:	01af9d13          	slli	s10,t6,0x1a
   13fe4:	006f5c13          	srli	s8,t5,0x6
   13fe8:	018d6c33          	or	s8,s10,s8
   13fec:	019eceb3          	xor	t4,t4,s9
   13ff0:	01864633          	xor	a2,a2,s8
   13ff4:	01feceb3          	xor	t4,t4,t6
   13ff8:	01e64633          	xor	a2,a2,t5
   13ffc:	008eceb3          	xor	t4,t4,s0
   14000:	00164633          	xor	a2,a2,ra
   14004:	00db9c93          	slli	s9,s7,0xd
   14008:	013b5f13          	srli	t5,s6,0x13
   1400c:	01ececb3          	or	s9,s9,t5
   14010:	00db1c13          	slli	s8,s6,0xd
   14014:	013bdf13          	srli	t5,s7,0x13
   14018:	01ec6c33          	or	s8,s8,t5
   1401c:	0156cab3          	xor	s5,a3,s5
   14020:	01474a33          	xor	s4,a4,s4
   14024:	015cccb3          	xor	s9,s9,s5
   14028:	014c4c33          	xor	s8,s8,s4
   1402c:	004b9f13          	slli	t5,s7,0x4
   14030:	01cb5f93          	srli	t6,s6,0x1c
   14034:	01ff6f33          	or	t5,t5,t6
   14038:	0b12                	slli	s6,s6,0x4
   1403a:	01cbdb93          	srli	s7,s7,0x1c
   1403e:	017b6b33          	or	s6,s6,s7
   14042:	01ecccb3          	xor	s9,s9,t5
   14046:	016c4c33          	xor	s8,s8,s6
   1404a:	0136c6b3          	xor	a3,a3,s3
   1404e:	01274733          	xor	a4,a4,s2
   14052:	0076c6b3          	xor	a3,a3,t2
   14056:	00574733          	xor	a4,a4,t0
   1405a:	096ec913          	xori	s2,t4,150
   1405e:	fff44a93          	not	s5,s0
   14062:	fff0ca13          	not	s4,ra
   14066:	012afab3          	and	s5,s5,s2
   1406a:	00ca7a33          	and	s4,s4,a2
   1406e:	019acab3          	xor	s5,s5,s9
   14072:	018a4a33          	xor	s4,s4,s8
   14076:	fff3cf93          	not	t6,t2
   1407a:	fff2cf13          	not	t5,t0
   1407e:	00dfffb3          	and	t6,t6,a3
   14082:	00ef7f33          	and	t5,t5,a4
   14086:	012fcfb3          	xor	t6,t6,s2
   1408a:	00cf4f33          	xor	t5,t5,a2
   1408e:	fffcc993          	not	s3,s9
   14092:	fffc4913          	not	s2,s8
   14096:	0089f9b3          	and	s3,s3,s0
   1409a:	00197933          	and	s2,s2,ra
   1409e:	00d9c9b3          	xor	s3,s3,a3
   140a2:	00e94933          	xor	s2,s2,a4
   140a6:	f69ece93          	xori	t4,t4,-151
   140aa:	fff64613          	not	a2,a2
   140ae:	007efeb3          	and	t4,t4,t2
   140b2:	00567633          	and	a2,a2,t0
   140b6:	008eceb3          	xor	t4,t4,s0
   140ba:	00164633          	xor	a2,a2,ra
   140be:	015eceb3          	xor	t4,t4,s5
   140c2:	01464633          	xor	a2,a2,s4
   140c6:	013acb33          	xor	s6,s5,s3
   140ca:	012a4bb3          	xor	s7,s4,s2
   140ce:	fff6c693          	not	a3,a3
   140d2:	fff74713          	not	a4,a4
   140d6:	0196f6b3          	and	a3,a3,s9
   140da:	01877733          	and	a4,a4,s8
   140de:	0076c6b3          	xor	a3,a3,t2
   140e2:	00574733          	xor	a4,a4,t0
   140e6:	01f6c6b3          	xor	a3,a3,t6
   140ea:	01e74733          	xor	a4,a4,t5
   140ee:	ffffcf93          	not	t6,t6
   140f2:	ffff4f13          	not	t5,t5
   140f6:	01ded093          	srli	ra,t4,0x1d
   140fa:	00361293          	slli	t0,a2,0x3
   140fe:	0050e0b3          	or	ra,ra,t0
   14102:	01d65413          	srli	s0,a2,0x1d
   14106:	003e9293          	slli	t0,t4,0x3
   1410a:	00546433          	or	s0,s0,t0
   1410e:	007ed393          	srli	t2,t4,0x7
   14112:	01961293          	slli	t0,a2,0x19
   14116:	0053e3b3          	or	t2,t2,t0
   1411a:	00765293          	srli	t0,a2,0x7
   1411e:	019e9c13          	slli	s8,t4,0x19
   14122:	0182e2b3          	or	t0,t0,s8
   14126:	00544433          	xor	s0,s0,t0
   1412a:	0070c0b3          	xor	ra,ra,t2
   1412e:	01d44433          	xor	s0,s0,t4
   14132:	00c0c0b3          	xor	ra,ra,a2
   14136:	01671393          	slli	t2,a4,0x16
   1413a:	00a6d613          	srli	a2,a3,0xa
   1413e:	00c3e3b3          	or	t2,t2,a2
   14142:	01669293          	slli	t0,a3,0x16
   14146:	00a75613          	srli	a2,a4,0xa
   1414a:	00c2e2b3          	or	t0,t0,a2
   1414e:	00f71e93          	slli	t4,a4,0xf
   14152:	0116d613          	srli	a2,a3,0x11
   14156:	00ceeeb3          	or	t4,t4,a2
   1415a:	00f69613          	slli	a2,a3,0xf
   1415e:	01175c13          	srli	s8,a4,0x11
   14162:	01866633          	or	a2,a2,s8
   14166:	01d3c3b3          	xor	t2,t2,t4
   1416a:	00c2c2b3          	xor	t0,t0,a2
   1416e:	00d3c3b3          	xor	t2,t2,a3
   14172:	00e2c2b3          	xor	t0,t0,a4
   14176:	01991693          	slli	a3,s2,0x19
   1417a:	0079d713          	srli	a4,s3,0x7
   1417e:	8ed9                	or	a3,a3,a4
   14180:	01999713          	slli	a4,s3,0x19
   14184:	00795613          	srli	a2,s2,0x7
   14188:	8f51                	or	a4,a4,a2
   1418a:	0099de93          	srli	t4,s3,0x9
   1418e:	01791613          	slli	a2,s2,0x17
   14192:	00ceeeb3          	or	t4,t4,a2
   14196:	00995613          	srli	a2,s2,0x9
   1419a:	01799c13          	slli	s8,s3,0x17
   1419e:	01866633          	or	a2,a2,s8
   141a2:	8eb1                	xor	a3,a3,a2
   141a4:	01d74733          	xor	a4,a4,t4
   141a8:	01ff1e93          	slli	t4,t5,0x1f
   141ac:	001fd613          	srli	a2,t6,0x1
   141b0:	00ceeeb3          	or	t4,t4,a2
   141b4:	01ff9613          	slli	a2,t6,0x1f
   141b8:	001f5c13          	srli	s8,t5,0x1
   141bc:	01866633          	or	a2,a2,s8
   141c0:	01af1c93          	slli	s9,t5,0x1a
   141c4:	006fdc13          	srli	s8,t6,0x6
   141c8:	018cecb3          	or	s9,s9,s8
   141cc:	01af9d13          	slli	s10,t6,0x1a
   141d0:	006f5c13          	srli	s8,t5,0x6
   141d4:	018d6c33          	or	s8,s10,s8
   141d8:	019eceb3          	xor	t4,t4,s9
   141dc:	01864633          	xor	a2,a2,s8
   141e0:	01feceb3          	xor	t4,t4,t6
   141e4:	01e64633          	xor	a2,a2,t5
   141e8:	008eceb3          	xor	t4,t4,s0
   141ec:	00164633          	xor	a2,a2,ra
   141f0:	00db9c93          	slli	s9,s7,0xd
   141f4:	013b5f13          	srli	t5,s6,0x13
   141f8:	01ececb3          	or	s9,s9,t5
   141fc:	00db1c13          	slli	s8,s6,0xd
   14200:	013bdf13          	srli	t5,s7,0x13
   14204:	01ec6c33          	or	s8,s8,t5
   14208:	0156cab3          	xor	s5,a3,s5
   1420c:	01474a33          	xor	s4,a4,s4
   14210:	015cccb3          	xor	s9,s9,s5
   14214:	014c4c33          	xor	s8,s8,s4
   14218:	004b9f13          	slli	t5,s7,0x4
   1421c:	01cb5f93          	srli	t6,s6,0x1c
   14220:	01ff6f33          	or	t5,t5,t6
   14224:	0b12                	slli	s6,s6,0x4
   14226:	01cbdb93          	srli	s7,s7,0x1c
   1422a:	017b6b33          	or	s6,s6,s7
   1422e:	01ecccb3          	xor	s9,s9,t5
   14232:	016c4c33          	xor	s8,s8,s6
   14236:	0136c6b3          	xor	a3,a3,s3
   1423a:	01274733          	xor	a4,a4,s2
   1423e:	0076c6b3          	xor	a3,a3,t2
   14242:	00574733          	xor	a4,a4,t0
   14246:	087ec913          	xori	s2,t4,135
   1424a:	fff44a93          	not	s5,s0
   1424e:	fff0ca13          	not	s4,ra
   14252:	012afab3          	and	s5,s5,s2
   14256:	00ca7a33          	and	s4,s4,a2
   1425a:	019acab3          	xor	s5,s5,s9
   1425e:	018a4a33          	xor	s4,s4,s8
   14262:	fff3cf93          	not	t6,t2
   14266:	fff2cf13          	not	t5,t0
   1426a:	00dfffb3          	and	t6,t6,a3
   1426e:	00ef7f33          	and	t5,t5,a4
   14272:	012fcfb3          	xor	t6,t6,s2
   14276:	00cf4f33          	xor	t5,t5,a2
   1427a:	fffcc993          	not	s3,s9
   1427e:	fffc4913          	not	s2,s8
   14282:	0089f9b3          	and	s3,s3,s0
   14286:	00197933          	and	s2,s2,ra
   1428a:	00d9c9b3          	xor	s3,s3,a3
   1428e:	00e94933          	xor	s2,s2,a4
   14292:	f78ece93          	xori	t4,t4,-136
   14296:	fff64613          	not	a2,a2
   1429a:	007efeb3          	and	t4,t4,t2
   1429e:	00567633          	and	a2,a2,t0
   142a2:	008eceb3          	xor	t4,t4,s0
   142a6:	00164633          	xor	a2,a2,ra
   142aa:	015eceb3          	xor	t4,t4,s5
   142ae:	01464633          	xor	a2,a2,s4
   142b2:	013acb33          	xor	s6,s5,s3
   142b6:	012a4bb3          	xor	s7,s4,s2
   142ba:	fff6c693          	not	a3,a3
   142be:	fff74713          	not	a4,a4
   142c2:	0196f6b3          	and	a3,a3,s9
   142c6:	01877733          	and	a4,a4,s8
   142ca:	0076c6b3          	xor	a3,a3,t2
   142ce:	00574733          	xor	a4,a4,t0
   142d2:	01f6c6b3          	xor	a3,a3,t6
   142d6:	01e74733          	xor	a4,a4,t5
   142da:	ffffcf93          	not	t6,t6
   142de:	ffff4f13          	not	t5,t5
   142e2:	01ded093          	srli	ra,t4,0x1d
   142e6:	00361293          	slli	t0,a2,0x3
   142ea:	0050e0b3          	or	ra,ra,t0
   142ee:	01d65413          	srli	s0,a2,0x1d
   142f2:	003e9293          	slli	t0,t4,0x3
   142f6:	00546433          	or	s0,s0,t0
   142fa:	007ed393          	srli	t2,t4,0x7
   142fe:	01961293          	slli	t0,a2,0x19
   14302:	0053e3b3          	or	t2,t2,t0
   14306:	00765293          	srli	t0,a2,0x7
   1430a:	019e9c13          	slli	s8,t4,0x19
   1430e:	0182e2b3          	or	t0,t0,s8
   14312:	00544433          	xor	s0,s0,t0
   14316:	0070c0b3          	xor	ra,ra,t2
   1431a:	01d44433          	xor	s0,s0,t4
   1431e:	00c0c0b3          	xor	ra,ra,a2
   14322:	01671393          	slli	t2,a4,0x16
   14326:	00a6d613          	srli	a2,a3,0xa
   1432a:	00c3e3b3          	or	t2,t2,a2
   1432e:	01669293          	slli	t0,a3,0x16
   14332:	00a75613          	srli	a2,a4,0xa
   14336:	00c2e2b3          	or	t0,t0,a2
   1433a:	00f71e93          	slli	t4,a4,0xf
   1433e:	0116d613          	srli	a2,a3,0x11
   14342:	00ceeeb3          	or	t4,t4,a2
   14346:	00f69613          	slli	a2,a3,0xf
   1434a:	01175c13          	srli	s8,a4,0x11
   1434e:	01866633          	or	a2,a2,s8
   14352:	01d3c3b3          	xor	t2,t2,t4
   14356:	00c2c2b3          	xor	t0,t0,a2
   1435a:	00d3c3b3          	xor	t2,t2,a3
   1435e:	00e2c2b3          	xor	t0,t0,a4
   14362:	01991693          	slli	a3,s2,0x19
   14366:	0079d713          	srli	a4,s3,0x7
   1436a:	8ed9                	or	a3,a3,a4
   1436c:	01999713          	slli	a4,s3,0x19
   14370:	00795613          	srli	a2,s2,0x7
   14374:	8f51                	or	a4,a4,a2
   14376:	0099de93          	srli	t4,s3,0x9
   1437a:	01791613          	slli	a2,s2,0x17
   1437e:	00ceeeb3          	or	t4,t4,a2
   14382:	00995613          	srli	a2,s2,0x9
   14386:	01799c13          	slli	s8,s3,0x17
   1438a:	01866633          	or	a2,a2,s8
   1438e:	8eb1                	xor	a3,a3,a2
   14390:	01d74733          	xor	a4,a4,t4
   14394:	01ff1e93          	slli	t4,t5,0x1f
   14398:	001fd613          	srli	a2,t6,0x1
   1439c:	00ceeeb3          	or	t4,t4,a2
   143a0:	01ff9613          	slli	a2,t6,0x1f
   143a4:	001f5c13          	srli	s8,t5,0x1
   143a8:	01866633          	or	a2,a2,s8
   143ac:	01af1c93          	slli	s9,t5,0x1a
   143b0:	006fdc13          	srli	s8,t6,0x6
   143b4:	018cecb3          	or	s9,s9,s8
   143b8:	01af9d13          	slli	s10,t6,0x1a
   143bc:	006f5c13          	srli	s8,t5,0x6
   143c0:	018d6c33          	or	s8,s10,s8
   143c4:	019eceb3          	xor	t4,t4,s9
   143c8:	01864633          	xor	a2,a2,s8
   143cc:	01feceb3          	xor	t4,t4,t6
   143d0:	01e64633          	xor	a2,a2,t5
   143d4:	008eceb3          	xor	t4,t4,s0
   143d8:	00164633          	xor	a2,a2,ra
   143dc:	00db9c93          	slli	s9,s7,0xd
   143e0:	013b5f13          	srli	t5,s6,0x13
   143e4:	01ececb3          	or	s9,s9,t5
   143e8:	00db1c13          	slli	s8,s6,0xd
   143ec:	013bdf13          	srli	t5,s7,0x13
   143f0:	01ec6c33          	or	s8,s8,t5
   143f4:	0156cab3          	xor	s5,a3,s5
   143f8:	01474a33          	xor	s4,a4,s4
   143fc:	015cccb3          	xor	s9,s9,s5
   14400:	014c4c33          	xor	s8,s8,s4
   14404:	004b9f13          	slli	t5,s7,0x4
   14408:	01cb5f93          	srli	t6,s6,0x1c
   1440c:	01ff6f33          	or	t5,t5,t6
   14410:	0b12                	slli	s6,s6,0x4
   14412:	01cbdb93          	srli	s7,s7,0x1c
   14416:	017b6b33          	or	s6,s6,s7
   1441a:	01ecccb3          	xor	s9,s9,t5
   1441e:	016c4c33          	xor	s8,s8,s6
   14422:	0136c6b3          	xor	a3,a3,s3
   14426:	01274733          	xor	a4,a4,s2
   1442a:	0076c6b3          	xor	a3,a3,t2
   1442e:	00574733          	xor	a4,a4,t0
   14432:	078ec913          	xori	s2,t4,120
   14436:	fff44a93          	not	s5,s0
   1443a:	fff0ca13          	not	s4,ra
   1443e:	012afab3          	and	s5,s5,s2
   14442:	00ca7a33          	and	s4,s4,a2
   14446:	019acab3          	xor	s5,s5,s9
   1444a:	018a4a33          	xor	s4,s4,s8
   1444e:	fff3cf93          	not	t6,t2
   14452:	fff2cf13          	not	t5,t0
   14456:	00dfffb3          	and	t6,t6,a3
   1445a:	00ef7f33          	and	t5,t5,a4
   1445e:	012fcfb3          	xor	t6,t6,s2
   14462:	00cf4f33          	xor	t5,t5,a2
   14466:	fffcc993          	not	s3,s9
   1446a:	fffc4913          	not	s2,s8
   1446e:	0089f9b3          	and	s3,s3,s0
   14472:	00197933          	and	s2,s2,ra
   14476:	00d9c9b3          	xor	s3,s3,a3
   1447a:	00e94933          	xor	s2,s2,a4
   1447e:	f87ece93          	xori	t4,t4,-121
   14482:	fff64613          	not	a2,a2
   14486:	007efeb3          	and	t4,t4,t2
   1448a:	00567633          	and	a2,a2,t0
   1448e:	008eceb3          	xor	t4,t4,s0
   14492:	00164633          	xor	a2,a2,ra
   14496:	015eceb3          	xor	t4,t4,s5
   1449a:	01464633          	xor	a2,a2,s4
   1449e:	013acb33          	xor	s6,s5,s3
   144a2:	012a4bb3          	xor	s7,s4,s2
   144a6:	fff6c693          	not	a3,a3
   144aa:	fff74713          	not	a4,a4
   144ae:	0196f6b3          	and	a3,a3,s9
   144b2:	01877733          	and	a4,a4,s8
   144b6:	0076c6b3          	xor	a3,a3,t2
   144ba:	00574733          	xor	a4,a4,t0
   144be:	01f6c6b3          	xor	a3,a3,t6
   144c2:	01e74733          	xor	a4,a4,t5
   144c6:	ffffcf93          	not	t6,t6
   144ca:	ffff4f13          	not	t5,t5
   144ce:	01ded093          	srli	ra,t4,0x1d
   144d2:	00361293          	slli	t0,a2,0x3
   144d6:	0050e0b3          	or	ra,ra,t0
   144da:	01d65413          	srli	s0,a2,0x1d
   144de:	003e9293          	slli	t0,t4,0x3
   144e2:	00546433          	or	s0,s0,t0
   144e6:	007ed393          	srli	t2,t4,0x7
   144ea:	01961293          	slli	t0,a2,0x19
   144ee:	0053e3b3          	or	t2,t2,t0
   144f2:	00765293          	srli	t0,a2,0x7
   144f6:	019e9c13          	slli	s8,t4,0x19
   144fa:	0182e2b3          	or	t0,t0,s8
   144fe:	00544433          	xor	s0,s0,t0
   14502:	0070c0b3          	xor	ra,ra,t2
   14506:	01d44433          	xor	s0,s0,t4
   1450a:	00c0c0b3          	xor	ra,ra,a2
   1450e:	01671393          	slli	t2,a4,0x16
   14512:	00a6d613          	srli	a2,a3,0xa
   14516:	00c3e3b3          	or	t2,t2,a2
   1451a:	01669293          	slli	t0,a3,0x16
   1451e:	00a75613          	srli	a2,a4,0xa
   14522:	00c2e2b3          	or	t0,t0,a2
   14526:	00f71e93          	slli	t4,a4,0xf
   1452a:	0116d613          	srli	a2,a3,0x11
   1452e:	00ceeeb3          	or	t4,t4,a2
   14532:	00f69613          	slli	a2,a3,0xf
   14536:	01175c13          	srli	s8,a4,0x11
   1453a:	01866633          	or	a2,a2,s8
   1453e:	01d3c3b3          	xor	t2,t2,t4
   14542:	00c2c2b3          	xor	t0,t0,a2
   14546:	00d3c3b3          	xor	t2,t2,a3
   1454a:	00e2c2b3          	xor	t0,t0,a4
   1454e:	01991693          	slli	a3,s2,0x19
   14552:	0079d713          	srli	a4,s3,0x7
   14556:	8ed9                	or	a3,a3,a4
   14558:	01999713          	slli	a4,s3,0x19
   1455c:	00795613          	srli	a2,s2,0x7
   14560:	8f51                	or	a4,a4,a2
   14562:	0099de93          	srli	t4,s3,0x9
   14566:	01791613          	slli	a2,s2,0x17
   1456a:	00ceeeb3          	or	t4,t4,a2
   1456e:	00995613          	srli	a2,s2,0x9
   14572:	01799c13          	slli	s8,s3,0x17
   14576:	01866633          	or	a2,a2,s8
   1457a:	8eb1                	xor	a3,a3,a2
   1457c:	01d74733          	xor	a4,a4,t4
   14580:	01ff1e93          	slli	t4,t5,0x1f
   14584:	001fd613          	srli	a2,t6,0x1
   14588:	00ceeeb3          	or	t4,t4,a2
   1458c:	01ff9613          	slli	a2,t6,0x1f
   14590:	001f5c13          	srli	s8,t5,0x1
   14594:	01866633          	or	a2,a2,s8
   14598:	01af1c93          	slli	s9,t5,0x1a
   1459c:	006fdc13          	srli	s8,t6,0x6
   145a0:	018cecb3          	or	s9,s9,s8
   145a4:	01af9d13          	slli	s10,t6,0x1a
   145a8:	006f5c13          	srli	s8,t5,0x6
   145ac:	018d6c33          	or	s8,s10,s8
   145b0:	019eceb3          	xor	t4,t4,s9
   145b4:	01864633          	xor	a2,a2,s8
   145b8:	01feceb3          	xor	t4,t4,t6
   145bc:	01e64633          	xor	a2,a2,t5
   145c0:	008eceb3          	xor	t4,t4,s0
   145c4:	00164633          	xor	a2,a2,ra
   145c8:	00db9c93          	slli	s9,s7,0xd
   145cc:	013b5f13          	srli	t5,s6,0x13
   145d0:	01ececb3          	or	s9,s9,t5
   145d4:	00db1c13          	slli	s8,s6,0xd
   145d8:	013bdf13          	srli	t5,s7,0x13
   145dc:	01ec6c33          	or	s8,s8,t5
   145e0:	0156cab3          	xor	s5,a3,s5
   145e4:	01474a33          	xor	s4,a4,s4
   145e8:	015cccb3          	xor	s9,s9,s5
   145ec:	014c4c33          	xor	s8,s8,s4
   145f0:	004b9f13          	slli	t5,s7,0x4
   145f4:	01cb5f93          	srli	t6,s6,0x1c
   145f8:	01ff6f33          	or	t5,t5,t6
   145fc:	0b12                	slli	s6,s6,0x4
   145fe:	01cbdb93          	srli	s7,s7,0x1c
   14602:	017b6b33          	or	s6,s6,s7
   14606:	01ecccb3          	xor	s9,s9,t5
   1460a:	016c4c33          	xor	s8,s8,s6
   1460e:	0136c6b3          	xor	a3,a3,s3
   14612:	01274733          	xor	a4,a4,s2
   14616:	0076c6b3          	xor	a3,a3,t2
   1461a:	00574733          	xor	a4,a4,t0
   1461e:	069ec913          	xori	s2,t4,105
   14622:	fff44a93          	not	s5,s0
   14626:	fff0ca13          	not	s4,ra
   1462a:	012afab3          	and	s5,s5,s2
   1462e:	00ca7a33          	and	s4,s4,a2
   14632:	019acab3          	xor	s5,s5,s9
   14636:	018a4a33          	xor	s4,s4,s8
   1463a:	fff3cf93          	not	t6,t2
   1463e:	fff2cf13          	not	t5,t0
   14642:	00dfffb3          	and	t6,t6,a3
   14646:	00ef7f33          	and	t5,t5,a4
   1464a:	012fcfb3          	xor	t6,t6,s2
   1464e:	00cf4f33          	xor	t5,t5,a2
   14652:	fffcc993          	not	s3,s9
   14656:	fffc4913          	not	s2,s8
   1465a:	0089f9b3          	and	s3,s3,s0
   1465e:	00197933          	and	s2,s2,ra
   14662:	00d9c9b3          	xor	s3,s3,a3
   14666:	00e94933          	xor	s2,s2,a4
   1466a:	f96ece93          	xori	t4,t4,-106
   1466e:	fff64613          	not	a2,a2
   14672:	007efeb3          	and	t4,t4,t2
   14676:	00567633          	and	a2,a2,t0
   1467a:	008eceb3          	xor	t4,t4,s0
   1467e:	00164633          	xor	a2,a2,ra
   14682:	015eceb3          	xor	t4,t4,s5
   14686:	01464633          	xor	a2,a2,s4
   1468a:	013acb33          	xor	s6,s5,s3
   1468e:	012a4bb3          	xor	s7,s4,s2
   14692:	fff6c693          	not	a3,a3
   14696:	fff74713          	not	a4,a4
   1469a:	0196f6b3          	and	a3,a3,s9
   1469e:	01877733          	and	a4,a4,s8
   146a2:	0076c6b3          	xor	a3,a3,t2
   146a6:	00574733          	xor	a4,a4,t0
   146aa:	01f6c6b3          	xor	a3,a3,t6
   146ae:	01e74733          	xor	a4,a4,t5
   146b2:	ffffcf93          	not	t6,t6
   146b6:	ffff4f13          	not	t5,t5
   146ba:	01ded093          	srli	ra,t4,0x1d
   146be:	00361293          	slli	t0,a2,0x3
   146c2:	0050e0b3          	or	ra,ra,t0
   146c6:	01d65413          	srli	s0,a2,0x1d
   146ca:	003e9293          	slli	t0,t4,0x3
   146ce:	00546433          	or	s0,s0,t0
   146d2:	007ed393          	srli	t2,t4,0x7
   146d6:	01961293          	slli	t0,a2,0x19
   146da:	0053e3b3          	or	t2,t2,t0
   146de:	00765293          	srli	t0,a2,0x7
   146e2:	019e9c13          	slli	s8,t4,0x19
   146e6:	0182e2b3          	or	t0,t0,s8
   146ea:	00544433          	xor	s0,s0,t0
   146ee:	0070c0b3          	xor	ra,ra,t2
   146f2:	01d44433          	xor	s0,s0,t4
   146f6:	00c0c0b3          	xor	ra,ra,a2
   146fa:	01671393          	slli	t2,a4,0x16
   146fe:	00a6d613          	srli	a2,a3,0xa
   14702:	00c3e3b3          	or	t2,t2,a2
   14706:	01669293          	slli	t0,a3,0x16
   1470a:	00a75613          	srli	a2,a4,0xa
   1470e:	00c2e2b3          	or	t0,t0,a2
   14712:	00f71e93          	slli	t4,a4,0xf
   14716:	0116d613          	srli	a2,a3,0x11
   1471a:	00ceeeb3          	or	t4,t4,a2
   1471e:	00f69613          	slli	a2,a3,0xf
   14722:	01175c13          	srli	s8,a4,0x11
   14726:	01866633          	or	a2,a2,s8
   1472a:	01d3c3b3          	xor	t2,t2,t4
   1472e:	00c2c2b3          	xor	t0,t0,a2
   14732:	00d3c3b3          	xor	t2,t2,a3
   14736:	00e2c2b3          	xor	t0,t0,a4
   1473a:	01991693          	slli	a3,s2,0x19
   1473e:	0079d713          	srli	a4,s3,0x7
   14742:	8ed9                	or	a3,a3,a4
   14744:	01999713          	slli	a4,s3,0x19
   14748:	00795613          	srli	a2,s2,0x7
   1474c:	8f51                	or	a4,a4,a2
   1474e:	0099de93          	srli	t4,s3,0x9
   14752:	01791613          	slli	a2,s2,0x17
   14756:	00ceeeb3          	or	t4,t4,a2
   1475a:	00995613          	srli	a2,s2,0x9
   1475e:	01799c13          	slli	s8,s3,0x17
   14762:	01866633          	or	a2,a2,s8
   14766:	8eb1                	xor	a3,a3,a2
   14768:	01d74733          	xor	a4,a4,t4
   1476c:	01ff1e93          	slli	t4,t5,0x1f
   14770:	001fd613          	srli	a2,t6,0x1
   14774:	00ceeeb3          	or	t4,t4,a2
   14778:	01ff9613          	slli	a2,t6,0x1f
   1477c:	001f5c13          	srli	s8,t5,0x1
   14780:	01866633          	or	a2,a2,s8
   14784:	01af1c93          	slli	s9,t5,0x1a
   14788:	006fdc13          	srli	s8,t6,0x6
   1478c:	018cecb3          	or	s9,s9,s8
   14790:	01af9d13          	slli	s10,t6,0x1a
   14794:	006f5c13          	srli	s8,t5,0x6
   14798:	018d6c33          	or	s8,s10,s8
   1479c:	019eceb3          	xor	t4,t4,s9
   147a0:	01864633          	xor	a2,a2,s8
   147a4:	01feceb3          	xor	t4,t4,t6
   147a8:	01e64633          	xor	a2,a2,t5
   147ac:	008eceb3          	xor	t4,t4,s0
   147b0:	00164633          	xor	a2,a2,ra
   147b4:	00db9c93          	slli	s9,s7,0xd
   147b8:	013b5f13          	srli	t5,s6,0x13
   147bc:	01ececb3          	or	s9,s9,t5
   147c0:	00db1c13          	slli	s8,s6,0xd
   147c4:	013bdf13          	srli	t5,s7,0x13
   147c8:	01ec6c33          	or	s8,s8,t5
   147cc:	0156cab3          	xor	s5,a3,s5
   147d0:	01474a33          	xor	s4,a4,s4
   147d4:	015cccb3          	xor	s9,s9,s5
   147d8:	014c4c33          	xor	s8,s8,s4
   147dc:	004b9f13          	slli	t5,s7,0x4
   147e0:	01cb5f93          	srli	t6,s6,0x1c
   147e4:	01ff6f33          	or	t5,t5,t6
   147e8:	0b12                	slli	s6,s6,0x4
   147ea:	01cbdb93          	srli	s7,s7,0x1c
   147ee:	017b6b33          	or	s6,s6,s7
   147f2:	01ecccb3          	xor	s9,s9,t5
   147f6:	016c4c33          	xor	s8,s8,s6
   147fa:	0136c6b3          	xor	a3,a3,s3
   147fe:	01274733          	xor	a4,a4,s2
   14802:	0076c6b3          	xor	a3,a3,t2
   14806:	00574733          	xor	a4,a4,t0
   1480a:	05aec913          	xori	s2,t4,90
   1480e:	fff44a93          	not	s5,s0
   14812:	fff0ca13          	not	s4,ra
   14816:	012afab3          	and	s5,s5,s2
   1481a:	00ca7a33          	and	s4,s4,a2
   1481e:	019acab3          	xor	s5,s5,s9
   14822:	018a4a33          	xor	s4,s4,s8
   14826:	fff3cf93          	not	t6,t2
   1482a:	fff2cf13          	not	t5,t0
   1482e:	00dfffb3          	and	t6,t6,a3
   14832:	00ef7f33          	and	t5,t5,a4
   14836:	012fcfb3          	xor	t6,t6,s2
   1483a:	00cf4f33          	xor	t5,t5,a2
   1483e:	fffcc993          	not	s3,s9
   14842:	fffc4913          	not	s2,s8
   14846:	0089f9b3          	and	s3,s3,s0
   1484a:	00197933          	and	s2,s2,ra
   1484e:	00d9c9b3          	xor	s3,s3,a3
   14852:	00e94933          	xor	s2,s2,a4
   14856:	fa5ece93          	xori	t4,t4,-91
   1485a:	fff64613          	not	a2,a2
   1485e:	007efeb3          	and	t4,t4,t2
   14862:	00567633          	and	a2,a2,t0
   14866:	008eceb3          	xor	t4,t4,s0
   1486a:	00164633          	xor	a2,a2,ra
   1486e:	015eceb3          	xor	t4,t4,s5
   14872:	01464633          	xor	a2,a2,s4
   14876:	013acb33          	xor	s6,s5,s3
   1487a:	012a4bb3          	xor	s7,s4,s2
   1487e:	fff6c693          	not	a3,a3
   14882:	fff74713          	not	a4,a4
   14886:	0196f6b3          	and	a3,a3,s9
   1488a:	01877733          	and	a4,a4,s8
   1488e:	0076c6b3          	xor	a3,a3,t2
   14892:	00574733          	xor	a4,a4,t0
   14896:	01f6c6b3          	xor	a3,a3,t6
   1489a:	01e74733          	xor	a4,a4,t5
   1489e:	ffffcf93          	not	t6,t6
   148a2:	ffff4f13          	not	t5,t5
   148a6:	01ded093          	srli	ra,t4,0x1d
   148aa:	00361293          	slli	t0,a2,0x3
   148ae:	0050e0b3          	or	ra,ra,t0
   148b2:	01d65413          	srli	s0,a2,0x1d
   148b6:	003e9293          	slli	t0,t4,0x3
   148ba:	00546433          	or	s0,s0,t0
   148be:	007ed393          	srli	t2,t4,0x7
   148c2:	01961293          	slli	t0,a2,0x19
   148c6:	0053e3b3          	or	t2,t2,t0
   148ca:	00765293          	srli	t0,a2,0x7
   148ce:	019e9c13          	slli	s8,t4,0x19
   148d2:	0182e2b3          	or	t0,t0,s8
   148d6:	00544433          	xor	s0,s0,t0
   148da:	0070c0b3          	xor	ra,ra,t2
   148de:	01d44433          	xor	s0,s0,t4
   148e2:	00c0c0b3          	xor	ra,ra,a2
   148e6:	01671393          	slli	t2,a4,0x16
   148ea:	00a6d613          	srli	a2,a3,0xa
   148ee:	00c3e3b3          	or	t2,t2,a2
   148f2:	01669293          	slli	t0,a3,0x16
   148f6:	00a75613          	srli	a2,a4,0xa
   148fa:	00c2e2b3          	or	t0,t0,a2
   148fe:	00f71e93          	slli	t4,a4,0xf
   14902:	0116d613          	srli	a2,a3,0x11
   14906:	00ceeeb3          	or	t4,t4,a2
   1490a:	00f69613          	slli	a2,a3,0xf
   1490e:	01175c13          	srli	s8,a4,0x11
   14912:	01866633          	or	a2,a2,s8
   14916:	01d3c3b3          	xor	t2,t2,t4
   1491a:	00c2c2b3          	xor	t0,t0,a2
   1491e:	00d3c3b3          	xor	t2,t2,a3
   14922:	00e2c2b3          	xor	t0,t0,a4
   14926:	01991693          	slli	a3,s2,0x19
   1492a:	0079d713          	srli	a4,s3,0x7
   1492e:	8ed9                	or	a3,a3,a4
   14930:	01999713          	slli	a4,s3,0x19
   14934:	00795613          	srli	a2,s2,0x7
   14938:	8f51                	or	a4,a4,a2
   1493a:	0099de93          	srli	t4,s3,0x9
   1493e:	01791613          	slli	a2,s2,0x17
   14942:	00ceeeb3          	or	t4,t4,a2
   14946:	00995613          	srli	a2,s2,0x9
   1494a:	01799c13          	slli	s8,s3,0x17
   1494e:	01866633          	or	a2,a2,s8
   14952:	8eb1                	xor	a3,a3,a2
   14954:	01d74733          	xor	a4,a4,t4
   14958:	01ff1e93          	slli	t4,t5,0x1f
   1495c:	001fd613          	srli	a2,t6,0x1
   14960:	00ceeeb3          	or	t4,t4,a2
   14964:	01ff9613          	slli	a2,t6,0x1f
   14968:	001f5c13          	srli	s8,t5,0x1
   1496c:	01866633          	or	a2,a2,s8
   14970:	01af1c93          	slli	s9,t5,0x1a
   14974:	006fdc13          	srli	s8,t6,0x6
   14978:	018cecb3          	or	s9,s9,s8
   1497c:	01af9d13          	slli	s10,t6,0x1a
   14980:	006f5c13          	srli	s8,t5,0x6
   14984:	018d6c33          	or	s8,s10,s8
   14988:	019eceb3          	xor	t4,t4,s9
   1498c:	01864633          	xor	a2,a2,s8
   14990:	01feceb3          	xor	t4,t4,t6
   14994:	01e64633          	xor	a2,a2,t5
   14998:	008eceb3          	xor	t4,t4,s0
   1499c:	00164633          	xor	a2,a2,ra
   149a0:	00db9f93          	slli	t6,s7,0xd
   149a4:	013b5f13          	srli	t5,s6,0x13
   149a8:	01efefb3          	or	t6,t6,t5
   149ac:	00db1f13          	slli	t5,s6,0xd
   149b0:	013bdc13          	srli	s8,s7,0x13
   149b4:	018f6f33          	or	t5,t5,s8
   149b8:	0156cab3          	xor	s5,a3,s5
   149bc:	01474a33          	xor	s4,a4,s4
   149c0:	015fcab3          	xor	s5,t6,s5
   149c4:	014f4a33          	xor	s4,t5,s4
   149c8:	004b9f13          	slli	t5,s7,0x4
   149cc:	01cb5f93          	srli	t6,s6,0x1c
   149d0:	01ff6f33          	or	t5,t5,t6
   149d4:	0b12                	slli	s6,s6,0x4
   149d6:	01cbdb93          	srli	s7,s7,0x1c
   149da:	017b6b33          	or	s6,s6,s7
   149de:	01eacab3          	xor	s5,s5,t5
   149e2:	016a4a33          	xor	s4,s4,s6
   149e6:	0136c6b3          	xor	a3,a3,s3
   149ea:	01274733          	xor	a4,a4,s2
   149ee:	0076c6b3          	xor	a3,a3,t2
   149f2:	00574733          	xor	a4,a4,t0
   149f6:	04becf13          	xori	t5,t4,75
   149fa:	fff44b93          	not	s7,s0
   149fe:	fff0cb13          	not	s6,ra
   14a02:	01ebfbb3          	and	s7,s7,t5
   14a06:	00cb7b33          	and	s6,s6,a2
   14a0a:	015bcbb3          	xor	s7,s7,s5
   14a0e:	014b4b33          	xor	s6,s6,s4
   14a12:	fff3c993          	not	s3,t2
   14a16:	fff2c913          	not	s2,t0
   14a1a:	00d9f9b3          	and	s3,s3,a3
   14a1e:	00e97933          	and	s2,s2,a4
   14a22:	01e9c9b3          	xor	s3,s3,t5
   14a26:	00c94933          	xor	s2,s2,a2
   14a2a:	fffacf93          	not	t6,s5
   14a2e:	fffa4f13          	not	t5,s4
   14a32:	008fffb3          	and	t6,t6,s0
   14a36:	001f7f33          	and	t5,t5,ra
   14a3a:	00dfcfb3          	xor	t6,t6,a3
   14a3e:	00ef4f33          	xor	t5,t5,a4
   14a42:	fb4ece93          	xori	t4,t4,-76
   14a46:	fff64613          	not	a2,a2
   14a4a:	007efeb3          	and	t4,t4,t2
   14a4e:	00567633          	and	a2,a2,t0
   14a52:	008ec433          	xor	s0,t4,s0
   14a56:	001640b3          	xor	ra,a2,ra
   14a5a:	01744433          	xor	s0,s0,s7
   14a5e:	0160c0b3          	xor	ra,ra,s6
   14a62:	01fbcbb3          	xor	s7,s7,t6
   14a66:	01eb4b33          	xor	s6,s6,t5
   14a6a:	fff6ce93          	not	t4,a3
   14a6e:	fff74693          	not	a3,a4
   14a72:	015efeb3          	and	t4,t4,s5
   14a76:	0146f6b3          	and	a3,a3,s4
   14a7a:	007eceb3          	xor	t4,t4,t2
   14a7e:	0056c6b3          	xor	a3,a3,t0
   14a82:	013eceb3          	xor	t4,t4,s3
   14a86:	0126c6b3          	xor	a3,a3,s2
   14a8a:	fff9c993          	not	s3,s3
   14a8e:	fff94913          	not	s2,s2
   14a92:	00db1a93          	slli	s5,s6,0xd
   14a96:	013bd713          	srli	a4,s7,0x13
   14a9a:	00eaeab3          	or	s5,s5,a4
   14a9e:	00db9613          	slli	a2,s7,0xd
   14aa2:	013b5713          	srli	a4,s6,0x13
   14aa6:	8e59                	or	a2,a2,a4
   14aa8:	004b1293          	slli	t0,s6,0x4
   14aac:	01cbd713          	srli	a4,s7,0x1c
   14ab0:	00e2e2b3          	or	t0,t0,a4
   14ab4:	004b9713          	slli	a4,s7,0x4
   14ab8:	01cb5393          	srli	t2,s6,0x1c
   14abc:	00776733          	or	a4,a4,t2
   14ac0:	005acab3          	xor	s5,s5,t0
   14ac4:	8e39                	xor	a2,a2,a4
   14ac6:	017acab3          	xor	s5,s5,s7
   14aca:	01664633          	xor	a2,a2,s6
   14ace:	01d45713          	srli	a4,s0,0x1d
   14ad2:	00309293          	slli	t0,ra,0x3
   14ad6:	00576733          	or	a4,a4,t0
   14ada:	01d0db93          	srli	s7,ra,0x1d
   14ade:	00341293          	slli	t0,s0,0x3
   14ae2:	005bebb3          	or	s7,s7,t0
   14ae6:	00745293          	srli	t0,s0,0x7
   14aea:	01909393          	slli	t2,ra,0x19
   14aee:	0072e2b3          	or	t0,t0,t2
   14af2:	0070d393          	srli	t2,ra,0x7
   14af6:	01941a13          	slli	s4,s0,0x19
   14afa:	0143e3b3          	or	t2,t2,s4
   14afe:	007bcbb3          	xor	s7,s7,t2
   14b02:	00574733          	xor	a4,a4,t0
   14b06:	008bcbb3          	xor	s7,s7,s0
   14b0a:	00174733          	xor	a4,a4,ra
   14b0e:	01f91093          	slli	ra,s2,0x1f
   14b12:	0019d293          	srli	t0,s3,0x1
   14b16:	0050e0b3          	or	ra,ra,t0
   14b1a:	01f99d13          	slli	s10,s3,0x1f
   14b1e:	00195293          	srli	t0,s2,0x1
   14b22:	005d6d33          	or	s10,s10,t0
   14b26:	01a91393          	slli	t2,s2,0x1a
   14b2a:	0069d293          	srli	t0,s3,0x6
   14b2e:	0053e3b3          	or	t2,t2,t0
   14b32:	01a99293          	slli	t0,s3,0x1a
   14b36:	00695413          	srli	s0,s2,0x6
   14b3a:	0082e2b3          	or	t0,t0,s0
   14b3e:	0070c0b3          	xor	ra,ra,t2
   14b42:	005d4d33          	xor	s10,s10,t0
   14b46:	0130c0b3          	xor	ra,ra,s3
   14b4a:	012d4d33          	xor	s10,s10,s2
   14b4e:	01669993          	slli	s3,a3,0x16
   14b52:	00aed293          	srli	t0,t4,0xa
   14b56:	0059e9b3          	or	s3,s3,t0
   14b5a:	016e9913          	slli	s2,t4,0x16
   14b5e:	00a6d293          	srli	t0,a3,0xa
   14b62:	00596933          	or	s2,s2,t0
   14b66:	00f69393          	slli	t2,a3,0xf
   14b6a:	011ed293          	srli	t0,t4,0x11
   14b6e:	0053e3b3          	or	t2,t2,t0
   14b72:	00fe9293          	slli	t0,t4,0xf
   14b76:	0116d413          	srli	s0,a3,0x11
   14b7a:	0082e2b3          	or	t0,t0,s0
   14b7e:	0079c9b3          	xor	s3,s3,t2
   14b82:	00594933          	xor	s2,s2,t0
   14b86:	01d9c9b3          	xor	s3,s3,t4
   14b8a:	00d94933          	xor	s2,s2,a3
   14b8e:	019f1c93          	slli	s9,t5,0x19
   14b92:	007fd693          	srli	a3,t6,0x7
   14b96:	00dcecb3          	or	s9,s9,a3
   14b9a:	019f9c13          	slli	s8,t6,0x19
   14b9e:	007f5693          	srli	a3,t5,0x7
   14ba2:	00dc6c33          	or	s8,s8,a3
   14ba6:	009fd693          	srli	a3,t6,0x9
   14baa:	017f1e93          	slli	t4,t5,0x17
   14bae:	01d6e6b3          	or	a3,a3,t4
   14bb2:	009f5e93          	srli	t4,t5,0x9
   14bb6:	017f9293          	slli	t0,t6,0x17
   14bba:	005eeeb3          	or	t4,t4,t0
   14bbe:	01dcccb3          	xor	s9,s9,t4
   14bc2:	00dc4c33          	xor	s8,s8,a3
   14bc6:	01fcccb3          	xor	s9,s9,t6
   14bca:	01ec4c33          	xor	s8,s8,t5
   14bce:	0341                	addi	t1,t1,16 # 10150 <print_hex+0x6>
   14bd0:	08c1                	addi	a7,a7,16
   14bd2:	ff0e0693          	addi	a3,t3,-16
   14bd6:	01c6beb3          	sltu	t4,a3,t3
   14bda:	187d                	addi	a6,a6,-1
   14bdc:	8e36                	mv	t3,a3
   14bde:	9876                	add	a6,a6,t4
   14be0:	00080a63          	beqz	a6,14bf4 <crypto_aead_encrypt+0x23f8>
   14be4:	8f1a                	mv	t5,t1
   14be6:	839a                	mv	t2,t1
   14be8:	03800293          	li	t0,56
   14bec:	8a2e                	mv	s4,a1
   14bee:	842e                	mv	s0,a1
   14bf0:	fabfe06f          	j	13b9a <crypto_aead_encrypt+0x139e>
   14bf4:	00081563          	bnez	a6,14bfe <crypto_aead_encrypt+0x2402>
   14bf8:	46bd                	li	a3,15
   14bfa:	ffc6e5e3          	bltu	a3,t3,14be4 <crypto_aead_encrypt+0x23e8>
   14bfe:	4b42                	lw	s6,16(sp)
   14c00:	4692                	lw	a3,4(sp)
   14c02:	ff068793          	addi	a5,a3,-16
   14c06:	9bc1                	andi	a5,a5,-16
   14c08:	07c1                	addi	a5,a5,16
   14c0a:	45b2                	lw	a1,12(sp)
   14c0c:	95be                	add	a1,a1,a5
   14c0e:	c62e                	sw	a1,12(sp)
   14c10:	45a2                	lw	a1,8(sp)
   14c12:	97ae                	add	a5,a5,a1
   14c14:	c43e                	sw	a5,8(sp)
   14c16:	00f6f793          	andi	a5,a3,15
   14c1a:	c23e                	sw	a5,4(sp)
   14c1c:	c802                	sw	zero,16(sp)
   14c1e:	d456                	sw	s5,40(sp)
   14c20:	d632                	sw	a2,44(sp)
   14c22:	d85e                	sw	s7,48(sp)
   14c24:	da3a                	sw	a4,52(sp)
   14c26:	dc06                	sw	ra,56(sp)
   14c28:	de6a                	sw	s10,60(sp)
   14c2a:	c0ce                	sw	s3,64(sp)
   14c2c:	c2ca                	sw	s2,68(sp)
   14c2e:	c4e6                	sw	s9,72(sp)
   14c30:	c6e2                	sw	s8,76(sp)
   14c32:	47c2                	lw	a5,16(sp)
   14c34:	e799                	bnez	a5,14c42 <crypto_aead_encrypt+0x2446>
   14c36:	1c079963          	bnez	a5,14e08 <crypto_aead_encrypt+0x260c>
   14c3a:	479d                	li	a5,7
   14c3c:	4712                	lw	a4,4(sp)
   14c3e:	1ce7f563          	bgeu	a5,a4,14e08 <crypto_aead_encrypt+0x260c>
   14c42:	4632                	lw	a2,12(sp)
   14c44:	88b2                	mv	a7,a2
   14c46:	03800693          	li	a3,56
   14c4a:	4501                	li	a0,0
   14c4c:	4581                	li	a1,0
   14c4e:	4efd                	li	t4,31
   14c50:	4e01                	li	t3,0
   14c52:	5861                	li	a6,-8
   14c54:	a00d                	j	14c76 <crypto_aead_encrypt+0x247a>
   14c56:	00175793          	srli	a5,a4,0x1
   14c5a:	40de8333          	sub	t1,t4,a3
   14c5e:	0067d7b3          	srl	a5,a5,t1
   14c62:	00d71733          	sll	a4,a4,a3
   14c66:	8f49                	or	a4,a4,a0
   14c68:	8fcd                	or	a5,a5,a1
   14c6a:	853a                	mv	a0,a4
   14c6c:	85be                	mv	a1,a5
   14c6e:	0605                	addi	a2,a2,1
   14c70:	16e1                	addi	a3,a3,-8
   14c72:	01068c63          	beq	a3,a6,14c8a <crypto_aead_encrypt+0x248e>
   14c76:	00064703          	lbu	a4,0(a2)
   14c7a:	fe068793          	addi	a5,a3,-32
   14c7e:	fc07cce3          	bltz	a5,14c56 <crypto_aead_encrypt+0x245a>
   14c82:	00f717b3          	sll	a5,a4,a5
   14c86:	8772                	mv	a4,t3
   14c88:	bff9                	j	14c66 <crypto_aead_encrypt+0x246a>
   14c8a:	5e22                	lw	t3,40(sp)
   14c8c:	00ee4e33          	xor	t3,t3,a4
   14c90:	5332                	lw	t1,44(sp)
   14c92:	00f34333          	xor	t1,t1,a5
   14c96:	d472                	sw	t3,40(sp)
   14c98:	d61a                	sw	t1,44(sp)
   14c9a:	4792                	lw	a5,4(sp)
   14c9c:	883e                	mv	a6,a5
   14c9e:	ff878e93          	addi	t4,a5,-8
   14ca2:	05d05563          	blez	t4,14cec <crypto_aead_encrypt+0x24f0>
   14ca6:	4732                	lw	a4,12(sp)
   14ca8:	00870693          	addi	a3,a4,8
   14cac:	98be                	add	a7,a7,a5
   14cae:	03800613          	li	a2,56
   14cb2:	4501                	li	a0,0
   14cb4:	4581                	li	a1,0
   14cb6:	42fd                	li	t0,31
   14cb8:	4f81                	li	t6,0
   14cba:	a839                	j	14cd8 <crypto_aead_encrypt+0x24dc>
   14cbc:	00175793          	srli	a5,a4,0x1
   14cc0:	40c28f33          	sub	t5,t0,a2
   14cc4:	01e7d7b3          	srl	a5,a5,t5
   14cc8:	00c71733          	sll	a4,a4,a2
   14ccc:	8d59                	or	a0,a0,a4
   14cce:	8ddd                	or	a1,a1,a5
   14cd0:	0685                	addi	a3,a3,1
   14cd2:	1661                	addi	a2,a2,-8
   14cd4:	01168e63          	beq	a3,a7,14cf0 <crypto_aead_encrypt+0x24f4>
   14cd8:	0006c703          	lbu	a4,0(a3)
   14cdc:	fe060793          	addi	a5,a2,-32
   14ce0:	fc07cee3          	bltz	a5,14cbc <crypto_aead_encrypt+0x24c0>
   14ce4:	00f717b3          	sll	a5,a4,a5
   14ce8:	877e                	mv	a4,t6
   14cea:	b7cd                	j	14ccc <crypto_aead_encrypt+0x24d0>
   14cec:	4501                	li	a0,0
   14cee:	4581                	li	a1,0
   14cf0:	58c2                	lw	a7,48(sp)
   14cf2:	00a8c8b3          	xor	a7,a7,a0
   14cf6:	5552                	lw	a0,52(sp)
   14cf8:	8d2d                	xor	a0,a0,a1
   14cfa:	46a2                	lw	a3,8(sp)
   14cfc:	8636                	mv	a2,a3
   14cfe:	03800713          	li	a4,56
   14d02:	00131f93          	slli	t6,t1,0x1
   14d06:	4f7d                	li	t5,31
   14d08:	55e1                	li	a1,-8
   14d0a:	a839                	j	14d28 <crypto_aead_encrypt+0x252c>
   14d0c:	40ef02b3          	sub	t0,t5,a4
   14d10:	005f92b3          	sll	t0,t6,t0
   14d14:	00ee57b3          	srl	a5,t3,a4
   14d18:	00f2e7b3          	or	a5,t0,a5
   14d1c:	00f68023          	sb	a5,0(a3)
   14d20:	1761                	addi	a4,a4,-8
   14d22:	0685                	addi	a3,a3,1
   14d24:	00b70963          	beq	a4,a1,14d36 <crypto_aead_encrypt+0x253a>
   14d28:	fe070793          	addi	a5,a4,-32
   14d2c:	fe07c0e3          	bltz	a5,14d0c <crypto_aead_encrypt+0x2510>
   14d30:	00f357b3          	srl	a5,t1,a5
   14d34:	b7e5                	j	14d1c <crypto_aead_encrypt+0x2520>
   14d36:	05d05163          	blez	t4,14d78 <crypto_aead_encrypt+0x257c>
   14d3a:	47a2                	lw	a5,8(sp)
   14d3c:	00878713          	addi	a4,a5,8
   14d40:	00c805b3          	add	a1,a6,a2
   14d44:	03800693          	li	a3,56
   14d48:	00151313          	slli	t1,a0,0x1
   14d4c:	487d                	li	a6,31
   14d4e:	a831                	j	14d6a <crypto_aead_encrypt+0x256e>
   14d50:	40d80633          	sub	a2,a6,a3
   14d54:	00c31633          	sll	a2,t1,a2
   14d58:	00d8d7b3          	srl	a5,a7,a3
   14d5c:	8fd1                	or	a5,a5,a2
   14d5e:	00f70023          	sb	a5,0(a4)
   14d62:	16e1                	addi	a3,a3,-8
   14d64:	0705                	addi	a4,a4,1
   14d66:	00b70963          	beq	a4,a1,14d78 <crypto_aead_encrypt+0x257c>
   14d6a:	fe068793          	addi	a5,a3,-32
   14d6e:	fe07c1e3          	bltz	a5,14d50 <crypto_aead_encrypt+0x2554>
   14d72:	00f557b3          	srl	a5,a0,a5
   14d76:	b7e5                	j	14d5e <crypto_aead_encrypt+0x2562>
   14d78:	47bd                	li	a5,15
   14d7a:	4712                	lw	a4,4(sp)
   14d7c:	8f99                	sub	a5,a5,a4
   14d7e:	078e                	slli	a5,a5,0x3
   14d80:	fe078713          	addi	a4,a5,-32
   14d84:	06074763          	bltz	a4,14df2 <crypto_aead_encrypt+0x25f6>
   14d88:	08000793          	li	a5,128
   14d8c:	00e79733          	sll	a4,a5,a4
   14d90:	4781                	li	a5,0
   14d92:	0117c7b3          	xor	a5,a5,a7
   14d96:	d83e                	sw	a5,48(sp)
   14d98:	00a747b3          	xor	a5,a4,a0
   14d9c:	da3e                	sw	a5,52(sp)
   14d9e:	47a2                	lw	a5,8(sp)
   14da0:	4712                	lw	a4,4(sp)
   14da2:	00e78a33          	add	s4,a5,a4
   14da6:	5762                	lw	a4,56(sp)
   14da8:	01674733          	xor	a4,a4,s6
   14dac:	57f2                	lw	a5,60(sp)
   14dae:	01b7c7b3          	xor	a5,a5,s11
   14db2:	dc3a                	sw	a4,56(sp)
   14db4:	de3e                	sw	a5,60(sp)
   14db6:	4706                	lw	a4,64(sp)
   14db8:	8f25                	xor	a4,a4,s1
   14dba:	4796                	lw	a5,68(sp)
   14dbc:	4452                	lw	s0,20(sp)
   14dbe:	8fa1                	xor	a5,a5,s0
   14dc0:	c0ba                	sw	a4,64(sp)
   14dc2:	c2be                	sw	a5,68(sp)
   14dc4:	1028                	addi	a0,sp,40
   14dc6:	c04fc0ef          	jal	111ca <P12>
   14dca:	4306                	lw	t1,64(sp)
   14dcc:	01634333          	xor	t1,t1,s6
   14dd0:	4516                	lw	a0,68(sp)
   14dd2:	01b54533          	xor	a0,a0,s11
   14dd6:	48a6                	lw	a7,72(sp)
   14dd8:	0098c8b3          	xor	a7,a7,s1
   14ddc:	4836                	lw	a6,76(sp)
   14dde:	00884833          	xor	a6,a6,s0
   14de2:	86d2                	mv	a3,s4
   14de4:	03800713          	li	a4,56
   14de8:	00151e93          	slli	t4,a0,0x1
   14dec:	4e7d                	li	t3,31
   14dee:	55e1                	li	a1,-8
   14df0:	a0c5                	j	14ed0 <crypto_aead_encrypt+0x26d4>
   14df2:	46fd                	li	a3,31
   14df4:	8e9d                	sub	a3,a3,a5
   14df6:	04000713          	li	a4,64
   14dfa:	00d75733          	srl	a4,a4,a3
   14dfe:	08000693          	li	a3,128
   14e02:	00f697b3          	sll	a5,a3,a5
   14e06:	b771                	j	14d92 <crypto_aead_encrypt+0x2596>
   14e08:	4792                	lw	a5,4(sp)
   14e0a:	10f05763          	blez	a5,14f18 <crypto_aead_encrypt+0x271c>
   14e0e:	4732                	lw	a4,12(sp)
   14e10:	86ba                	mv	a3,a4
   14e12:	883e                	mv	a6,a5
   14e14:	00f708b3          	add	a7,a4,a5
   14e18:	03800613          	li	a2,56
   14e1c:	4501                	li	a0,0
   14e1e:	4581                	li	a1,0
   14e20:	4efd                	li	t4,31
   14e22:	4e01                	li	t3,0
   14e24:	a00d                	j	14e46 <crypto_aead_encrypt+0x264a>
   14e26:	00175793          	srli	a5,a4,0x1
   14e2a:	40ce8333          	sub	t1,t4,a2
   14e2e:	0067d7b3          	srl	a5,a5,t1
   14e32:	00c71733          	sll	a4,a4,a2
   14e36:	8f49                	or	a4,a4,a0
   14e38:	8fcd                	or	a5,a5,a1
   14e3a:	853a                	mv	a0,a4
   14e3c:	85be                	mv	a1,a5
   14e3e:	0685                	addi	a3,a3,1
   14e40:	1661                	addi	a2,a2,-8
   14e42:	01168c63          	beq	a3,a7,14e5a <crypto_aead_encrypt+0x265e>
   14e46:	0006c703          	lbu	a4,0(a3)
   14e4a:	fe060793          	addi	a5,a2,-32
   14e4e:	fc07cce3          	bltz	a5,14e26 <crypto_aead_encrypt+0x262a>
   14e52:	00f717b3          	sll	a5,a4,a5
   14e56:	8772                	mv	a4,t3
   14e58:	bff9                	j	14e36 <crypto_aead_encrypt+0x263a>
   14e5a:	58a2                	lw	a7,40(sp)
   14e5c:	00e8c8b3          	xor	a7,a7,a4
   14e60:	5532                	lw	a0,44(sp)
   14e62:	8d3d                	xor	a0,a0,a5
   14e64:	47a2                	lw	a5,8(sp)
   14e66:	873e                	mv	a4,a5
   14e68:	010785b3          	add	a1,a5,a6
   14e6c:	03800693          	li	a3,56
   14e70:	00151313          	slli	t1,a0,0x1
   14e74:	487d                	li	a6,31
   14e76:	a831                	j	14e92 <crypto_aead_encrypt+0x2696>
   14e78:	40d80633          	sub	a2,a6,a3
   14e7c:	00c31633          	sll	a2,t1,a2
   14e80:	00d8d7b3          	srl	a5,a7,a3
   14e84:	8fd1                	or	a5,a5,a2
   14e86:	00f70023          	sb	a5,0(a4)
   14e8a:	16e1                	addi	a3,a3,-8
   14e8c:	0705                	addi	a4,a4,1
   14e8e:	08b70763          	beq	a4,a1,14f1c <crypto_aead_encrypt+0x2720>
   14e92:	fe068793          	addi	a5,a3,-32
   14e96:	fe07c1e3          	bltz	a5,14e78 <crypto_aead_encrypt+0x267c>
   14e9a:	00f557b3          	srl	a5,a0,a5
   14e9e:	b7e5                	j	14e86 <crypto_aead_encrypt+0x268a>
   14ea0:	46fd                	li	a3,31
   14ea2:	8e9d                	sub	a3,a3,a5
   14ea4:	04000713          	li	a4,64
   14ea8:	00d75733          	srl	a4,a4,a3
   14eac:	08000693          	li	a3,128
   14eb0:	00f697b3          	sll	a5,a3,a5
   14eb4:	a049                	j	14f36 <crypto_aead_encrypt+0x273a>
   14eb6:	40ee0633          	sub	a2,t3,a4
   14eba:	00ce9633          	sll	a2,t4,a2
   14ebe:	00e357b3          	srl	a5,t1,a4
   14ec2:	8fd1                	or	a5,a5,a2
   14ec4:	00f68023          	sb	a5,0(a3)
   14ec8:	1761                	addi	a4,a4,-8
   14eca:	0685                	addi	a3,a3,1
   14ecc:	00b70963          	beq	a4,a1,14ede <crypto_aead_encrypt+0x26e2>
   14ed0:	fe070793          	addi	a5,a4,-32
   14ed4:	fe07c1e3          	bltz	a5,14eb6 <crypto_aead_encrypt+0x26ba>
   14ed8:	00f557b3          	srl	a5,a0,a5
   14edc:	b7e5                	j	14ec4 <crypto_aead_encrypt+0x26c8>
   14ede:	008a0693          	addi	a3,s4,8
   14ee2:	03800713          	li	a4,56
   14ee6:	00181313          	slli	t1,a6,0x1
   14eea:	457d                	li	a0,31
   14eec:	55e1                	li	a1,-8
   14eee:	a831                	j	14f0a <crypto_aead_encrypt+0x270e>
   14ef0:	40e50633          	sub	a2,a0,a4
   14ef4:	00c31633          	sll	a2,t1,a2
   14ef8:	00e8d7b3          	srl	a5,a7,a4
   14efc:	8fd1                	or	a5,a5,a2
   14efe:	00f68023          	sb	a5,0(a3)
   14f02:	1761                	addi	a4,a4,-8
   14f04:	0685                	addi	a3,a3,1
   14f06:	02b70f63          	beq	a4,a1,14f44 <crypto_aead_encrypt+0x2748>
   14f0a:	fe070793          	addi	a5,a4,-32
   14f0e:	fe07c1e3          	bltz	a5,14ef0 <crypto_aead_encrypt+0x26f4>
   14f12:	00f857b3          	srl	a5,a6,a5
   14f16:	b7e5                	j	14efe <crypto_aead_encrypt+0x2702>
   14f18:	58a2                	lw	a7,40(sp)
   14f1a:	5532                	lw	a0,44(sp)
   14f1c:	479d                	li	a5,7
   14f1e:	4712                	lw	a4,4(sp)
   14f20:	8f99                	sub	a5,a5,a4
   14f22:	078e                	slli	a5,a5,0x3
   14f24:	fe078713          	addi	a4,a5,-32
   14f28:	f6074ce3          	bltz	a4,14ea0 <crypto_aead_encrypt+0x26a4>
   14f2c:	08000793          	li	a5,128
   14f30:	00e79733          	sll	a4,a5,a4
   14f34:	4781                	li	a5,0
   14f36:	0117c7b3          	xor	a5,a5,a7
   14f3a:	d43e                	sw	a5,40(sp)
   14f3c:	00a747b3          	xor	a5,a4,a0
   14f40:	d63e                	sw	a5,44(sp)
   14f42:	bdb1                	j	14d9e <crypto_aead_encrypt+0x25a2>
   14f44:	4501                	li	a0,0
   14f46:	40ba                	lw	ra,140(sp)
   14f48:	442a                	lw	s0,136(sp)
   14f4a:	449a                	lw	s1,132(sp)
   14f4c:	490a                	lw	s2,128(sp)
   14f4e:	59f6                	lw	s3,124(sp)
   14f50:	5a66                	lw	s4,120(sp)
   14f52:	5ad6                	lw	s5,116(sp)
   14f54:	5b46                	lw	s6,112(sp)
   14f56:	5bb6                	lw	s7,108(sp)
   14f58:	5c26                	lw	s8,104(sp)
   14f5a:	5c96                	lw	s9,100(sp)
   14f5c:	5d06                	lw	s10,96(sp)
   14f5e:	4df6                	lw	s11,92(sp)
   14f60:	6149                	addi	sp,sp,144
   14f62:	8082                	ret

00014f64 <crypto_aead_decrypt>:
   14f64:	7131                	addi	sp,sp,-192
   14f66:	d706                	sw	ra,172(sp)
   14f68:	cf4e                	sw	s3,156(sp)
   14f6a:	c16a                	sw	s10,128(sp)
   14f6c:	cc2a                	sw	a0,24(sp)
   14f6e:	ca36                	sw	a3,20(sp)
   14f70:	d03a                	sw	a4,32(sp)
   14f72:	873e                	mv	a4,a5
   14f74:	d23e                	sw	a5,36(sp)
   14f76:	ce42                	sw	a6,28(sp)
   14f78:	df46                	sw	a7,188(sp)
   14f7a:	8d46                	mv	s10,a7
   14f7c:	498e                	lw	s3,192(sp)
   14f7e:	451e                	lw	a0,196(sp)
   14f80:	47ae                	lw	a5,200(sp)
   14f82:	c321                	beqz	a4,14fc2 <crypto_aead_decrypt+0x5e>
   14f84:	d522                	sw	s0,168(sp)
   14f86:	d326                	sw	s1,164(sp)
   14f88:	d14a                	sw	s2,160(sp)
   14f8a:	cd52                	sw	s4,152(sp)
   14f8c:	cb56                	sw	s5,148(sp)
   14f8e:	c95a                	sw	s6,144(sp)
   14f90:	c75e                	sw	s7,140(sp)
   14f92:	c562                	sw	s8,136(sp)
   14f94:	c366                	sw	s9,132(sp)
   14f96:	deee                	sw	s11,124(sp)
   14f98:	5702                	lw	a4,32(sp)
   14f9a:	ff070693          	addi	a3,a4,-16
   14f9e:	00e6b733          	sltu	a4,a3,a4
   14fa2:	5612                	lw	a2,36(sp)
   14fa4:	167d                	addi	a2,a2,-1
   14fa6:	9732                	add	a4,a4,a2
   14fa8:	8436                	mv	s0,a3
   14faa:	893a                	mv	s2,a4
   14fac:	c194                	sw	a3,0(a1)
   14fae:	c1d8                	sw	a4,4(a1)
   14fb0:	863e                	mv	a2,a5
   14fb2:	03800713          	li	a4,56
   14fb6:	4801                	li	a6,0
   14fb8:	4581                	li	a1,0
   14fba:	4efd                	li	t4,31
   14fbc:	4e01                	li	t3,0
   14fbe:	58e1                	li	a7,-8
   14fc0:	a81d                	j	14ff6 <crypto_aead_decrypt+0x92>
   14fc2:	e709                	bnez	a4,14fcc <crypto_aead_decrypt+0x68>
   14fc4:	473d                	li	a4,15
   14fc6:	5682                	lw	a3,32(sp)
   14fc8:	fad76ee3          	bltu	a4,a3,14f84 <crypto_aead_decrypt+0x20>
   14fcc:	557d                	li	a0,-1
   14fce:	7a60206f          	j	17774 <crypto_aead_decrypt+0x2810>
   14fd2:	00135a13          	srli	s4,t1,0x1
   14fd6:	40ee86b3          	sub	a3,t4,a4
   14fda:	00da5a33          	srl	s4,s4,a3
   14fde:	00e31333          	sll	t1,t1,a4
   14fe2:	00686333          	or	t1,a6,t1
   14fe6:	0145ea33          	or	s4,a1,s4
   14fea:	881a                	mv	a6,t1
   14fec:	85d2                	mv	a1,s4
   14fee:	0605                	addi	a2,a2,1
   14ff0:	1761                	addi	a4,a4,-8
   14ff2:	01170c63          	beq	a4,a7,1500a <crypto_aead_decrypt+0xa6>
   14ff6:	00064303          	lbu	t1,0(a2)
   14ffa:	fe070693          	addi	a3,a4,-32
   14ffe:	fc06cae3          	bltz	a3,14fd2 <crypto_aead_decrypt+0x6e>
   15002:	00d31a33          	sll	s4,t1,a3
   15006:	8372                	mv	t1,t3
   15008:	bfe9                	j	14fe2 <crypto_aead_decrypt+0x7e>
   1500a:	d41a                	sw	t1,40(sp)
   1500c:	00878693          	addi	a3,a5,8
   15010:	03800793          	li	a5,56
   15014:	4581                	li	a1,0
   15016:	4601                	li	a2,0
   15018:	4e7d                	li	t3,31
   1501a:	4301                	li	t1,0
   1501c:	5861                	li	a6,-8
   1501e:	a015                	j	15042 <crypto_aead_decrypt+0xde>
   15020:	0018d493          	srli	s1,a7,0x1
   15024:	40fe0733          	sub	a4,t3,a5
   15028:	00e4d4b3          	srl	s1,s1,a4
   1502c:	00f89cb3          	sll	s9,a7,a5
   15030:	0195ecb3          	or	s9,a1,s9
   15034:	8cd1                	or	s1,s1,a2
   15036:	85e6                	mv	a1,s9
   15038:	8626                	mv	a2,s1
   1503a:	0685                	addi	a3,a3,1
   1503c:	17e1                	addi	a5,a5,-8
   1503e:	01078c63          	beq	a5,a6,15056 <crypto_aead_decrypt+0xf2>
   15042:	0006c883          	lbu	a7,0(a3)
   15046:	fe078713          	addi	a4,a5,-32
   1504a:	fc074be3          	bltz	a4,15020 <crypto_aead_decrypt+0xbc>
   1504e:	00e894b3          	sll	s1,a7,a4
   15052:	8c9a                	mv	s9,t1
   15054:	bff1                	j	15030 <crypto_aead_decrypt+0xcc>
   15056:	882a                	mv	a6,a0
   15058:	03800713          	li	a4,56
   1505c:	4301                	li	t1,0
   1505e:	4881                	li	a7,0
   15060:	4f7d                	li	t5,31
   15062:	4e81                	li	t4,0
   15064:	5e61                	li	t3,-8
   15066:	a01d                	j	1508c <crypto_aead_decrypt+0x128>
   15068:	00165693          	srli	a3,a2,0x1
   1506c:	40ef07b3          	sub	a5,t5,a4
   15070:	00f6d6b3          	srl	a3,a3,a5
   15074:	00e615b3          	sll	a1,a2,a4
   15078:	00b365b3          	or	a1,t1,a1
   1507c:	00d8e6b3          	or	a3,a7,a3
   15080:	832e                	mv	t1,a1
   15082:	88b6                	mv	a7,a3
   15084:	0805                	addi	a6,a6,1
   15086:	1761                	addi	a4,a4,-8
   15088:	01c70c63          	beq	a4,t3,150a0 <crypto_aead_decrypt+0x13c>
   1508c:	00084603          	lbu	a2,0(a6)
   15090:	fe070793          	addi	a5,a4,-32
   15094:	fc07cae3          	bltz	a5,15068 <crypto_aead_decrypt+0x104>
   15098:	00f616b3          	sll	a3,a2,a5
   1509c:	85f6                	mv	a1,t4
   1509e:	bfe9                	j	15078 <crypto_aead_decrypt+0x114>
   150a0:	0521                	addi	a0,a0,8
   150a2:	03800613          	li	a2,56
   150a6:	4881                	li	a7,0
   150a8:	4801                	li	a6,0
   150aa:	4efd                	li	t4,31
   150ac:	4e01                	li	t3,0
   150ae:	5361                	li	t1,-8
   150b0:	a01d                	j	150d6 <crypto_aead_decrypt+0x172>
