
sim_O2/my_program:     file format elf32-littleriscv


Disassembly of section .text:

00010094 <exit>:
   10094:	1141                	addi	sp,sp,-16
   10096:	4581                	li	a1,0
   10098:	c422                	sw	s0,8(sp)
   1009a:	c606                	sw	ra,12(sp)
   1009c:	842a                	mv	s0,a0
   1009e:	554080ef          	jal	185f2 <__call_exitprocs>
   100a2:	f201a783          	lw	a5,-224(gp) # 23bd0 <__stdio_exit_handler>
   100a6:	c391                	beqz	a5,100aa <exit+0x16>
   100a8:	9782                	jalr	a5
   100aa:	8522                	mv	a0,s0
   100ac:	43a0f0ef          	jal	1f4e6 <_exit>

000100b0 <main>:
   100b0:	00022737          	lui	a4,0x22
   100b4:	000227b7          	lui	a5,0x22
   100b8:	c2470713          	addi	a4,a4,-988 # 21c24 <__clzsi2+0xdc>
   100bc:	c3878793          	addi	a5,a5,-968 # 21c38 <__clzsi2+0xf0>
   100c0:	0087a883          	lw	a7,8(a5)
   100c4:	00c7d803          	lhu	a6,12(a5)
   100c8:	00072283          	lw	t0,0(a4)
   100cc:	00472f83          	lw	t6,4(a4)
   100d0:	00872f03          	lw	t5,8(a4)
   100d4:	00c72e83          	lw	t4,12(a4)
   100d8:	0007ae03          	lw	t3,0(a5)
   100dc:	0047a303          	lw	t1,4(a5)
   100e0:	7135                	addi	sp,sp,-160
   100e2:	34333637          	lui	a2,0x34333
   100e6:	383736b7          	lui	a3,0x38373
   100ea:	32313737          	lui	a4,0x32313
   100ee:	6791                	lui	a5,0x4
   100f0:	00022537          	lui	a0,0x22
   100f4:	03970713          	addi	a4,a4,57 # 32313039 <__BSS_END__+0x322ef13d>
   100f8:	44178793          	addi	a5,a5,1089 # 4441 <exit-0xbc53>
   100fc:	23160613          	addi	a2,a2,561 # 34333231 <__BSS_END__+0x3430f335>
   10100:	63568693          	addi	a3,a3,1589 # 38373635 <__BSS_END__+0x3834f739>
   10104:	008c                	addi	a1,sp,64
   10106:	b9850513          	addi	a0,a0,-1128 # 21b98 <__clzsi2+0x50>
   1010a:	cf06                	sw	ra,156(sp)
   1010c:	d4ba                	sw	a4,104(sp)
   1010e:	c4c6                	sw	a7,72(sp)
   10110:	05011623          	sh	a6,76(sp)
   10114:	00f11e23          	sh	a5,28(sp)
   10118:	c896                	sw	t0,80(sp)
   1011a:	cafe                	sw	t6,84(sp)
   1011c:	ccfa                	sw	t5,88(sp)
   1011e:	cef6                	sw	t4,92(sp)
   10120:	c0f2                	sw	t3,64(sp)
   10122:	c29a                	sw	t1,68(sp)
   10124:	d0b2                	sw	a2,96(sp)
   10126:	d2b6                	sw	a3,100(sp)
   10128:	cd22                	sw	s0,152(sp)
   1012a:	d682                	sw	zero,108(sp)
   1012c:	00010f23          	sb	zero,30(sp)
   10130:	03e080ef          	jal	1816e <printf>
   10134:	00022537          	lui	a0,0x22
   10138:	086c                	addi	a1,sp,28
   1013a:	bb050513          	addi	a0,a0,-1104 # 21bb0 <__clzsi2+0x68>
   1013e:	030080ef          	jal	1816e <printf>
   10142:	00022537          	lui	a0,0x22
   10146:	4641                	li	a2,16
   10148:	4681                	li	a3,0
   1014a:	088c                	addi	a1,sp,80
   1014c:	bc850513          	addi	a0,a0,-1080 # 21bc8 <__clzsi2+0x80>
   10150:	2a2d                	jal	1028a <print_hex>
   10152:	00022537          	lui	a0,0x22
   10156:	4641                	li	a2,16
   10158:	4681                	li	a3,0
   1015a:	108c                	addi	a1,sp,96
   1015c:	bcc50513          	addi	a0,a0,-1076 # 21bcc <__clzsi2+0x84>
   10160:	222d                	jal	1028a <print_hex>
   10162:	089c                	addi	a5,sp,80
   10164:	c43e                	sw	a5,8(sp)
   10166:	109c                	addi	a5,sp,96
   10168:	c23e                	sw	a5,4(sp)
   1016a:	c002                	sw	zero,0(sp)
   1016c:	4809                	li	a6,2
   1016e:	4881                	li	a7,0
   10170:	087c                	addi	a5,sp,28
   10172:	46b5                	li	a3,13
   10174:	4701                	li	a4,0
   10176:	0090                	addi	a2,sp,64
   10178:	100c                	addi	a1,sp,32
   1017a:	1888                	addi	a0,sp,112
   1017c:	183020ef          	jal	12afe <crypto_aead_encrypt>
   10180:	e921                	bnez	a0,101d0 <main+0x120>
   10182:	5602                	lw	a2,32(sp)
   10184:	5692                	lw	a3,36(sp)
   10186:	00022537          	lui	a0,0x22
   1018a:	188c                	addi	a1,sp,112
   1018c:	be850513          	addi	a0,a0,-1048 # 21be8 <__clzsi2+0xa0>
   10190:	28ed                	jal	1028a <print_hex>
   10192:	0894                	addi	a3,sp,80
   10194:	5702                	lw	a4,32(sp)
   10196:	5792                	lw	a5,36(sp)
   10198:	c436                	sw	a3,8(sp)
   1019a:	1094                	addi	a3,sp,96
   1019c:	c236                	sw	a3,4(sp)
   1019e:	c002                	sw	zero,0(sp)
   101a0:	4889                	li	a7,2
   101a2:	01c10813          	addi	a6,sp,28
   101a6:	1894                	addi	a3,sp,112
   101a8:	4601                	li	a2,0
   101aa:	102c                	addi	a1,sp,40
   101ac:	1808                	addi	a0,sp,48
   101ae:	214050ef          	jal	153c2 <crypto_aead_decrypt>
   101b2:	842a                	mv	s0,a0
   101b4:	e515                	bnez	a0,101e0 <main+0x130>
   101b6:	55a2                	lw	a1,40(sp)
   101b8:	00022537          	lui	a0,0x22
   101bc:	1810                	addi	a2,sp,48
   101be:	c0850513          	addi	a0,a0,-1016 # 21c08 <__clzsi2+0xc0>
   101c2:	7ad070ef          	jal	1816e <printf>
   101c6:	40fa                	lw	ra,156(sp)
   101c8:	8522                	mv	a0,s0
   101ca:	446a                	lw	s0,152(sp)
   101cc:	610d                	addi	sp,sp,160
   101ce:	8082                	ret
   101d0:	00022537          	lui	a0,0x22
   101d4:	bd450513          	addi	a0,a0,-1068 # 21bd4 <__clzsi2+0x8c>
   101d8:	056080ef          	jal	1822e <puts>
   101dc:	547d                	li	s0,-1
   101de:	b7e5                	j	101c6 <main+0x116>
   101e0:	00022537          	lui	a0,0x22
   101e4:	bf450513          	addi	a0,a0,-1036 # 21bf4 <__clzsi2+0xac>
   101e8:	046080ef          	jal	1822e <puts>
   101ec:	547d                	li	s0,-1
   101ee:	bfe1                	j	101c6 <main+0x116>

000101f0 <register_fini>:
   101f0:	00000793          	li	a5,0
   101f4:	c791                	beqz	a5,10200 <register_fini+0x10>
   101f6:	656d                	lui	a0,0x1b
   101f8:	60450513          	addi	a0,a0,1540 # 1b604 <__libc_fini_array>
   101fc:	4c40806f          	j	186c0 <atexit>
   10200:	8082                	ret

00010202 <_start>:
   10202:	00014197          	auipc	gp,0x14
   10206:	aae18193          	addi	gp,gp,-1362 # 23cb0 <__global_pointer$>
   1020a:	f2018513          	addi	a0,gp,-224 # 23bd0 <__stdio_exit_handler>
   1020e:	24c18613          	addi	a2,gp,588 # 23efc <__BSS_END__>
   10212:	8e09                	sub	a2,a2,a0
   10214:	4581                	li	a1,0
   10216:	2d0080ef          	jal	184e6 <memset>
   1021a:	00008517          	auipc	a0,0x8
   1021e:	4a650513          	addi	a0,a0,1190 # 186c0 <atexit>
   10222:	c519                	beqz	a0,10230 <_start+0x2e>
   10224:	0000b517          	auipc	a0,0xb
   10228:	3e050513          	addi	a0,a0,992 # 1b604 <__libc_fini_array>
   1022c:	494080ef          	jal	186c0 <atexit>
   10230:	244080ef          	jal	18474 <__libc_init_array>
   10234:	4502                	lw	a0,0(sp)
   10236:	004c                	addi	a1,sp,4
   10238:	4601                	li	a2,0
   1023a:	3d9d                	jal	100b0 <main>
   1023c:	bda1                	j	10094 <exit>

0001023e <__do_global_dtors_aux>:
   1023e:	1141                	addi	sp,sp,-16
   10240:	c422                	sw	s0,8(sp)
   10242:	f401c783          	lbu	a5,-192(gp) # 23bf0 <completed.1>
   10246:	c606                	sw	ra,12(sp)
   10248:	ef99                	bnez	a5,10266 <__do_global_dtors_aux+0x28>
   1024a:	00000793          	li	a5,0
   1024e:	cb89                	beqz	a5,10260 <__do_global_dtors_aux+0x22>
   10250:	00023537          	lui	a0,0x23
   10254:	4a050513          	addi	a0,a0,1184 # 234a0 <__EH_FRAME_BEGIN__>
   10258:	00000097          	auipc	ra,0x0
   1025c:	000000e7          	jalr	zero # 0 <exit-0x10094>
   10260:	4785                	li	a5,1
   10262:	f4f18023          	sb	a5,-192(gp) # 23bf0 <completed.1>
   10266:	40b2                	lw	ra,12(sp)
   10268:	4422                	lw	s0,8(sp)
   1026a:	0141                	addi	sp,sp,16
   1026c:	8082                	ret

0001026e <frame_dummy>:
   1026e:	00000793          	li	a5,0
   10272:	cb99                	beqz	a5,10288 <frame_dummy+0x1a>
   10274:	00023537          	lui	a0,0x23
   10278:	f4418593          	addi	a1,gp,-188 # 23bf4 <object.0>
   1027c:	4a050513          	addi	a0,a0,1184 # 234a0 <__EH_FRAME_BEGIN__>
   10280:	00000317          	auipc	t1,0x0
   10284:	00000067          	jr	zero # 0 <exit-0x10094>
   10288:	8082                	ret

0001028a <print_hex>:
   1028a:	1101                	addi	sp,sp,-32
   1028c:	c64e                	sw	s3,12(sp)
   1028e:	89ae                	mv	s3,a1
   10290:	85aa                	mv	a1,a0
   10292:	00022537          	lui	a0,0x22
   10296:	b8850513          	addi	a0,a0,-1144 # 21b88 <__clzsi2+0x40>
   1029a:	c84a                	sw	s2,16(sp)
   1029c:	c256                	sw	s5,4(sp)
   1029e:	8932                	mv	s2,a2
   102a0:	8ab6                	mv	s5,a3
   102a2:	ce06                	sw	ra,28(sp)
   102a4:	6cb070ef          	jal	1816e <printf>
   102a8:	015967b3          	or	a5,s2,s5
   102ac:	cf8d                	beqz	a5,102e6 <print_hex+0x5c>
   102ae:	cc22                	sw	s0,24(sp)
   102b0:	ca26                	sw	s1,20(sp)
   102b2:	c452                	sw	s4,8(sp)
   102b4:	4401                	li	s0,0
   102b6:	4481                	li	s1,0
   102b8:	00022a37          	lui	s4,0x22
   102bc:	008987b3          	add	a5,s3,s0
   102c0:	0007c583          	lbu	a1,0(a5)
   102c4:	b90a0513          	addi	a0,s4,-1136 # 21b90 <__clzsi2+0x48>
   102c8:	6a7070ef          	jal	1816e <printf>
   102cc:	00140793          	addi	a5,s0,1
   102d0:	0087b733          	sltu	a4,a5,s0
   102d4:	94ba                	add	s1,s1,a4
   102d6:	843e                	mv	s0,a5
   102d8:	fef912e3          	bne	s2,a5,102bc <print_hex+0x32>
   102dc:	fe9a90e3          	bne	s5,s1,102bc <print_hex+0x32>
   102e0:	4462                	lw	s0,24(sp)
   102e2:	44d2                	lw	s1,20(sp)
   102e4:	4a22                	lw	s4,8(sp)
   102e6:	40f2                	lw	ra,28(sp)
   102e8:	4942                	lw	s2,16(sp)
   102ea:	49b2                	lw	s3,12(sp)
   102ec:	4a92                	lw	s5,4(sp)
   102ee:	4529                	li	a0,10
   102f0:	6105                	addi	sp,sp,32
   102f2:	6af0706f          	j	181a0 <putchar>

000102f6 <P8>:
   102f6:	715d                	addi	sp,sp,-80
   102f8:	c6a2                	sw	s0,76(sp)
   102fa:	c4a6                	sw	s1,72(sp)
   102fc:	4540                	lw	s0,12(a0)
   102fe:	4504                	lw	s1,8(a0)
   10300:	491c                	lw	a5,16(a0)
   10302:	4954                	lw	a3,20(a0)
   10304:	02452303          	lw	t1,36(a0)
   10308:	00452383          	lw	t2,4(a0)
   1030c:	de52                	sw	s4,60(sp)
   1030e:	01852883          	lw	a7,24(a0)
   10312:	4d50                	lw	a2,28(a0)
   10314:	02052e03          	lw	t3,32(a0)
   10318:	00052a03          	lw	s4,0(a0)
   1031c:	8ea1                	xor	a3,a3,s0
   1031e:	8fa5                	xor	a5,a5,s1
   10320:	dc56                	sw	s5,56(sp)
   10322:	0063c3b3          	xor	t2,t2,t1
   10326:	0b47ca93          	xori	s5,a5,180
   1032a:	c42a                	sw	a0,8(sp)
   1032c:	fff44593          	not	a1,s0
   10330:	fff4c513          	not	a0,s1
   10334:	f4b7c713          	xori	a4,a5,-181
   10338:	fff6c293          	not	t0,a3
   1033c:	c2ca                	sw	s2,68(sp)
   1033e:	01ca4a33          	xor	s4,s4,t3
   10342:	fff3c913          	not	s2,t2
   10346:	01557533          	and	a0,a0,s5
   1034a:	8df5                	and	a1,a1,a3
   1034c:	01177733          	and	a4,a4,a7
   10350:	00c2f2b3          	and	t0,t0,a2
   10354:	c0ce                	sw	s3,64(sp)
   10356:	00c34333          	xor	t1,t1,a2
   1035a:	0075c5b3          	xor	a1,a1,t2
   1035e:	01454533          	xor	a0,a0,s4
   10362:	fffa4993          	not	s3,s4
   10366:	00897933          	and	s2,s2,s0
   1036a:	8f25                	xor	a4,a4,s1
   1036c:	0082c2b3          	xor	t0,t0,s0
   10370:	00694933          	xor	s2,s2,t1
   10374:	8f29                	xor	a4,a4,a0
   10376:	00b2c2b3          	xor	t0,t0,a1
   1037a:	011e4e33          	xor	t3,t3,a7
   1037e:	fff8ce93          	not	t4,a7
   10382:	0099f9b3          	and	s3,s3,s1
   10386:	01c9c9b3          	xor	s3,s3,t3
   1038a:	00329793          	slli	a5,t0,0x3
   1038e:	fff64813          	not	a6,a2
   10392:	01cefeb3          	and	t4,t4,t3
   10396:	fffe4f93          	not	t6,t3
   1039a:	0125ce33          	xor	t3,a1,s2
   1039e:	01d75593          	srli	a1,a4,0x1d
   103a2:	8ddd                	or	a1,a1,a5
   103a4:	00687833          	and	a6,a6,t1
   103a8:	fff34f13          	not	t5,t1
   103ac:	015eceb3          	xor	t4,t4,s5
   103b0:	00d84833          	xor	a6,a6,a3
   103b4:	cc2e                	sw	a1,24(sp)
   103b6:	01d2d793          	srli	a5,t0,0x1d
   103ba:	014fffb3          	and	t6,t6,s4
   103be:	007f7f33          	and	t5,t5,t2
   103c2:	00371593          	slli	a1,a4,0x3
   103c6:	8ddd                	or	a1,a1,a5
   103c8:	01dfcfb3          	xor	t6,t6,t4
   103cc:	00775793          	srli	a5,a4,0x7
   103d0:	010f4f33          	xor	t5,t5,a6
   103d4:	01929a13          	slli	s4,t0,0x19
   103d8:	011fcfb3          	xor	t6,t6,a7
   103dc:	00cf4f33          	xor	t5,t5,a2
   103e0:	01971493          	slli	s1,a4,0x19
   103e4:	0147ea33          	or	s4,a5,s4
   103e8:	0072d793          	srli	a5,t0,0x7
   103ec:	00afd413          	srli	s0,t6,0xa
   103f0:	8cdd                	or	s1,s1,a5
   103f2:	016f1793          	slli	a5,t5,0x16
   103f6:	ca2e                	sw	a1,20(sp)
   103f8:	8c5d                	or	s0,s0,a5
   103fa:	00af5593          	srli	a1,t5,0xa
   103fe:	016f9793          	slli	a5,t6,0x16
   10402:	8fcd                	or	a5,a5,a1
   10404:	d06e                	sw	s11,32(sp)
   10406:	ce3e                	sw	a5,28(sp)
   10408:	011fdd93          	srli	s11,t6,0x11
   1040c:	00ff1793          	slli	a5,t5,0xf
   10410:	01b7edb3          	or	s11,a5,s11
   10414:	011f5393          	srli	t2,t5,0x11
   10418:	00ff9793          	slli	a5,t6,0xf
   1041c:	d26a                	sw	s10,36(sp)
   1041e:	0077e3b3          	or	t2,a5,t2
   10422:	0079dd13          	srli	s10,s3,0x7
   10426:	01991793          	slli	a5,s2,0x19
   1042a:	d466                	sw	s9,40(sp)
   1042c:	01a7ed33          	or	s10,a5,s10
   10430:	00795c93          	srli	s9,s2,0x7
   10434:	01999793          	slli	a5,s3,0x19
   10438:	0197ecb3          	or	s9,a5,s9
   1043c:	01791693          	slli	a3,s2,0x17
   10440:	0099d793          	srli	a5,s3,0x9
   10444:	fffece93          	not	t4,t4
   10448:	fff84813          	not	a6,a6
   1044c:	01799613          	slli	a2,s3,0x17
   10450:	8edd                	or	a3,a3,a5
   10452:	00995793          	srli	a5,s2,0x9
   10456:	d662                	sw	s8,44(sp)
   10458:	8e5d                	or	a2,a2,a5
   1045a:	001edc13          	srli	s8,t4,0x1
   1045e:	01f81793          	slli	a5,a6,0x1f
   10462:	d85e                	sw	s7,48(sp)
   10464:	0187ec33          	or	s8,a5,s8
   10468:	00185b93          	srli	s7,a6,0x1
   1046c:	01fe9793          	slli	a5,t4,0x1f
   10470:	da5a                	sw	s6,52(sp)
   10472:	0177ebb3          	or	s7,a5,s7
   10476:	00de1b13          	slli	s6,t3,0xd
   1047a:	006ed593          	srli	a1,t4,0x6
   1047e:	01a81793          	slli	a5,a6,0x1a
   10482:	c65a                	sw	s6,12(sp)
   10484:	00685893          	srli	a7,a6,0x6
   10488:	8fcd                	or	a5,a5,a1
   1048a:	01ae9593          	slli	a1,t4,0x1a
   1048e:	0115e8b3          	or	a7,a1,a7
   10492:	45b2                	lw	a1,12(sp)
   10494:	01354533          	xor	a0,a0,s3
   10498:	c272                	sw	t3,4(sp)
   1049a:	01355b13          	srli	s6,a0,0x13
   1049e:	013e5a93          	srli	s5,t3,0x13
   104a2:	0e12                	slli	t3,t3,0x4
   104a4:	c872                	sw	t3,16(sp)
   104a6:	0165eb33          	or	s6,a1,s6
   104aa:	00d51593          	slli	a1,a0,0xd
   104ae:	4312                	lw	t1,4(sp)
   104b0:	0155eab3          	or	s5,a1,s5
   104b4:	45c2                	lw	a1,16(sp)
   104b6:	01c55e13          	srli	t3,a0,0x1c
   104ba:	01c35313          	srli	t1,t1,0x1c
   104be:	01c5ee33          	or	t3,a1,t3
   104c2:	00451593          	slli	a1,a0,0x4
   104c6:	0065e333          	or	t1,a1,t1
   104ca:	45d2                	lw	a1,20(sp)
   104cc:	00cd4633          	xor	a2,s10,a2
   104d0:	00dcc6b3          	xor	a3,s9,a3
   104d4:	8cad                	xor	s1,s1,a1
   104d6:	45e2                	lw	a1,24(sp)
   104d8:	8cb9                	xor	s1,s1,a4
   104da:	4712                	lw	a4,4(sp)
   104dc:	0145ca33          	xor	s4,a1,s4
   104e0:	45f2                	lw	a1,28(sp)
   104e2:	011bc8b3          	xor	a7,s7,a7
   104e6:	01cb4e33          	xor	t3,s6,t3
   104ea:	006ac333          	xor	t1,s5,t1
   104ee:	005a4a33          	xor	s4,s4,t0
   104f2:	01364633          	xor	a2,a2,s3
   104f6:	0126c6b3          	xor	a3,a3,s2
   104fa:	0108c8b3          	xor	a7,a7,a6
   104fe:	00ae4e33          	xor	t3,t3,a0
   10502:	00e34333          	xor	t1,t1,a4
   10506:	01b44433          	xor	s0,s0,s11
   1050a:	0075c3b3          	xor	t2,a1,t2
   1050e:	00fc47b3          	xor	a5,s8,a5
   10512:	01f44433          	xor	s0,s0,t6
   10516:	01e3c3b3          	xor	t2,t2,t5
   1051a:	0148c733          	xor	a4,a7,s4
   1051e:	00d34833          	xor	a6,t1,a3
   10522:	01d7c7b3          	xor	a5,a5,t4
   10526:	00ce4eb3          	xor	t4,t3,a2
   1052a:	00d3c6b3          	xor	a3,t2,a3
   1052e:	8e21                	xor	a2,a2,s0
   10530:	8fa5                	xor	a5,a5,s1
   10532:	fffa4f13          	not	t5,s4
   10536:	fffec993          	not	s3,t4
   1053a:	fff84293          	not	t0,a6
   1053e:	fff74e13          	not	t3,a4
   10542:	0a57c913          	xori	s2,a5,165
   10546:	00ef7f33          	and	t5,t5,a4
   1054a:	0099f9b3          	and	s3,s3,s1
   1054e:	0142f2b3          	and	t0,t0,s4
   10552:	fff4cf93          	not	t6,s1
   10556:	fff44513          	not	a0,s0
   1055a:	fff3c593          	not	a1,t2
   1055e:	fff64313          	not	t1,a2
   10562:	fff6c893          	not	a7,a3
   10566:	007e7e33          	and	t3,t3,t2
   1056a:	f5a7c793          	xori	a5,a5,-166
   1056e:	012fffb3          	and	t6,t6,s2
   10572:	8fe1                	and	a5,a5,s0
   10574:	8d71                	and	a0,a0,a2
   10576:	8df5                	and	a1,a1,a3
   10578:	00c9c633          	xor	a2,s3,a2
   1057c:	00d2c6b3          	xor	a3,t0,a3
   10580:	01d37333          	and	t1,t1,t4
   10584:	0108f8b3          	and	a7,a7,a6
   10588:	014e4e33          	xor	t3,t3,s4
   1058c:	010f4833          	xor	a6,t5,a6
   10590:	010e4e33          	xor	t3,t3,a6
   10594:	01dfcb33          	xor	s6,t6,t4
   10598:	01254533          	xor	a0,a0,s2
   1059c:	8ec2                	mv	t4,a6
   1059e:	8db9                	xor	a1,a1,a4
   105a0:	01769813          	slli	a6,a3,0x17
   105a4:	0097c733          	xor	a4,a5,s1
   105a8:	00834333          	xor	t1,t1,s0
   105ac:	01761793          	slli	a5,a2,0x17
   105b0:	00765413          	srli	s0,a2,0x7
   105b4:	0078c8b3          	xor	a7,a7,t2
   105b8:	01969993          	slli	s3,a3,0x19
   105bc:	0076d393          	srli	t2,a3,0x7
   105c0:	01961913          	slli	s2,a2,0x19
   105c4:	00965f13          	srli	t5,a2,0x9
   105c8:	0096df93          	srli	t6,a3,0x9
   105cc:	01674733          	xor	a4,a4,s6
   105d0:	010f6f33          	or	t5,t5,a6
   105d4:	00ffefb3          	or	t6,t6,a5
   105d8:	0089e9b3          	or	s3,s3,s0
   105dc:	00796933          	or	s2,s2,t2
   105e0:	01f9c9b3          	xor	s3,s3,t6
   105e4:	01e94933          	xor	s2,s2,t5
   105e8:	003e1f93          	slli	t6,t3,0x3
   105ec:	01d75f13          	srli	t5,a4,0x1d
   105f0:	00371293          	slli	t0,a4,0x3
   105f4:	01ff6fb3          	or	t6,t5,t6
   105f8:	01de5f13          	srli	t5,t3,0x1d
   105fc:	019e1d13          	slli	s10,t3,0x19
   10600:	005f62b3          	or	t0,t5,t0
   10604:	00775f13          	srli	t5,a4,0x7
   10608:	01af6f33          	or	t5,t5,s10
   1060c:	c67a                	sw	t5,12(sp)
   1060e:	00a34333          	xor	t1,t1,a0
   10612:	00b8c8b3          	xor	a7,a7,a1
   10616:	007e5f13          	srli	t5,t3,0x7
   1061a:	01971c93          	slli	s9,a4,0x19
   1061e:	019f6cb3          	or	s9,t5,s9
   10622:	00a35d13          	srli	s10,t1,0xa
   10626:	01689f13          	slli	t5,a7,0x16
   1062a:	00a8dd93          	srli	s11,a7,0xa
   1062e:	01af6f33          	or	t5,t5,s10
   10632:	01631d13          	slli	s10,t1,0x16
   10636:	01bd6db3          	or	s11,s10,s11
   1063a:	01135b93          	srli	s7,t1,0x11
   1063e:	00f89d13          	slli	s10,a7,0xf
   10642:	c276                	sw	t4,4(sp)
   10644:	fff54513          	not	a0,a0
   10648:	fff5c593          	not	a1,a1
   1064c:	00decc33          	xor	s8,t4,a3
   10650:	017d6bb3          	or	s7,s10,s7
   10654:	0118de93          	srli	t4,a7,0x11
   10658:	00f31d13          	slli	s10,t1,0xf
   1065c:	0065d393          	srli	t2,a1,0x6
   10660:	01f51a13          	slli	s4,a0,0x1f
   10664:	01a51813          	slli	a6,a0,0x1a
   10668:	01dd6eb3          	or	t4,s10,t4
   1066c:	0015dd13          	srli	s10,a1,0x1
   10670:	c86e                	sw	s11,16(sp)
   10672:	01aa6a33          	or	s4,s4,s10
   10676:	00786833          	or	a6,a6,t2
   1067a:	0192c2b3          	xor	t0,t0,s9
   1067e:	017f4f33          	xor	t5,t5,s7
   10682:	4cb2                	lw	s9,12(sp)
   10684:	4bc2                	lw	s7,16(sp)
   10686:	010a4833          	xor	a6,s4,a6
   1068a:	4a12                	lw	s4,4(sp)
   1068c:	00cb44b3          	xor	s1,s6,a2
   10690:	00655413          	srli	s0,a0,0x6
   10694:	01f59d93          	slli	s11,a1,0x1f
   10698:	00155a93          	srli	s5,a0,0x1
   1069c:	01a59793          	slli	a5,a1,0x1a
   106a0:	015deab3          	or	s5,s11,s5
   106a4:	00d49d13          	slli	s10,s1,0xd
   106a8:	00dc1d93          	slli	s11,s8,0xd
   106ac:	8fc1                	or	a5,a5,s0
   106ae:	013c5393          	srli	t2,s8,0x13
   106b2:	0134d413          	srli	s0,s1,0x13
   106b6:	013b4b33          	xor	s6,s6,s3
   106ba:	019fcfb3          	xor	t6,t6,s9
   106be:	01dbceb3          	xor	t4,s7,t4
   106c2:	00fac7b3          	xor	a5,s5,a5
   106c6:	012a4bb3          	xor	s7,s4,s2
   106ca:	01c4da93          	srli	s5,s1,0x1c
   106ce:	008de433          	or	s0,s11,s0
   106d2:	007d63b3          	or	t2,s10,t2
   106d6:	004c1a13          	slli	s4,s8,0x4
   106da:	0492                	slli	s1,s1,0x4
   106dc:	01cc5c13          	srli	s8,s8,0x1c
   106e0:	00e2c2b3          	xor	t0,t0,a4
   106e4:	01cfcfb3          	xor	t6,t6,t3
   106e8:	015a6a33          	or	s4,s4,s5
   106ec:	0184e4b3          	or	s1,s1,s8
   106f0:	8fa9                	xor	a5,a5,a0
   106f2:	00b84833          	xor	a6,a6,a1
   106f6:	01644433          	xor	s0,s0,s6
   106fa:	0173c3b3          	xor	t2,t2,s7
   106fe:	006f4f33          	xor	t5,t5,t1
   10702:	011eceb3          	xor	t4,t4,a7
   10706:	01f84833          	xor	a6,a6,t6
   1070a:	01444433          	xor	s0,s0,s4
   1070e:	0093c3b3          	xor	t2,t2,s1
   10712:	01364633          	xor	a2,a2,s3
   10716:	0126c6b3          	xor	a3,a3,s2
   1071a:	0057c7b3          	xor	a5,a5,t0
   1071e:	01e64933          	xor	s2,a2,t5
   10722:	01d6c4b3          	xor	s1,a3,t4
   10726:	0967c713          	xori	a4,a5,150
   1072a:	fff2ca13          	not	s4,t0
   1072e:	ffffc993          	not	s3,t6
   10732:	fff44613          	not	a2,s0
   10736:	fff3c693          	not	a3,t2
   1073a:	fff84e13          	not	t3,a6
   1073e:	00ea7a33          	and	s4,s4,a4
   10742:	0109f9b3          	and	s3,s3,a6
   10746:	ffff4513          	not	a0,t5
   1074a:	fffec593          	not	a1,t4
   1074e:	fff94313          	not	t1,s2
   10752:	fff4c893          	not	a7,s1
   10756:	00567633          	and	a2,a2,t0
   1075a:	01f6f6b3          	and	a3,a3,t6
   1075e:	01de7e33          	and	t3,t3,t4
   10762:	f697c793          	xori	a5,a5,-151
   10766:	8ea5                	xor	a3,a3,s1
   10768:	01264633          	xor	a2,a2,s2
   1076c:	008a4b33          	xor	s6,s4,s0
   10770:	01e7f7b3          	and	a5,a5,t5
   10774:	01257533          	and	a0,a0,s2
   10778:	8de5                	and	a1,a1,s1
   1077a:	00837333          	and	t1,t1,s0
   1077e:	0078f8b3          	and	a7,a7,t2
   10782:	0079c433          	xor	s0,s3,t2
   10786:	01fe4e33          	xor	t3,t3,t6
   1078a:	008e4e33          	xor	t3,t3,s0
   1078e:	8d39                	xor	a0,a0,a4
   10790:	0105c5b3          	xor	a1,a1,a6
   10794:	0057c733          	xor	a4,a5,t0
   10798:	0076d393          	srli	t2,a3,0x7
   1079c:	01769813          	slli	a6,a3,0x17
   107a0:	01761793          	slli	a5,a2,0x17
   107a4:	01e34333          	xor	t1,t1,t5
   107a8:	01d8c8b3          	xor	a7,a7,t4
   107ac:	01969993          	slli	s3,a3,0x19
   107b0:	8ea2                	mv	t4,s0
   107b2:	01961913          	slli	s2,a2,0x19
   107b6:	00765413          	srli	s0,a2,0x7
   107ba:	00965f13          	srli	t5,a2,0x9
   107be:	0096df93          	srli	t6,a3,0x9
   107c2:	01674733          	xor	a4,a4,s6
   107c6:	010f6f33          	or	t5,t5,a6
   107ca:	00ffefb3          	or	t6,t6,a5
   107ce:	0089e9b3          	or	s3,s3,s0
   107d2:	00796933          	or	s2,s2,t2
   107d6:	01f9c9b3          	xor	s3,s3,t6
   107da:	01e94933          	xor	s2,s2,t5
   107de:	003e1f93          	slli	t6,t3,0x3
   107e2:	01d75f13          	srli	t5,a4,0x1d
   107e6:	00371293          	slli	t0,a4,0x3
   107ea:	01ff6fb3          	or	t6,t5,t6
   107ee:	01de5f13          	srli	t5,t3,0x1d
   107f2:	019e1d13          	slli	s10,t3,0x19
   107f6:	005f62b3          	or	t0,t5,t0
   107fa:	00775f13          	srli	t5,a4,0x7
   107fe:	01af6f33          	or	t5,t5,s10
   10802:	c67a                	sw	t5,12(sp)
   10804:	00a34333          	xor	t1,t1,a0
   10808:	00b8c8b3          	xor	a7,a7,a1
   1080c:	007e5f13          	srli	t5,t3,0x7
   10810:	01971c93          	slli	s9,a4,0x19
   10814:	019f6cb3          	or	s9,t5,s9
   10818:	00a35d13          	srli	s10,t1,0xa
   1081c:	01689f13          	slli	t5,a7,0x16
   10820:	00a8dd93          	srli	s11,a7,0xa
   10824:	01af6f33          	or	t5,t5,s10
   10828:	01631d13          	slli	s10,t1,0x16
   1082c:	01bd6db3          	or	s11,s10,s11
   10830:	01135b93          	srli	s7,t1,0x11
   10834:	00f89d13          	slli	s10,a7,0xf
   10838:	c276                	sw	t4,4(sp)
   1083a:	fff54513          	not	a0,a0
   1083e:	fff5c593          	not	a1,a1
   10842:	00decc33          	xor	s8,t4,a3
   10846:	017d6bb3          	or	s7,s10,s7
   1084a:	0118de93          	srli	t4,a7,0x11
   1084e:	00f31d13          	slli	s10,t1,0xf
   10852:	0065d393          	srli	t2,a1,0x6
   10856:	01f51a13          	slli	s4,a0,0x1f
   1085a:	01a51813          	slli	a6,a0,0x1a
   1085e:	01dd6eb3          	or	t4,s10,t4
   10862:	0015dd13          	srli	s10,a1,0x1
   10866:	c86e                	sw	s11,16(sp)
   10868:	01aa6a33          	or	s4,s4,s10
   1086c:	00786833          	or	a6,a6,t2
   10870:	0192c2b3          	xor	t0,t0,s9
   10874:	017f4f33          	xor	t5,t5,s7
   10878:	4cb2                	lw	s9,12(sp)
   1087a:	4bc2                	lw	s7,16(sp)
   1087c:	010a4833          	xor	a6,s4,a6
   10880:	4a12                	lw	s4,4(sp)
   10882:	00cb44b3          	xor	s1,s6,a2
   10886:	00655413          	srli	s0,a0,0x6
   1088a:	01f59d93          	slli	s11,a1,0x1f
   1088e:	00155a93          	srli	s5,a0,0x1
   10892:	01a59793          	slli	a5,a1,0x1a
   10896:	015deab3          	or	s5,s11,s5
   1089a:	00d49d13          	slli	s10,s1,0xd
   1089e:	00dc1d93          	slli	s11,s8,0xd
   108a2:	8fc1                	or	a5,a5,s0
   108a4:	013c5393          	srli	t2,s8,0x13
   108a8:	0134d413          	srli	s0,s1,0x13
   108ac:	013b4b33          	xor	s6,s6,s3
   108b0:	019fcfb3          	xor	t6,t6,s9
   108b4:	01dbceb3          	xor	t4,s7,t4
   108b8:	00fac7b3          	xor	a5,s5,a5
   108bc:	012a4bb3          	xor	s7,s4,s2
   108c0:	01c4da93          	srli	s5,s1,0x1c
   108c4:	008de433          	or	s0,s11,s0
   108c8:	007d63b3          	or	t2,s10,t2
   108cc:	004c1a13          	slli	s4,s8,0x4
   108d0:	0492                	slli	s1,s1,0x4
   108d2:	01cc5c13          	srli	s8,s8,0x1c
   108d6:	00e2c2b3          	xor	t0,t0,a4
   108da:	01cfcfb3          	xor	t6,t6,t3
   108de:	015a6a33          	or	s4,s4,s5
   108e2:	0184e4b3          	or	s1,s1,s8
   108e6:	8fa9                	xor	a5,a5,a0
   108e8:	00b84833          	xor	a6,a6,a1
   108ec:	01644433          	xor	s0,s0,s6
   108f0:	0173c3b3          	xor	t2,t2,s7
   108f4:	006f4f33          	xor	t5,t5,t1
   108f8:	011eceb3          	xor	t4,t4,a7
   108fc:	01f84833          	xor	a6,a6,t6
   10900:	01444433          	xor	s0,s0,s4
   10904:	0093c3b3          	xor	t2,t2,s1
   10908:	01364633          	xor	a2,a2,s3
   1090c:	0126c6b3          	xor	a3,a3,s2
   10910:	0057c7b3          	xor	a5,a5,t0
   10914:	01e64933          	xor	s2,a2,t5
   10918:	01d6c4b3          	xor	s1,a3,t4
   1091c:	0877c713          	xori	a4,a5,135
   10920:	fff2ca13          	not	s4,t0
   10924:	ffffc993          	not	s3,t6
   10928:	fff44613          	not	a2,s0
   1092c:	fff3c693          	not	a3,t2
   10930:	fff84e13          	not	t3,a6
   10934:	00ea7a33          	and	s4,s4,a4
   10938:	0109f9b3          	and	s3,s3,a6
   1093c:	ffff4513          	not	a0,t5
   10940:	fffec593          	not	a1,t4
   10944:	fff94313          	not	t1,s2
   10948:	fff4c893          	not	a7,s1
   1094c:	00567633          	and	a2,a2,t0
   10950:	01f6f6b3          	and	a3,a3,t6
   10954:	01de7e33          	and	t3,t3,t4
   10958:	f787c793          	xori	a5,a5,-136
   1095c:	8ea5                	xor	a3,a3,s1
   1095e:	01264633          	xor	a2,a2,s2
   10962:	008a4b33          	xor	s6,s4,s0
   10966:	01e7f7b3          	and	a5,a5,t5
   1096a:	01257533          	and	a0,a0,s2
   1096e:	8de5                	and	a1,a1,s1
   10970:	00837333          	and	t1,t1,s0
   10974:	0078f8b3          	and	a7,a7,t2
   10978:	0079c433          	xor	s0,s3,t2
   1097c:	01fe4e33          	xor	t3,t3,t6
   10980:	008e4e33          	xor	t3,t3,s0
   10984:	8d39                	xor	a0,a0,a4
   10986:	0105c5b3          	xor	a1,a1,a6
   1098a:	0057c733          	xor	a4,a5,t0
   1098e:	0076d393          	srli	t2,a3,0x7
   10992:	01769813          	slli	a6,a3,0x17
   10996:	01761793          	slli	a5,a2,0x17
   1099a:	01e34333          	xor	t1,t1,t5
   1099e:	01d8c8b3          	xor	a7,a7,t4
   109a2:	01969993          	slli	s3,a3,0x19
   109a6:	8ea2                	mv	t4,s0
   109a8:	01961913          	slli	s2,a2,0x19
   109ac:	00765413          	srli	s0,a2,0x7
   109b0:	00965f13          	srli	t5,a2,0x9
   109b4:	0096df93          	srli	t6,a3,0x9
   109b8:	01674733          	xor	a4,a4,s6
   109bc:	010f6f33          	or	t5,t5,a6
   109c0:	00ffefb3          	or	t6,t6,a5
   109c4:	0089e9b3          	or	s3,s3,s0
   109c8:	00796933          	or	s2,s2,t2
   109cc:	01f9c9b3          	xor	s3,s3,t6
   109d0:	01e94933          	xor	s2,s2,t5
   109d4:	003e1f93          	slli	t6,t3,0x3
   109d8:	01d75f13          	srli	t5,a4,0x1d
   109dc:	00371293          	slli	t0,a4,0x3
   109e0:	01ff6fb3          	or	t6,t5,t6
   109e4:	01de5f13          	srli	t5,t3,0x1d
   109e8:	019e1d13          	slli	s10,t3,0x19
   109ec:	005f62b3          	or	t0,t5,t0
   109f0:	00775f13          	srli	t5,a4,0x7
   109f4:	01af6f33          	or	t5,t5,s10
   109f8:	00a34333          	xor	t1,t1,a0
   109fc:	00b8c8b3          	xor	a7,a7,a1
   10a00:	c67a                	sw	t5,12(sp)
   10a02:	01971c93          	slli	s9,a4,0x19
   10a06:	007e5f13          	srli	t5,t3,0x7
   10a0a:	019f6cb3          	or	s9,t5,s9
   10a0e:	00a35d13          	srli	s10,t1,0xa
   10a12:	01689f13          	slli	t5,a7,0x16
   10a16:	00a8dd93          	srli	s11,a7,0xa
   10a1a:	01af6f33          	or	t5,t5,s10
   10a1e:	01631d13          	slli	s10,t1,0x16
   10a22:	01bd6db3          	or	s11,s10,s11
   10a26:	01135b93          	srli	s7,t1,0x11
   10a2a:	00f89d13          	slli	s10,a7,0xf
   10a2e:	c276                	sw	t4,4(sp)
   10a30:	fff54513          	not	a0,a0
   10a34:	fff5c593          	not	a1,a1
   10a38:	00decc33          	xor	s8,t4,a3
   10a3c:	017d6bb3          	or	s7,s10,s7
   10a40:	0118de93          	srli	t4,a7,0x11
   10a44:	00f31d13          	slli	s10,t1,0xf
   10a48:	0065d393          	srli	t2,a1,0x6
   10a4c:	01f51a13          	slli	s4,a0,0x1f
   10a50:	01a51813          	slli	a6,a0,0x1a
   10a54:	01dd6eb3          	or	t4,s10,t4
   10a58:	0015dd13          	srli	s10,a1,0x1
   10a5c:	c86e                	sw	s11,16(sp)
   10a5e:	01aa6a33          	or	s4,s4,s10
   10a62:	00786833          	or	a6,a6,t2
   10a66:	0192c2b3          	xor	t0,t0,s9
   10a6a:	017f4f33          	xor	t5,t5,s7
   10a6e:	4cb2                	lw	s9,12(sp)
   10a70:	4bc2                	lw	s7,16(sp)
   10a72:	010a4833          	xor	a6,s4,a6
   10a76:	4a12                	lw	s4,4(sp)
   10a78:	00cb44b3          	xor	s1,s6,a2
   10a7c:	00655413          	srli	s0,a0,0x6
   10a80:	01f59d93          	slli	s11,a1,0x1f
   10a84:	00155a93          	srli	s5,a0,0x1
   10a88:	01a59793          	slli	a5,a1,0x1a
   10a8c:	015deab3          	or	s5,s11,s5
   10a90:	00d49d13          	slli	s10,s1,0xd
   10a94:	00dc1d93          	slli	s11,s8,0xd
   10a98:	8fc1                	or	a5,a5,s0
   10a9a:	013c5393          	srli	t2,s8,0x13
   10a9e:	0134d413          	srli	s0,s1,0x13
   10aa2:	013b4b33          	xor	s6,s6,s3
   10aa6:	019fcfb3          	xor	t6,t6,s9
   10aaa:	01dbceb3          	xor	t4,s7,t4
   10aae:	00fac7b3          	xor	a5,s5,a5
   10ab2:	012a4bb3          	xor	s7,s4,s2
   10ab6:	01c4da93          	srli	s5,s1,0x1c
   10aba:	008de433          	or	s0,s11,s0
   10abe:	007d63b3          	or	t2,s10,t2
   10ac2:	004c1a13          	slli	s4,s8,0x4
   10ac6:	0492                	slli	s1,s1,0x4
   10ac8:	01cc5c13          	srli	s8,s8,0x1c
   10acc:	00e2c2b3          	xor	t0,t0,a4
   10ad0:	01cfcfb3          	xor	t6,t6,t3
   10ad4:	015a6a33          	or	s4,s4,s5
   10ad8:	0184e4b3          	or	s1,s1,s8
   10adc:	8fa9                	xor	a5,a5,a0
   10ade:	00b84833          	xor	a6,a6,a1
   10ae2:	01644433          	xor	s0,s0,s6
   10ae6:	0173c3b3          	xor	t2,t2,s7
   10aea:	006f4f33          	xor	t5,t5,t1
   10aee:	011eceb3          	xor	t4,t4,a7
   10af2:	01f84833          	xor	a6,a6,t6
   10af6:	0093c3b3          	xor	t2,t2,s1
   10afa:	01444433          	xor	s0,s0,s4
   10afe:	01364633          	xor	a2,a2,s3
   10b02:	0126c6b3          	xor	a3,a3,s2
   10b06:	0057c7b3          	xor	a5,a5,t0
   10b0a:	01e64933          	xor	s2,a2,t5
   10b0e:	01d6c4b3          	xor	s1,a3,t4
   10b12:	0787c713          	xori	a4,a5,120
   10b16:	fff2ca13          	not	s4,t0
   10b1a:	ffffc993          	not	s3,t6
   10b1e:	ffff4513          	not	a0,t5
   10b22:	fff44613          	not	a2,s0
   10b26:	fff3c693          	not	a3,t2
   10b2a:	fff84e13          	not	t3,a6
   10b2e:	f877c793          	xori	a5,a5,-121
   10b32:	00ea7a33          	and	s4,s4,a4
   10b36:	0109f9b3          	and	s3,s3,a6
   10b3a:	01e7f7b3          	and	a5,a5,t5
   10b3e:	fffec593          	not	a1,t4
   10b42:	fff94313          	not	t1,s2
   10b46:	fff4c893          	not	a7,s1
   10b4a:	01257533          	and	a0,a0,s2
   10b4e:	00567633          	and	a2,a2,t0
   10b52:	01f6f6b3          	and	a3,a3,t6
   10b56:	01de7e33          	and	t3,t3,t4
   10b5a:	01264633          	xor	a2,a2,s2
   10b5e:	8ea5                	xor	a3,a3,s1
   10b60:	8d39                	xor	a0,a0,a4
   10b62:	8de5                	and	a1,a1,s1
   10b64:	0057c733          	xor	a4,a5,t0
   10b68:	0079c4b3          	xor	s1,s3,t2
   10b6c:	00837333          	and	t1,t1,s0
   10b70:	0078f8b3          	and	a7,a7,t2
   10b74:	008a4433          	xor	s0,s4,s0
   10b78:	01fe4e33          	xor	t3,t3,t6
   10b7c:	8f21                	xor	a4,a4,s0
   10b7e:	009e4e33          	xor	t3,t3,s1
   10b82:	82a6                	mv	t0,s1
   10b84:	0105c5b3          	xor	a1,a1,a6
   10b88:	00765993          	srli	s3,a2,0x7
   10b8c:	0076d913          	srli	s2,a3,0x7
   10b90:	01769813          	slli	a6,a3,0x17
   10b94:	01761793          	slli	a5,a2,0x17
   10b98:	01e34333          	xor	t1,t1,t5
   10b9c:	01d8c8b3          	xor	a7,a7,t4
   10ba0:	01969493          	slli	s1,a3,0x19
   10ba4:	8ea2                	mv	t4,s0
   10ba6:	00965f13          	srli	t5,a2,0x9
   10baa:	01961413          	slli	s0,a2,0x19
   10bae:	0096df93          	srli	t6,a3,0x9
   10bb2:	010f6f33          	or	t5,t5,a6
   10bb6:	00ffefb3          	or	t6,t6,a5
   10bba:	0134e4b3          	or	s1,s1,s3
   10bbe:	01246433          	or	s0,s0,s2
   10bc2:	01f4c4b3          	xor	s1,s1,t6
   10bc6:	01e44433          	xor	s0,s0,t5
   10bca:	003e1f93          	slli	t6,t3,0x3
   10bce:	01d75f13          	srli	t5,a4,0x1d
   10bd2:	00d2cc33          	xor	s8,t0,a3
   10bd6:	c616                	sw	t0,12(sp)
   10bd8:	01ff6fb3          	or	t6,t5,t6
   10bdc:	00371293          	slli	t0,a4,0x3
   10be0:	01de5f13          	srli	t5,t3,0x1d
   10be4:	019e1d13          	slli	s10,t3,0x19
   10be8:	005f62b3          	or	t0,t5,t0
   10bec:	00775f13          	srli	t5,a4,0x7
   10bf0:	01af6f33          	or	t5,t5,s10
   10bf4:	00a34333          	xor	t1,t1,a0
   10bf8:	00b8c8b3          	xor	a7,a7,a1
   10bfc:	c87a                	sw	t5,16(sp)
   10bfe:	01971c93          	slli	s9,a4,0x19
   10c02:	007e5f13          	srli	t5,t3,0x7
   10c06:	019f6cb3          	or	s9,t5,s9
   10c0a:	00a35d13          	srli	s10,t1,0xa
   10c0e:	01689f13          	slli	t5,a7,0x16
   10c12:	00a8db13          	srli	s6,a7,0xa
   10c16:	01af6f33          	or	t5,t5,s10
   10c1a:	01631d13          	slli	s10,t1,0x16
   10c1e:	016d6b33          	or	s6,s10,s6
   10c22:	01135b93          	srli	s7,t1,0x11
   10c26:	00f89d13          	slli	s10,a7,0xf
   10c2a:	fff54513          	not	a0,a0
   10c2e:	fff5c593          	not	a1,a1
   10c32:	00cec3b3          	xor	t2,t4,a2
   10c36:	c276                	sw	t4,4(sp)
   10c38:	017d6bb3          	or	s7,s10,s7
   10c3c:	0118de93          	srli	t4,a7,0x11
   10c40:	00f31d13          	slli	s10,t1,0xf
   10c44:	0065d913          	srli	s2,a1,0x6
   10c48:	01f51a13          	slli	s4,a0,0x1f
   10c4c:	01a51813          	slli	a6,a0,0x1a
   10c50:	01dd6eb3          	or	t4,s10,t4
   10c54:	0015dd13          	srli	s10,a1,0x1
   10c58:	01aa6a33          	or	s4,s4,s10
   10c5c:	01286833          	or	a6,a6,s2
   10c60:	010a4833          	xor	a6,s4,a6
   10c64:	4a12                	lw	s4,4(sp)
   10c66:	01f59d93          	slli	s11,a1,0x1f
   10c6a:	00655993          	srli	s3,a0,0x6
   10c6e:	00155a93          	srli	s5,a0,0x1
   10c72:	01a59793          	slli	a5,a1,0x1a
   10c76:	015deab3          	or	s5,s11,s5
   10c7a:	0137e7b3          	or	a5,a5,s3
   10c7e:	0192c2b3          	xor	t0,t0,s9
   10c82:	00fac7b3          	xor	a5,s5,a5
   10c86:	4cc2                	lw	s9,16(sp)
   10c88:	009a4ab3          	xor	s5,s4,s1
   10c8c:	4a32                	lw	s4,12(sp)
   10c8e:	00dc1d93          	slli	s11,s8,0xd
   10c92:	00d39d13          	slli	s10,t2,0xd
   10c96:	0133d993          	srli	s3,t2,0x13
   10c9a:	013c5913          	srli	s2,s8,0x13
   10c9e:	013de9b3          	or	s3,s11,s3
   10ca2:	012d6933          	or	s2,s10,s2
   10ca6:	019fcfb3          	xor	t6,t6,s9
   10caa:	017f4f33          	xor	t5,t5,s7
   10cae:	01db4eb3          	xor	t4,s6,t4
   10cb2:	01c3db93          	srli	s7,t2,0x1c
   10cb6:	008a4a33          	xor	s4,s4,s0
   10cba:	004c1b13          	slli	s6,s8,0x4
   10cbe:	0392                	slli	t2,t2,0x4
   10cc0:	01cc5c13          	srli	s8,s8,0x1c
   10cc4:	00e2c2b3          	xor	t0,t0,a4
   10cc8:	01cfcfb3          	xor	t6,t6,t3
   10ccc:	017b6b33          	or	s6,s6,s7
   10cd0:	0183e3b3          	or	t2,t2,s8
   10cd4:	8fa9                	xor	a5,a5,a0
   10cd6:	00b84833          	xor	a6,a6,a1
   10cda:	013acab3          	xor	s5,s5,s3
   10cde:	012a4a33          	xor	s4,s4,s2
   10ce2:	006f4f33          	xor	t5,t5,t1
   10ce6:	011eceb3          	xor	t4,t4,a7
   10cea:	01f84833          	xor	a6,a6,t6
   10cee:	016acab3          	xor	s5,s5,s6
   10cf2:	007a4a33          	xor	s4,s4,t2
   10cf6:	8e25                	xor	a2,a2,s1
   10cf8:	8ea1                	xor	a3,a3,s0
   10cfa:	0057c7b3          	xor	a5,a5,t0
   10cfe:	01e64433          	xor	s0,a2,t5
   10d02:	01d6c3b3          	xor	t2,a3,t4
   10d06:	0697c713          	xori	a4,a5,105
   10d0a:	fff2c913          	not	s2,t0
   10d0e:	ffffc493          	not	s1,t6
   10d12:	ffff4513          	not	a0,t5
   10d16:	fffac613          	not	a2,s5
   10d1a:	fffa4693          	not	a3,s4
   10d1e:	fff84e13          	not	t3,a6
   10d22:	f967c793          	xori	a5,a5,-106
   10d26:	00e97933          	and	s2,s2,a4
   10d2a:	01e7f7b3          	and	a5,a5,t5
   10d2e:	fffec593          	not	a1,t4
   10d32:	fff44313          	not	t1,s0
   10d36:	fff3c893          	not	a7,t2
   10d3a:	0104f4b3          	and	s1,s1,a6
   10d3e:	8d61                	and	a0,a0,s0
   10d40:	00567633          	and	a2,a2,t0
   10d44:	01f6f6b3          	and	a3,a3,t6
   10d48:	01de7e33          	and	t3,t3,t4
   10d4c:	8e21                	xor	a2,a2,s0
   10d4e:	0076c6b3          	xor	a3,a3,t2
   10d52:	01594433          	xor	s0,s2,s5
   10d56:	0144c4b3          	xor	s1,s1,s4
   10d5a:	8d39                	xor	a0,a0,a4
   10d5c:	0075f5b3          	and	a1,a1,t2
   10d60:	0057c733          	xor	a4,a5,t0
   10d64:	01537333          	and	t1,t1,s5
   10d68:	0148f8b3          	and	a7,a7,s4
   10d6c:	01fe4e33          	xor	t3,t3,t6
   10d70:	8f21                	xor	a4,a4,s0
   10d72:	009e4e33          	xor	t3,t3,s1
   10d76:	82a6                	mv	t0,s1
   10d78:	0105c5b3          	xor	a1,a1,a6
   10d7c:	00765993          	srli	s3,a2,0x7
   10d80:	0076d913          	srli	s2,a3,0x7
   10d84:	01769813          	slli	a6,a3,0x17
   10d88:	01761793          	slli	a5,a2,0x17
   10d8c:	01e34333          	xor	t1,t1,t5
   10d90:	01d8c8b3          	xor	a7,a7,t4
   10d94:	01969493          	slli	s1,a3,0x19
   10d98:	8ea2                	mv	t4,s0
   10d9a:	00965f13          	srli	t5,a2,0x9
   10d9e:	01961413          	slli	s0,a2,0x19
   10da2:	0096df93          	srli	t6,a3,0x9
   10da6:	010f6f33          	or	t5,t5,a6
   10daa:	00ffefb3          	or	t6,t6,a5
   10dae:	0134e4b3          	or	s1,s1,s3
   10db2:	01246433          	or	s0,s0,s2
   10db6:	01f4c4b3          	xor	s1,s1,t6
   10dba:	01e44433          	xor	s0,s0,t5
   10dbe:	003e1f93          	slli	t6,t3,0x3
   10dc2:	01d75f13          	srli	t5,a4,0x1d
   10dc6:	00d2cc33          	xor	s8,t0,a3
   10dca:	c616                	sw	t0,12(sp)
   10dcc:	01ff6fb3          	or	t6,t5,t6
   10dd0:	00371293          	slli	t0,a4,0x3
   10dd4:	01de5f13          	srli	t5,t3,0x1d
   10dd8:	019e1d13          	slli	s10,t3,0x19
   10ddc:	005f62b3          	or	t0,t5,t0
   10de0:	00775f13          	srli	t5,a4,0x7
   10de4:	01af6f33          	or	t5,t5,s10
   10de8:	00a34333          	xor	t1,t1,a0
   10dec:	00b8c8b3          	xor	a7,a7,a1
   10df0:	c87a                	sw	t5,16(sp)
   10df2:	01971c93          	slli	s9,a4,0x19
   10df6:	007e5f13          	srli	t5,t3,0x7
   10dfa:	019f6cb3          	or	s9,t5,s9
   10dfe:	00a35d13          	srli	s10,t1,0xa
   10e02:	01689f13          	slli	t5,a7,0x16
   10e06:	00a8db13          	srli	s6,a7,0xa
   10e0a:	01af6f33          	or	t5,t5,s10
   10e0e:	01631d13          	slli	s10,t1,0x16
   10e12:	016d6b33          	or	s6,s10,s6
   10e16:	01135b93          	srli	s7,t1,0x11
   10e1a:	00f89d13          	slli	s10,a7,0xf
   10e1e:	fff54513          	not	a0,a0
   10e22:	fff5c593          	not	a1,a1
   10e26:	00cec3b3          	xor	t2,t4,a2
   10e2a:	c276                	sw	t4,4(sp)
   10e2c:	017d6bb3          	or	s7,s10,s7
   10e30:	0118de93          	srli	t4,a7,0x11
   10e34:	00f31d13          	slli	s10,t1,0xf
   10e38:	0065d913          	srli	s2,a1,0x6
   10e3c:	01f51a13          	slli	s4,a0,0x1f
   10e40:	01a51813          	slli	a6,a0,0x1a
   10e44:	01dd6eb3          	or	t4,s10,t4
   10e48:	0015dd13          	srli	s10,a1,0x1
   10e4c:	01aa6a33          	or	s4,s4,s10
   10e50:	01286833          	or	a6,a6,s2
   10e54:	0192c2b3          	xor	t0,t0,s9
   10e58:	010a4833          	xor	a6,s4,a6
   10e5c:	4cc2                	lw	s9,16(sp)
   10e5e:	4a12                	lw	s4,4(sp)
   10e60:	01f59d93          	slli	s11,a1,0x1f
   10e64:	00655993          	srli	s3,a0,0x6
   10e68:	00155a93          	srli	s5,a0,0x1
   10e6c:	01a59793          	slli	a5,a1,0x1a
   10e70:	015deab3          	or	s5,s11,s5
   10e74:	0137e7b3          	or	a5,a5,s3
   10e78:	00fac7b3          	xor	a5,s5,a5
   10e7c:	009a4ab3          	xor	s5,s4,s1
   10e80:	4a32                	lw	s4,12(sp)
   10e82:	00dc1d93          	slli	s11,s8,0xd
   10e86:	00d39d13          	slli	s10,t2,0xd
   10e8a:	0133d993          	srli	s3,t2,0x13
   10e8e:	013c5913          	srli	s2,s8,0x13
   10e92:	013de9b3          	or	s3,s11,s3
   10e96:	012d6933          	or	s2,s10,s2
   10e9a:	019fcfb3          	xor	t6,t6,s9
   10e9e:	017f4f33          	xor	t5,t5,s7
   10ea2:	01db4eb3          	xor	t4,s6,t4
   10ea6:	01c3db93          	srli	s7,t2,0x1c
   10eaa:	008a4a33          	xor	s4,s4,s0
   10eae:	004c1b13          	slli	s6,s8,0x4
   10eb2:	0392                	slli	t2,t2,0x4
   10eb4:	01cc5c13          	srli	s8,s8,0x1c
   10eb8:	01cfcfb3          	xor	t6,t6,t3
   10ebc:	017b6b33          	or	s6,s6,s7
   10ec0:	0183e3b3          	or	t2,t2,s8
   10ec4:	00b84833          	xor	a6,a6,a1
   10ec8:	013acab3          	xor	s5,s5,s3
   10ecc:	012a4a33          	xor	s4,s4,s2
   10ed0:	00e2c2b3          	xor	t0,t0,a4
   10ed4:	006f4f33          	xor	t5,t5,t1
   10ed8:	011eceb3          	xor	t4,t4,a7
   10edc:	01f84833          	xor	a6,a6,t6
   10ee0:	007a4a33          	xor	s4,s4,t2
   10ee4:	016acab3          	xor	s5,s5,s6
   10ee8:	8e25                	xor	a2,a2,s1
   10eea:	8ea1                	xor	a3,a3,s0
   10eec:	8fa9                	xor	a5,a5,a0
   10eee:	01e64433          	xor	s0,a2,t5
   10ef2:	01d6c3b3          	xor	t2,a3,t4
   10ef6:	0057c7b3          	xor	a5,a5,t0
   10efa:	ffffc493          	not	s1,t6
   10efe:	fffac613          	not	a2,s5
   10f02:	fffa4693          	not	a3,s4
   10f06:	fff84e13          	not	t3,a6
   10f0a:	05a7c713          	xori	a4,a5,90
   10f0e:	0104f4b3          	and	s1,s1,a6
   10f12:	fff2c913          	not	s2,t0
   10f16:	ffff4513          	not	a0,t5
   10f1a:	fffec593          	not	a1,t4
   10f1e:	fff44313          	not	t1,s0
   10f22:	fff3c893          	not	a7,t2
   10f26:	00567633          	and	a2,a2,t0
   10f2a:	01f6f6b3          	and	a3,a3,t6
   10f2e:	01de7e33          	and	t3,t3,t4
   10f32:	fa57c793          	xori	a5,a5,-91
   10f36:	8e21                	xor	a2,a2,s0
   10f38:	0076c6b3          	xor	a3,a3,t2
   10f3c:	00e97933          	and	s2,s2,a4
   10f40:	01e7f7b3          	and	a5,a5,t5
   10f44:	8d61                	and	a0,a0,s0
   10f46:	0075f5b3          	and	a1,a1,t2
   10f4a:	0144c433          	xor	s0,s1,s4
   10f4e:	01537333          	and	t1,t1,s5
   10f52:	0148f8b3          	and	a7,a7,s4
   10f56:	01fe4e33          	xor	t3,t3,t6
   10f5a:	008e4e33          	xor	t3,t3,s0
   10f5e:	01594b33          	xor	s6,s2,s5
   10f62:	8d39                	xor	a0,a0,a4
   10f64:	0105c5b3          	xor	a1,a1,a6
   10f68:	0057c733          	xor	a4,a5,t0
   10f6c:	0076d393          	srli	t2,a3,0x7
   10f70:	01769813          	slli	a6,a3,0x17
   10f74:	01761793          	slli	a5,a2,0x17
   10f78:	01e34333          	xor	t1,t1,t5
   10f7c:	01d8c8b3          	xor	a7,a7,t4
   10f80:	01969993          	slli	s3,a3,0x19
   10f84:	8ea2                	mv	t4,s0
   10f86:	01961913          	slli	s2,a2,0x19
   10f8a:	00765413          	srli	s0,a2,0x7
   10f8e:	00965f13          	srli	t5,a2,0x9
   10f92:	0096df93          	srli	t6,a3,0x9
   10f96:	01674733          	xor	a4,a4,s6
   10f9a:	010f6f33          	or	t5,t5,a6
   10f9e:	00ffefb3          	or	t6,t6,a5
   10fa2:	0089e9b3          	or	s3,s3,s0
   10fa6:	00796933          	or	s2,s2,t2
   10faa:	01f9c9b3          	xor	s3,s3,t6
   10fae:	01e94933          	xor	s2,s2,t5
   10fb2:	003e1f93          	slli	t6,t3,0x3
   10fb6:	01d75f13          	srli	t5,a4,0x1d
   10fba:	00371293          	slli	t0,a4,0x3
   10fbe:	01ff6fb3          	or	t6,t5,t6
   10fc2:	01de5f13          	srli	t5,t3,0x1d
   10fc6:	019e1d13          	slli	s10,t3,0x19
   10fca:	005f62b3          	or	t0,t5,t0
   10fce:	00775f13          	srli	t5,a4,0x7
   10fd2:	01af6f33          	or	t5,t5,s10
   10fd6:	00a34333          	xor	t1,t1,a0
   10fda:	00b8c8b3          	xor	a7,a7,a1
   10fde:	c67a                	sw	t5,12(sp)
   10fe0:	01971c93          	slli	s9,a4,0x19
   10fe4:	007e5f13          	srli	t5,t3,0x7
   10fe8:	019f6cb3          	or	s9,t5,s9
   10fec:	00a35d13          	srli	s10,t1,0xa
   10ff0:	01689f13          	slli	t5,a7,0x16
   10ff4:	00a8dd93          	srli	s11,a7,0xa
   10ff8:	01af6f33          	or	t5,t5,s10
   10ffc:	01631d13          	slli	s10,t1,0x16
   11000:	01bd6db3          	or	s11,s10,s11
   11004:	01135b93          	srli	s7,t1,0x11
   11008:	00f89d13          	slli	s10,a7,0xf
   1100c:	c276                	sw	t4,4(sp)
   1100e:	fff54513          	not	a0,a0
   11012:	fff5c593          	not	a1,a1
   11016:	00decc33          	xor	s8,t4,a3
   1101a:	017d6bb3          	or	s7,s10,s7
   1101e:	0118de93          	srli	t4,a7,0x11
   11022:	00f31d13          	slli	s10,t1,0xf
   11026:	0065d393          	srli	t2,a1,0x6
   1102a:	01f51a13          	slli	s4,a0,0x1f
   1102e:	01a51813          	slli	a6,a0,0x1a
   11032:	01dd6eb3          	or	t4,s10,t4
   11036:	0015dd13          	srli	s10,a1,0x1
   1103a:	c86e                	sw	s11,16(sp)
   1103c:	01aa6a33          	or	s4,s4,s10
   11040:	00786833          	or	a6,a6,t2
   11044:	0192c2b3          	xor	t0,t0,s9
   11048:	017f4f33          	xor	t5,t5,s7
   1104c:	4cb2                	lw	s9,12(sp)
   1104e:	4bc2                	lw	s7,16(sp)
   11050:	010a4833          	xor	a6,s4,a6
   11054:	4a12                	lw	s4,4(sp)
   11056:	00cb44b3          	xor	s1,s6,a2
   1105a:	00655413          	srli	s0,a0,0x6
   1105e:	01f59d93          	slli	s11,a1,0x1f
   11062:	00155a93          	srli	s5,a0,0x1
   11066:	01a59793          	slli	a5,a1,0x1a
   1106a:	015deab3          	or	s5,s11,s5
   1106e:	00d49d13          	slli	s10,s1,0xd
   11072:	00dc1d93          	slli	s11,s8,0xd
   11076:	8fc1                	or	a5,a5,s0
   11078:	013c5393          	srli	t2,s8,0x13
   1107c:	0134d413          	srli	s0,s1,0x13
   11080:	013b4b33          	xor	s6,s6,s3
   11084:	019fcfb3          	xor	t6,t6,s9
   11088:	01dbceb3          	xor	t4,s7,t4
   1108c:	00fac7b3          	xor	a5,s5,a5
   11090:	012a4bb3          	xor	s7,s4,s2
   11094:	01c4da93          	srli	s5,s1,0x1c
   11098:	008de433          	or	s0,s11,s0
   1109c:	007d63b3          	or	t2,s10,t2
   110a0:	004c1a13          	slli	s4,s8,0x4
   110a4:	0492                	slli	s1,s1,0x4
   110a6:	01cc5c13          	srli	s8,s8,0x1c
   110aa:	00e2c2b3          	xor	t0,t0,a4
   110ae:	01cfcfb3          	xor	t6,t6,t3
   110b2:	00b84833          	xor	a6,a6,a1
   110b6:	015a6a33          	or	s4,s4,s5
   110ba:	0184e4b3          	or	s1,s1,s8
   110be:	8fa9                	xor	a5,a5,a0
   110c0:	01644433          	xor	s0,s0,s6
   110c4:	0173c3b3          	xor	t2,t2,s7
   110c8:	006f4f33          	xor	t5,t5,t1
   110cc:	01444433          	xor	s0,s0,s4
   110d0:	0093c3b3          	xor	t2,t2,s1
   110d4:	01364633          	xor	a2,a2,s3
   110d8:	0057c7b3          	xor	a5,a5,t0
   110dc:	01f849b3          	xor	s3,a6,t6
   110e0:	011eceb3          	xor	t4,t4,a7
   110e4:	04b7ca13          	xori	s4,a5,75
   110e8:	0126c6b3          	xor	a3,a3,s2
   110ec:	fff2c593          	not	a1,t0
   110f0:	01e64933          	xor	s2,a2,t5
   110f4:	fff44e13          	not	t3,s0
   110f8:	ffffc613          	not	a2,t6
   110fc:	fff3c313          	not	t1,t2
   11100:	fff9c893          	not	a7,s3
   11104:	fb47c793          	xori	a5,a5,-76
   11108:	01d6c4b3          	xor	s1,a3,t4
   1110c:	0145f5b3          	and	a1,a1,s4
   11110:	01367633          	and	a2,a2,s3
   11114:	005e7e33          	and	t3,t3,t0
   11118:	01f37333          	and	t1,t1,t6
   1111c:	01e7f7b3          	and	a5,a5,t5
   11120:	01d8f8b3          	and	a7,a7,t4
   11124:	012e4e33          	xor	t3,t3,s2
   11128:	00934333          	xor	t1,t1,s1
   1112c:	8da1                	xor	a1,a1,s0
   1112e:	00764633          	xor	a2,a2,t2
   11132:	0057c7b3          	xor	a5,a5,t0
   11136:	01f8c8b3          	xor	a7,a7,t6
   1113a:	00b7c2b3          	xor	t0,a5,a1
   1113e:	00c8c8b3          	xor	a7,a7,a2
   11142:	01c5c5b3          	xor	a1,a1,t3
   11146:	00664633          	xor	a2,a2,t1
   1114a:	fff94813          	not	a6,s2
   1114e:	00887833          	and	a6,a6,s0
   11152:	00d61793          	slli	a5,a2,0xd
   11156:	0135d413          	srli	s0,a1,0x13
   1115a:	8c5d                	or	s0,s0,a5
   1115c:	fff4c513          	not	a0,s1
   11160:	c822                	sw	s0,16(sp)
   11162:	ffff4693          	not	a3,t5
   11166:	00757533          	and	a0,a0,t2
   1116a:	00d59793          	slli	a5,a1,0xd
   1116e:	01365413          	srli	s0,a2,0x13
   11172:	8c5d                	or	s0,s0,a5
   11174:	fffec713          	not	a4,t4
   11178:	0126f6b3          	and	a3,a3,s2
   1117c:	01d54533          	xor	a0,a0,t4
   11180:	01c5d793          	srli	a5,a1,0x1c
   11184:	00461e93          	slli	t4,a2,0x4
   11188:	0146c6b3          	xor	a3,a3,s4
   1118c:	00feeeb3          	or	t4,t4,a5
   11190:	01c65a13          	srli	s4,a2,0x1c
   11194:	00459793          	slli	a5,a1,0x4
   11198:	0072d913          	srli	s2,t0,0x7
   1119c:	8f65                	and	a4,a4,s1
   1119e:	01d2dd13          	srli	s10,t0,0x1d
   111a2:	0147ea33          	or	s4,a5,s4
   111a6:	00389793          	slli	a5,a7,0x3
   111aa:	c24a                	sw	s2,4(sp)
   111ac:	01374733          	xor	a4,a4,s3
   111b0:	00fd6d33          	or	s10,s10,a5
   111b4:	00329993          	slli	s3,t0,0x3
   111b8:	01d8d793          	srli	a5,a7,0x1d
   111bc:	0137e9b3          	or	s3,a5,s3
   111c0:	4792                	lw	a5,4(sp)
   111c2:	01e84833          	xor	a6,a6,t5
   111c6:	01989913          	slli	s2,a7,0x19
   111ca:	00d84833          	xor	a6,a6,a3
   111ce:	8d39                	xor	a0,a0,a4
   111d0:	fff6c693          	not	a3,a3
   111d4:	fff74713          	not	a4,a4
   111d8:	01929d93          	slli	s11,t0,0x19
   111dc:	0127e933          	or	s2,a5,s2
   111e0:	0078d793          	srli	a5,a7,0x7
   111e4:	ca22                	sw	s0,20(sp)
   111e6:	01b7edb3          	or	s11,a5,s11
   111ea:	0016d413          	srli	s0,a3,0x1
   111ee:	01f71793          	slli	a5,a4,0x1f
   111f2:	8c5d                	or	s0,s0,a5
   111f4:	00175c93          	srli	s9,a4,0x1
   111f8:	01f69793          	slli	a5,a3,0x1f
   111fc:	0197ecb3          	or	s9,a5,s9
   11200:	0066d493          	srli	s1,a3,0x6
   11204:	01a71793          	slli	a5,a4,0x1a
   11208:	c222                	sw	s0,4(sp)
   1120a:	8cdd                	or	s1,s1,a5
   1120c:	00675413          	srli	s0,a4,0x6
   11210:	01a69793          	slli	a5,a3,0x1a
   11214:	8c5d                	or	s0,s0,a5
   11216:	00a85c13          	srli	s8,a6,0xa
   1121a:	01651793          	slli	a5,a0,0x16
   1121e:	0187ec33          	or	s8,a5,s8
   11222:	00a55b93          	srli	s7,a0,0xa
   11226:	01681793          	slli	a5,a6,0x16
   1122a:	0177ebb3          	or	s7,a5,s7
   1122e:	01185393          	srli	t2,a6,0x11
   11232:	00f51793          	slli	a5,a0,0xf
   11236:	c616                	sw	t0,12(sp)
   11238:	0077e3b3          	or	t2,a5,t2
   1123c:	01155293          	srli	t0,a0,0x11
   11240:	00f81793          	slli	a5,a6,0xf
   11244:	0057e2b3          	or	t0,a5,t0
   11248:	007e5b13          	srli	s6,t3,0x7
   1124c:	01931793          	slli	a5,t1,0x19
   11250:	0167eb33          	or	s6,a5,s6
   11254:	00735a93          	srli	s5,t1,0x7
   11258:	019e1793          	slli	a5,t3,0x19
   1125c:	0157eab3          	or	s5,a5,s5
   11260:	01731f13          	slli	t5,t1,0x17
   11264:	009e5793          	srli	a5,t3,0x9
   11268:	01e7ef33          	or	t5,a5,t5
   1126c:	017e1f93          	slli	t6,t3,0x17
   11270:	00935793          	srli	a5,t1,0x9
   11274:	01f7efb3          	or	t6,a5,t6
   11278:	47c2                	lw	a5,16(sp)
   1127a:	008cc433          	xor	s0,s9,s0
   1127e:	8c39                	xor	s0,s0,a4
   11280:	01d7ceb3          	xor	t4,a5,t4
   11284:	47d2                	lw	a5,20(sp)
   11286:	4722                	lw	a4,8(sp)
   11288:	01b9c9b3          	xor	s3,s3,s11
   1128c:	0147ca33          	xor	s4,a5,s4
   11290:	4792                	lw	a5,4(sp)
   11292:	cb40                	sw	s0,20(a4)
   11294:	4436                	lw	s0,76(sp)
   11296:	8cbd                	xor	s1,s1,a5
   11298:	47b2                	lw	a5,12(sp)
   1129a:	012d4933          	xor	s2,s10,s2
   1129e:	007c43b3          	xor	t2,s8,t2
   112a2:	005bc2b3          	xor	t0,s7,t0
   112a6:	01fb4fb3          	xor	t6,s6,t6
   112aa:	01eacf33          	xor	t5,s5,t5
   112ae:	00ca4a33          	xor	s4,s4,a2
   112b2:	00f9c9b3          	xor	s3,s3,a5
   112b6:	01194933          	xor	s2,s2,a7
   112ba:	8cb5                	xor	s1,s1,a3
   112bc:	00beceb3          	xor	t4,t4,a1
   112c0:	0103c3b3          	xor	t2,t2,a6
   112c4:	00a2c2b3          	xor	t0,t0,a0
   112c8:	01cfcfb3          	xor	t6,t6,t3
   112cc:	006f4f33          	xor	t5,t5,t1
   112d0:	01472223          	sw	s4,4(a4)
   112d4:	01272623          	sw	s2,12(a4)
   112d8:	cb04                	sw	s1,16(a4)
   112da:	4916                	lw	s2,68(sp)
   112dc:	44a6                	lw	s1,72(sp)
   112de:	01d72023          	sw	t4,0(a4)
   112e2:	01372423          	sw	s3,8(a4)
   112e6:	00772c23          	sw	t2,24(a4)
   112ea:	00572e23          	sw	t0,28(a4)
   112ee:	03f72023          	sw	t6,32(a4)
   112f2:	03e72223          	sw	t5,36(a4)
   112f6:	4986                	lw	s3,64(sp)
   112f8:	5a72                	lw	s4,60(sp)
   112fa:	5ae2                	lw	s5,56(sp)
   112fc:	5b52                	lw	s6,52(sp)
   112fe:	5bc2                	lw	s7,48(sp)
   11300:	5c32                	lw	s8,44(sp)
   11302:	5ca2                	lw	s9,40(sp)
   11304:	5d12                	lw	s10,36(sp)
   11306:	5d82                	lw	s11,32(sp)
   11308:	6161                	addi	sp,sp,80
   1130a:	8082                	ret

0001130c <P12>:
   1130c:	715d                	addi	sp,sp,-80
   1130e:	c6a2                	sw	s0,76(sp)
   11310:	4954                	lw	a3,20(a0)
   11312:	4540                	lw	s0,12(a0)
   11314:	c4a6                	sw	s1,72(sp)
   11316:	491c                	lw	a5,16(a0)
   11318:	4504                	lw	s1,8(a0)
   1131a:	4d50                	lw	a2,28(a0)
   1131c:	02452303          	lw	t1,36(a0)
   11320:	00452383          	lw	t2,4(a0)
   11324:	de52                	sw	s4,60(sp)
   11326:	01852883          	lw	a7,24(a0)
   1132a:	8ea1                	xor	a3,a3,s0
   1132c:	02052e03          	lw	t3,32(a0)
   11330:	00052a03          	lw	s4,0(a0)
   11334:	8fa5                	xor	a5,a5,s1
   11336:	fff44593          	not	a1,s0
   1133a:	fff6c293          	not	t0,a3
   1133e:	dc56                	sw	s5,56(sp)
   11340:	0063c3b3          	xor	t2,t2,t1
   11344:	0f07ca93          	xori	s5,a5,240
   11348:	c42a                	sw	a0,8(sp)
   1134a:	f0f7c713          	xori	a4,a5,-241
   1134e:	fff4c513          	not	a0,s1
   11352:	8df5                	and	a1,a1,a3
   11354:	00c2f2b3          	and	t0,t0,a2
   11358:	c2ca                	sw	s2,68(sp)
   1135a:	01ca4a33          	xor	s4,s4,t3
   1135e:	00c34333          	xor	t1,t1,a2
   11362:	0075c5b3          	xor	a1,a1,t2
   11366:	fff64813          	not	a6,a2
   1136a:	fff3c913          	not	s2,t2
   1136e:	01557533          	and	a0,a0,s5
   11372:	01177733          	and	a4,a4,a7
   11376:	0082c2b3          	xor	t0,t0,s0
   1137a:	00b2c2b3          	xor	t0,t0,a1
   1137e:	011e4e33          	xor	t3,t3,a7
   11382:	01454533          	xor	a0,a0,s4
   11386:	fff8ce93          	not	t4,a7
   1138a:	00687833          	and	a6,a6,t1
   1138e:	fff34f13          	not	t5,t1
   11392:	00897933          	and	s2,s2,s0
   11396:	8f25                	xor	a4,a4,s1
   11398:	00694933          	xor	s2,s2,t1
   1139c:	8f29                	xor	a4,a4,a0
   1139e:	00d84833          	xor	a6,a6,a3
   113a2:	00329793          	slli	a5,t0,0x3
   113a6:	01cefeb3          	and	t4,t4,t3
   113aa:	fffe4f93          	not	t6,t3
   113ae:	007f7f33          	and	t5,t5,t2
   113b2:	c0ce                	sw	s3,64(sp)
   113b4:	015eceb3          	xor	t4,t4,s5
   113b8:	fffa4993          	not	s3,s4
   113bc:	0125cab3          	xor	s5,a1,s2
   113c0:	014fffb3          	and	t6,t6,s4
   113c4:	85be                	mv	a1,a5
   113c6:	010f4f33          	xor	t5,t5,a6
   113ca:	01d75a13          	srli	s4,a4,0x1d
   113ce:	00cf4f33          	xor	t5,t5,a2
   113d2:	00ba6a33          	or	s4,s4,a1
   113d6:	00371613          	slli	a2,a4,0x3
   113da:	01d2d593          	srli	a1,t0,0x1d
   113de:	8e4d                	or	a2,a2,a1
   113e0:	ca32                	sw	a2,20(sp)
   113e2:	01929593          	slli	a1,t0,0x19
   113e6:	00775613          	srli	a2,a4,0x7
   113ea:	8e4d                	or	a2,a2,a1
   113ec:	01dfcfb3          	xor	t6,t6,t4
   113f0:	011fcfb3          	xor	t6,t6,a7
   113f4:	cc32                	sw	a2,24(sp)
   113f6:	0099f9b3          	and	s3,s3,s1
   113fa:	0072d613          	srli	a2,t0,0x7
   113fe:	01971493          	slli	s1,a4,0x19
   11402:	00afd413          	srli	s0,t6,0xa
   11406:	8cd1                	or	s1,s1,a2
   11408:	016f1613          	slli	a2,t5,0x16
   1140c:	00af5593          	srli	a1,t5,0xa
   11410:	8c51                	or	s0,s0,a2
   11412:	016f9613          	slli	a2,t6,0x16
   11416:	8e4d                	or	a2,a2,a1
   11418:	d06e                	sw	s11,32(sp)
   1141a:	ce32                	sw	a2,28(sp)
   1141c:	011fdd93          	srli	s11,t6,0x11
   11420:	00ff1613          	slli	a2,t5,0xf
   11424:	01c9c9b3          	xor	s3,s3,t3
   11428:	01b66db3          	or	s11,a2,s11
   1142c:	011f5393          	srli	t2,t5,0x11
   11430:	00ff9613          	slli	a2,t6,0xf
   11434:	d26a                	sw	s10,36(sp)
   11436:	007663b3          	or	t2,a2,t2
   1143a:	0079dd13          	srli	s10,s3,0x7
   1143e:	01991613          	slli	a2,s2,0x19
   11442:	d466                	sw	s9,40(sp)
   11444:	01a66d33          	or	s10,a2,s10
   11448:	00795c93          	srli	s9,s2,0x7
   1144c:	01999613          	slli	a2,s3,0x19
   11450:	01966cb3          	or	s9,a2,s9
   11454:	01791693          	slli	a3,s2,0x17
   11458:	0099d613          	srli	a2,s3,0x9
   1145c:	fffece93          	not	t4,t4
   11460:	fff84813          	not	a6,a6
   11464:	01799593          	slli	a1,s3,0x17
   11468:	8ed1                	or	a3,a3,a2
   1146a:	00995613          	srli	a2,s2,0x9
   1146e:	d662                	sw	s8,44(sp)
   11470:	8e4d                	or	a2,a2,a1
   11472:	001edc13          	srli	s8,t4,0x1
   11476:	01f81593          	slli	a1,a6,0x1f
   1147a:	d85e                	sw	s7,48(sp)
   1147c:	0185ec33          	or	s8,a1,s8
   11480:	00185b93          	srli	s7,a6,0x1
   11484:	01fe9593          	slli	a1,t4,0x1f
   11488:	00da9313          	slli	t1,s5,0xd
   1148c:	0175ebb3          	or	s7,a1,s7
   11490:	006ed793          	srli	a5,t4,0x6
   11494:	01a81593          	slli	a1,a6,0x1a
   11498:	c61a                	sw	t1,12(sp)
   1149a:	00685893          	srli	a7,a6,0x6
   1149e:	8fcd                	or	a5,a5,a1
   114a0:	01ae9593          	slli	a1,t4,0x1a
   114a4:	0115e8b3          	or	a7,a1,a7
   114a8:	45b2                	lw	a1,12(sp)
   114aa:	01354533          	xor	a0,a0,s3
   114ae:	8356                	mv	t1,s5
   114b0:	da5a                	sw	s6,52(sp)
   114b2:	0312                	slli	t1,t1,0x4
   114b4:	01355b13          	srli	s6,a0,0x13
   114b8:	c256                	sw	s5,4(sp)
   114ba:	c81a                	sw	t1,16(sp)
   114bc:	0165eb33          	or	s6,a1,s6
   114c0:	013ada93          	srli	s5,s5,0x13
   114c4:	00d51593          	slli	a1,a0,0xd
   114c8:	4312                	lw	t1,4(sp)
   114ca:	0155eab3          	or	s5,a1,s5
   114ce:	45c2                	lw	a1,16(sp)
   114d0:	01c55e13          	srli	t3,a0,0x1c
   114d4:	01c35313          	srli	t1,t1,0x1c
   114d8:	01c5ee33          	or	t3,a1,t3
   114dc:	00451593          	slli	a1,a0,0x4
   114e0:	0065e333          	or	t1,a1,t1
   114e4:	45d2                	lw	a1,20(sp)
   114e6:	006ac333          	xor	t1,s5,t1
   114ea:	4a92                	lw	s5,4(sp)
   114ec:	8cad                	xor	s1,s1,a1
   114ee:	45e2                	lw	a1,24(sp)
   114f0:	00cd4633          	xor	a2,s10,a2
   114f4:	00dcc6b3          	xor	a3,s9,a3
   114f8:	00ba4a33          	xor	s4,s4,a1
   114fc:	45f2                	lw	a1,28(sp)
   114fe:	011bc8b3          	xor	a7,s7,a7
   11502:	01cb4e33          	xor	t3,s6,t3
   11506:	005a4a33          	xor	s4,s4,t0
   1150a:	01364633          	xor	a2,a2,s3
   1150e:	0126c6b3          	xor	a3,a3,s2
   11512:	0108c8b3          	xor	a7,a7,a6
   11516:	00ae4e33          	xor	t3,t3,a0
   1151a:	01534333          	xor	t1,t1,s5
   1151e:	01b44433          	xor	s0,s0,s11
   11522:	0075c3b3          	xor	t2,a1,t2
   11526:	00fc47b3          	xor	a5,s8,a5
   1152a:	8cb9                	xor	s1,s1,a4
   1152c:	01f44433          	xor	s0,s0,t6
   11530:	01e3c3b3          	xor	t2,t2,t5
   11534:	0148c733          	xor	a4,a7,s4
   11538:	00d34833          	xor	a6,t1,a3
   1153c:	01d7c7b3          	xor	a5,a5,t4
   11540:	00ce4eb3          	xor	t4,t3,a2
   11544:	00d3c6b3          	xor	a3,t2,a3
   11548:	8e21                	xor	a2,a2,s0
   1154a:	8fa5                	xor	a5,a5,s1
   1154c:	fffa4f13          	not	t5,s4
   11550:	fffec993          	not	s3,t4
   11554:	fff84293          	not	t0,a6
   11558:	fff74e13          	not	t3,a4
   1155c:	0e17c913          	xori	s2,a5,225
   11560:	00ef7f33          	and	t5,t5,a4
   11564:	0099f9b3          	and	s3,s3,s1
   11568:	0142f2b3          	and	t0,t0,s4
   1156c:	fff4cf93          	not	t6,s1
   11570:	fff44513          	not	a0,s0
   11574:	fff3c593          	not	a1,t2
   11578:	fff64313          	not	t1,a2
   1157c:	fff6c893          	not	a7,a3
   11580:	007e7e33          	and	t3,t3,t2
   11584:	f1e7c793          	xori	a5,a5,-226
   11588:	012fffb3          	and	t6,t6,s2
   1158c:	8fe1                	and	a5,a5,s0
   1158e:	8d71                	and	a0,a0,a2
   11590:	8df5                	and	a1,a1,a3
   11592:	00c9c633          	xor	a2,s3,a2
   11596:	00d2c6b3          	xor	a3,t0,a3
   1159a:	01d37333          	and	t1,t1,t4
   1159e:	0108f8b3          	and	a7,a7,a6
   115a2:	014e4e33          	xor	t3,t3,s4
   115a6:	010f4833          	xor	a6,t5,a6
   115aa:	010e4e33          	xor	t3,t3,a6
   115ae:	01dfcb33          	xor	s6,t6,t4
   115b2:	01254533          	xor	a0,a0,s2
   115b6:	8ec2                	mv	t4,a6
   115b8:	8db9                	xor	a1,a1,a4
   115ba:	01769813          	slli	a6,a3,0x17
   115be:	0097c733          	xor	a4,a5,s1
   115c2:	00834333          	xor	t1,t1,s0
   115c6:	01761793          	slli	a5,a2,0x17
   115ca:	00765413          	srli	s0,a2,0x7
   115ce:	0078c8b3          	xor	a7,a7,t2
   115d2:	01969993          	slli	s3,a3,0x19
   115d6:	0076d393          	srli	t2,a3,0x7
   115da:	01961913          	slli	s2,a2,0x19
   115de:	00965f13          	srli	t5,a2,0x9
   115e2:	0096df93          	srli	t6,a3,0x9
   115e6:	01674733          	xor	a4,a4,s6
   115ea:	010f6f33          	or	t5,t5,a6
   115ee:	00ffefb3          	or	t6,t6,a5
   115f2:	0089e9b3          	or	s3,s3,s0
   115f6:	00796933          	or	s2,s2,t2
   115fa:	01f9c9b3          	xor	s3,s3,t6
   115fe:	01e94933          	xor	s2,s2,t5
   11602:	003e1f93          	slli	t6,t3,0x3
   11606:	01d75f13          	srli	t5,a4,0x1d
   1160a:	00371293          	slli	t0,a4,0x3
   1160e:	01ff6fb3          	or	t6,t5,t6
   11612:	01de5f13          	srli	t5,t3,0x1d
   11616:	019e1d13          	slli	s10,t3,0x19
   1161a:	005f62b3          	or	t0,t5,t0
   1161e:	00775f13          	srli	t5,a4,0x7
   11622:	01af6f33          	or	t5,t5,s10
   11626:	c67a                	sw	t5,12(sp)
   11628:	00a34333          	xor	t1,t1,a0
   1162c:	00b8c8b3          	xor	a7,a7,a1
   11630:	007e5f13          	srli	t5,t3,0x7
   11634:	01971c93          	slli	s9,a4,0x19
   11638:	019f6cb3          	or	s9,t5,s9
   1163c:	00a35d13          	srli	s10,t1,0xa
   11640:	01689f13          	slli	t5,a7,0x16
   11644:	00a8dd93          	srli	s11,a7,0xa
   11648:	01af6f33          	or	t5,t5,s10
   1164c:	01631d13          	slli	s10,t1,0x16
   11650:	01bd6db3          	or	s11,s10,s11
   11654:	01135b93          	srli	s7,t1,0x11
   11658:	00f89d13          	slli	s10,a7,0xf
   1165c:	c276                	sw	t4,4(sp)
   1165e:	fff54513          	not	a0,a0
   11662:	fff5c593          	not	a1,a1
   11666:	00decc33          	xor	s8,t4,a3
   1166a:	017d6bb3          	or	s7,s10,s7
   1166e:	0118de93          	srli	t4,a7,0x11
   11672:	00f31d13          	slli	s10,t1,0xf
   11676:	0065d393          	srli	t2,a1,0x6
   1167a:	01f51a13          	slli	s4,a0,0x1f
   1167e:	01a51813          	slli	a6,a0,0x1a
   11682:	01dd6eb3          	or	t4,s10,t4
   11686:	0015dd13          	srli	s10,a1,0x1
   1168a:	c86e                	sw	s11,16(sp)
   1168c:	01aa6a33          	or	s4,s4,s10
   11690:	00786833          	or	a6,a6,t2
   11694:	0192c2b3          	xor	t0,t0,s9
   11698:	017f4f33          	xor	t5,t5,s7
   1169c:	4cb2                	lw	s9,12(sp)
   1169e:	4bc2                	lw	s7,16(sp)
   116a0:	010a4833          	xor	a6,s4,a6
   116a4:	4a12                	lw	s4,4(sp)
   116a6:	00cb44b3          	xor	s1,s6,a2
   116aa:	00655413          	srli	s0,a0,0x6
   116ae:	01f59d93          	slli	s11,a1,0x1f
   116b2:	00155a93          	srli	s5,a0,0x1
   116b6:	01a59793          	slli	a5,a1,0x1a
   116ba:	015deab3          	or	s5,s11,s5
   116be:	00d49d13          	slli	s10,s1,0xd
   116c2:	00dc1d93          	slli	s11,s8,0xd
   116c6:	8fc1                	or	a5,a5,s0
   116c8:	013c5393          	srli	t2,s8,0x13
   116cc:	0134d413          	srli	s0,s1,0x13
   116d0:	013b4b33          	xor	s6,s6,s3
   116d4:	019fcfb3          	xor	t6,t6,s9
   116d8:	01dbceb3          	xor	t4,s7,t4
   116dc:	00fac7b3          	xor	a5,s5,a5
   116e0:	012a4bb3          	xor	s7,s4,s2
   116e4:	01c4da93          	srli	s5,s1,0x1c
   116e8:	008de433          	or	s0,s11,s0
   116ec:	007d63b3          	or	t2,s10,t2
   116f0:	004c1a13          	slli	s4,s8,0x4
   116f4:	0492                	slli	s1,s1,0x4
   116f6:	01cc5c13          	srli	s8,s8,0x1c
   116fa:	00e2c2b3          	xor	t0,t0,a4
   116fe:	01cfcfb3          	xor	t6,t6,t3
   11702:	015a6a33          	or	s4,s4,s5
   11706:	0184e4b3          	or	s1,s1,s8
   1170a:	8fa9                	xor	a5,a5,a0
   1170c:	00b84833          	xor	a6,a6,a1
   11710:	01644433          	xor	s0,s0,s6
   11714:	0173c3b3          	xor	t2,t2,s7
   11718:	006f4f33          	xor	t5,t5,t1
   1171c:	011eceb3          	xor	t4,t4,a7
   11720:	01f84833          	xor	a6,a6,t6
   11724:	01444433          	xor	s0,s0,s4
   11728:	0093c3b3          	xor	t2,t2,s1
   1172c:	01364633          	xor	a2,a2,s3
   11730:	0126c6b3          	xor	a3,a3,s2
   11734:	0057c7b3          	xor	a5,a5,t0
   11738:	01e64933          	xor	s2,a2,t5
   1173c:	01d6c4b3          	xor	s1,a3,t4
   11740:	0d27c713          	xori	a4,a5,210
   11744:	fff2ca13          	not	s4,t0
   11748:	ffffc993          	not	s3,t6
   1174c:	fff44613          	not	a2,s0
   11750:	fff3c693          	not	a3,t2
   11754:	fff84e13          	not	t3,a6
   11758:	00ea7a33          	and	s4,s4,a4
   1175c:	0109f9b3          	and	s3,s3,a6
   11760:	ffff4513          	not	a0,t5
   11764:	fffec593          	not	a1,t4
   11768:	fff94313          	not	t1,s2
   1176c:	fff4c893          	not	a7,s1
   11770:	00567633          	and	a2,a2,t0
   11774:	01f6f6b3          	and	a3,a3,t6
   11778:	01de7e33          	and	t3,t3,t4
   1177c:	f2d7c793          	xori	a5,a5,-211
   11780:	8ea5                	xor	a3,a3,s1
   11782:	01264633          	xor	a2,a2,s2
   11786:	008a4b33          	xor	s6,s4,s0
   1178a:	01e7f7b3          	and	a5,a5,t5
   1178e:	01257533          	and	a0,a0,s2
   11792:	8de5                	and	a1,a1,s1
   11794:	00837333          	and	t1,t1,s0
   11798:	0078f8b3          	and	a7,a7,t2
   1179c:	0079c433          	xor	s0,s3,t2
   117a0:	01fe4e33          	xor	t3,t3,t6
   117a4:	008e4e33          	xor	t3,t3,s0
   117a8:	8d39                	xor	a0,a0,a4
   117aa:	0105c5b3          	xor	a1,a1,a6
   117ae:	0057c733          	xor	a4,a5,t0
   117b2:	0076d393          	srli	t2,a3,0x7
   117b6:	01769813          	slli	a6,a3,0x17
   117ba:	01761793          	slli	a5,a2,0x17
   117be:	01e34333          	xor	t1,t1,t5
   117c2:	01d8c8b3          	xor	a7,a7,t4
   117c6:	01969993          	slli	s3,a3,0x19
   117ca:	8ea2                	mv	t4,s0
   117cc:	01961913          	slli	s2,a2,0x19
   117d0:	00765413          	srli	s0,a2,0x7
   117d4:	00965f13          	srli	t5,a2,0x9
   117d8:	0096df93          	srli	t6,a3,0x9
   117dc:	01674733          	xor	a4,a4,s6
   117e0:	010f6f33          	or	t5,t5,a6
   117e4:	00ffefb3          	or	t6,t6,a5
   117e8:	0089e9b3          	or	s3,s3,s0
   117ec:	00796933          	or	s2,s2,t2
   117f0:	01f9c9b3          	xor	s3,s3,t6
   117f4:	01e94933          	xor	s2,s2,t5
   117f8:	003e1f93          	slli	t6,t3,0x3
   117fc:	01d75f13          	srli	t5,a4,0x1d
   11800:	00371293          	slli	t0,a4,0x3
   11804:	01ff6fb3          	or	t6,t5,t6
   11808:	01de5f13          	srli	t5,t3,0x1d
   1180c:	019e1d13          	slli	s10,t3,0x19
   11810:	005f62b3          	or	t0,t5,t0
   11814:	00775f13          	srli	t5,a4,0x7
   11818:	01af6f33          	or	t5,t5,s10
   1181c:	c67a                	sw	t5,12(sp)
   1181e:	00a34333          	xor	t1,t1,a0
   11822:	00b8c8b3          	xor	a7,a7,a1
   11826:	007e5f13          	srli	t5,t3,0x7
   1182a:	01971c93          	slli	s9,a4,0x19
   1182e:	019f6cb3          	or	s9,t5,s9
   11832:	00a35d13          	srli	s10,t1,0xa
   11836:	01689f13          	slli	t5,a7,0x16
   1183a:	00a8dd93          	srli	s11,a7,0xa
   1183e:	01af6f33          	or	t5,t5,s10
   11842:	01631d13          	slli	s10,t1,0x16
   11846:	01bd6db3          	or	s11,s10,s11
   1184a:	01135b93          	srli	s7,t1,0x11
   1184e:	00f89d13          	slli	s10,a7,0xf
   11852:	c276                	sw	t4,4(sp)
   11854:	fff54513          	not	a0,a0
   11858:	fff5c593          	not	a1,a1
   1185c:	00decc33          	xor	s8,t4,a3
   11860:	017d6bb3          	or	s7,s10,s7
   11864:	0118de93          	srli	t4,a7,0x11
   11868:	00f31d13          	slli	s10,t1,0xf
   1186c:	0065d393          	srli	t2,a1,0x6
   11870:	01f51a13          	slli	s4,a0,0x1f
   11874:	01a51813          	slli	a6,a0,0x1a
   11878:	01dd6eb3          	or	t4,s10,t4
   1187c:	0015dd13          	srli	s10,a1,0x1
   11880:	c86e                	sw	s11,16(sp)
   11882:	01aa6a33          	or	s4,s4,s10
   11886:	00786833          	or	a6,a6,t2
   1188a:	0192c2b3          	xor	t0,t0,s9
   1188e:	017f4f33          	xor	t5,t5,s7
   11892:	4cb2                	lw	s9,12(sp)
   11894:	4bc2                	lw	s7,16(sp)
   11896:	010a4833          	xor	a6,s4,a6
   1189a:	4a12                	lw	s4,4(sp)
   1189c:	00cb44b3          	xor	s1,s6,a2
   118a0:	00655413          	srli	s0,a0,0x6
   118a4:	01f59d93          	slli	s11,a1,0x1f
   118a8:	00155a93          	srli	s5,a0,0x1
   118ac:	01a59793          	slli	a5,a1,0x1a
   118b0:	015deab3          	or	s5,s11,s5
   118b4:	00d49d13          	slli	s10,s1,0xd
   118b8:	00dc1d93          	slli	s11,s8,0xd
   118bc:	8fc1                	or	a5,a5,s0
   118be:	013c5393          	srli	t2,s8,0x13
   118c2:	0134d413          	srli	s0,s1,0x13
   118c6:	013b4b33          	xor	s6,s6,s3
   118ca:	019fcfb3          	xor	t6,t6,s9
   118ce:	01dbceb3          	xor	t4,s7,t4
   118d2:	00fac7b3          	xor	a5,s5,a5
   118d6:	012a4bb3          	xor	s7,s4,s2
   118da:	01c4da93          	srli	s5,s1,0x1c
   118de:	008de433          	or	s0,s11,s0
   118e2:	007d63b3          	or	t2,s10,t2
   118e6:	004c1a13          	slli	s4,s8,0x4
   118ea:	0492                	slli	s1,s1,0x4
   118ec:	01cc5c13          	srli	s8,s8,0x1c
   118f0:	00e2c2b3          	xor	t0,t0,a4
   118f4:	01cfcfb3          	xor	t6,t6,t3
   118f8:	015a6a33          	or	s4,s4,s5
   118fc:	0184e4b3          	or	s1,s1,s8
   11900:	8fa9                	xor	a5,a5,a0
   11902:	00b84833          	xor	a6,a6,a1
   11906:	01644433          	xor	s0,s0,s6
   1190a:	0173c3b3          	xor	t2,t2,s7
   1190e:	006f4f33          	xor	t5,t5,t1
   11912:	011eceb3          	xor	t4,t4,a7
   11916:	01f84833          	xor	a6,a6,t6
   1191a:	01444433          	xor	s0,s0,s4
   1191e:	0093c3b3          	xor	t2,t2,s1
   11922:	01364633          	xor	a2,a2,s3
   11926:	0126c6b3          	xor	a3,a3,s2
   1192a:	0057c7b3          	xor	a5,a5,t0
   1192e:	01e64933          	xor	s2,a2,t5
   11932:	01d6c4b3          	xor	s1,a3,t4
   11936:	0c37c713          	xori	a4,a5,195
   1193a:	fff2ca13          	not	s4,t0
   1193e:	ffffc993          	not	s3,t6
   11942:	fff44613          	not	a2,s0
   11946:	fff3c693          	not	a3,t2
   1194a:	fff84e13          	not	t3,a6
   1194e:	00ea7a33          	and	s4,s4,a4
   11952:	0109f9b3          	and	s3,s3,a6
   11956:	ffff4513          	not	a0,t5
   1195a:	fffec593          	not	a1,t4
   1195e:	fff94313          	not	t1,s2
   11962:	fff4c893          	not	a7,s1
   11966:	00567633          	and	a2,a2,t0
   1196a:	01f6f6b3          	and	a3,a3,t6
   1196e:	01de7e33          	and	t3,t3,t4
   11972:	f3c7c793          	xori	a5,a5,-196
   11976:	8ea5                	xor	a3,a3,s1
   11978:	01264633          	xor	a2,a2,s2
   1197c:	008a4b33          	xor	s6,s4,s0
   11980:	01e7f7b3          	and	a5,a5,t5
   11984:	01257533          	and	a0,a0,s2
   11988:	8de5                	and	a1,a1,s1
   1198a:	00837333          	and	t1,t1,s0
   1198e:	0078f8b3          	and	a7,a7,t2
   11992:	0079c433          	xor	s0,s3,t2
   11996:	01fe4e33          	xor	t3,t3,t6
   1199a:	008e4e33          	xor	t3,t3,s0
   1199e:	8d39                	xor	a0,a0,a4
   119a0:	0105c5b3          	xor	a1,a1,a6
   119a4:	0057c733          	xor	a4,a5,t0
   119a8:	0076d393          	srli	t2,a3,0x7
   119ac:	01769813          	slli	a6,a3,0x17
   119b0:	01761793          	slli	a5,a2,0x17
   119b4:	01e34333          	xor	t1,t1,t5
   119b8:	01d8c8b3          	xor	a7,a7,t4
   119bc:	01969993          	slli	s3,a3,0x19
   119c0:	8ea2                	mv	t4,s0
   119c2:	01961913          	slli	s2,a2,0x19
   119c6:	00765413          	srli	s0,a2,0x7
   119ca:	00965f13          	srli	t5,a2,0x9
   119ce:	0096df93          	srli	t6,a3,0x9
   119d2:	01674733          	xor	a4,a4,s6
   119d6:	010f6f33          	or	t5,t5,a6
   119da:	00ffefb3          	or	t6,t6,a5
   119de:	0089e9b3          	or	s3,s3,s0
   119e2:	00796933          	or	s2,s2,t2
   119e6:	01f9c9b3          	xor	s3,s3,t6
   119ea:	01e94933          	xor	s2,s2,t5
   119ee:	003e1f93          	slli	t6,t3,0x3
   119f2:	01d75f13          	srli	t5,a4,0x1d
   119f6:	00371293          	slli	t0,a4,0x3
   119fa:	01ff6fb3          	or	t6,t5,t6
   119fe:	01de5f13          	srli	t5,t3,0x1d
   11a02:	019e1d13          	slli	s10,t3,0x19
   11a06:	005f62b3          	or	t0,t5,t0
   11a0a:	00775f13          	srli	t5,a4,0x7
   11a0e:	01af6f33          	or	t5,t5,s10
   11a12:	c67a                	sw	t5,12(sp)
   11a14:	00a34333          	xor	t1,t1,a0
   11a18:	00b8c8b3          	xor	a7,a7,a1
   11a1c:	007e5f13          	srli	t5,t3,0x7
   11a20:	01971c93          	slli	s9,a4,0x19
   11a24:	019f6cb3          	or	s9,t5,s9
   11a28:	00a35d13          	srli	s10,t1,0xa
   11a2c:	01689f13          	slli	t5,a7,0x16
   11a30:	00a8dd93          	srli	s11,a7,0xa
   11a34:	01af6f33          	or	t5,t5,s10
   11a38:	01631d13          	slli	s10,t1,0x16
   11a3c:	01bd6db3          	or	s11,s10,s11
   11a40:	01135b93          	srli	s7,t1,0x11
   11a44:	00f89d13          	slli	s10,a7,0xf
   11a48:	c276                	sw	t4,4(sp)
   11a4a:	fff54513          	not	a0,a0
   11a4e:	fff5c593          	not	a1,a1
   11a52:	00decc33          	xor	s8,t4,a3
   11a56:	017d6bb3          	or	s7,s10,s7
   11a5a:	0118de93          	srli	t4,a7,0x11
   11a5e:	00f31d13          	slli	s10,t1,0xf
   11a62:	0065d393          	srli	t2,a1,0x6
   11a66:	01f51a13          	slli	s4,a0,0x1f
   11a6a:	01a51813          	slli	a6,a0,0x1a
   11a6e:	01dd6eb3          	or	t4,s10,t4
   11a72:	0015dd13          	srli	s10,a1,0x1
   11a76:	c86e                	sw	s11,16(sp)
   11a78:	01aa6a33          	or	s4,s4,s10
   11a7c:	00786833          	or	a6,a6,t2
   11a80:	0192c2b3          	xor	t0,t0,s9
   11a84:	017f4f33          	xor	t5,t5,s7
   11a88:	4cb2                	lw	s9,12(sp)
   11a8a:	4bc2                	lw	s7,16(sp)
   11a8c:	010a4833          	xor	a6,s4,a6
   11a90:	4a12                	lw	s4,4(sp)
   11a92:	00cb44b3          	xor	s1,s6,a2
   11a96:	00655413          	srli	s0,a0,0x6
   11a9a:	01f59d93          	slli	s11,a1,0x1f
   11a9e:	00155a93          	srli	s5,a0,0x1
   11aa2:	01a59793          	slli	a5,a1,0x1a
   11aa6:	015deab3          	or	s5,s11,s5
   11aaa:	00d49d13          	slli	s10,s1,0xd
   11aae:	00dc1d93          	slli	s11,s8,0xd
   11ab2:	8fc1                	or	a5,a5,s0
   11ab4:	013c5393          	srli	t2,s8,0x13
   11ab8:	0134d413          	srli	s0,s1,0x13
   11abc:	013b4b33          	xor	s6,s6,s3
   11ac0:	019fcfb3          	xor	t6,t6,s9
   11ac4:	01dbceb3          	xor	t4,s7,t4
   11ac8:	00fac7b3          	xor	a5,s5,a5
   11acc:	012a4bb3          	xor	s7,s4,s2
   11ad0:	01c4da93          	srli	s5,s1,0x1c
   11ad4:	008de433          	or	s0,s11,s0
   11ad8:	007d63b3          	or	t2,s10,t2
   11adc:	004c1a13          	slli	s4,s8,0x4
   11ae0:	0492                	slli	s1,s1,0x4
   11ae2:	01cc5c13          	srli	s8,s8,0x1c
   11ae6:	00e2c2b3          	xor	t0,t0,a4
   11aea:	01cfcfb3          	xor	t6,t6,t3
   11aee:	015a6a33          	or	s4,s4,s5
   11af2:	0184e4b3          	or	s1,s1,s8
   11af6:	8fa9                	xor	a5,a5,a0
   11af8:	00b84833          	xor	a6,a6,a1
   11afc:	01644433          	xor	s0,s0,s6
   11b00:	0173c3b3          	xor	t2,t2,s7
   11b04:	006f4f33          	xor	t5,t5,t1
   11b08:	011eceb3          	xor	t4,t4,a7
   11b0c:	01f84833          	xor	a6,a6,t6
   11b10:	01444433          	xor	s0,s0,s4
   11b14:	0093c3b3          	xor	t2,t2,s1
   11b18:	01364633          	xor	a2,a2,s3
   11b1c:	0126c6b3          	xor	a3,a3,s2
   11b20:	0057c7b3          	xor	a5,a5,t0
   11b24:	01e64933          	xor	s2,a2,t5
   11b28:	01d6c4b3          	xor	s1,a3,t4
   11b2c:	0b47c713          	xori	a4,a5,180
   11b30:	fff2ca13          	not	s4,t0
   11b34:	ffffc993          	not	s3,t6
   11b38:	fff44613          	not	a2,s0
   11b3c:	fff3c693          	not	a3,t2
   11b40:	fff84e13          	not	t3,a6
   11b44:	00ea7a33          	and	s4,s4,a4
   11b48:	0109f9b3          	and	s3,s3,a6
   11b4c:	ffff4513          	not	a0,t5
   11b50:	fffec593          	not	a1,t4
   11b54:	fff94313          	not	t1,s2
   11b58:	fff4c893          	not	a7,s1
   11b5c:	00567633          	and	a2,a2,t0
   11b60:	01f6f6b3          	and	a3,a3,t6
   11b64:	01de7e33          	and	t3,t3,t4
   11b68:	f4b7c793          	xori	a5,a5,-181
   11b6c:	8ea5                	xor	a3,a3,s1
   11b6e:	01264633          	xor	a2,a2,s2
   11b72:	008a4b33          	xor	s6,s4,s0
   11b76:	01e7f7b3          	and	a5,a5,t5
   11b7a:	01257533          	and	a0,a0,s2
   11b7e:	8de5                	and	a1,a1,s1
   11b80:	00837333          	and	t1,t1,s0
   11b84:	0078f8b3          	and	a7,a7,t2
   11b88:	0079c433          	xor	s0,s3,t2
   11b8c:	01fe4e33          	xor	t3,t3,t6
   11b90:	008e4e33          	xor	t3,t3,s0
   11b94:	8d39                	xor	a0,a0,a4
   11b96:	0105c5b3          	xor	a1,a1,a6
   11b9a:	0057c733          	xor	a4,a5,t0
   11b9e:	0076d393          	srli	t2,a3,0x7
   11ba2:	01769813          	slli	a6,a3,0x17
   11ba6:	01761793          	slli	a5,a2,0x17
   11baa:	01e34333          	xor	t1,t1,t5
   11bae:	01d8c8b3          	xor	a7,a7,t4
   11bb2:	01969993          	slli	s3,a3,0x19
   11bb6:	8ea2                	mv	t4,s0
   11bb8:	01961913          	slli	s2,a2,0x19
   11bbc:	00765413          	srli	s0,a2,0x7
   11bc0:	00965f13          	srli	t5,a2,0x9
   11bc4:	0096df93          	srli	t6,a3,0x9
   11bc8:	01674733          	xor	a4,a4,s6
   11bcc:	010f6f33          	or	t5,t5,a6
   11bd0:	00ffefb3          	or	t6,t6,a5
   11bd4:	0089e9b3          	or	s3,s3,s0
   11bd8:	00796933          	or	s2,s2,t2
   11bdc:	01f9c9b3          	xor	s3,s3,t6
   11be0:	01e94933          	xor	s2,s2,t5
   11be4:	003e1f93          	slli	t6,t3,0x3
   11be8:	01d75f13          	srli	t5,a4,0x1d
   11bec:	00371293          	slli	t0,a4,0x3
   11bf0:	01ff6fb3          	or	t6,t5,t6
   11bf4:	01de5f13          	srli	t5,t3,0x1d
   11bf8:	019e1d13          	slli	s10,t3,0x19
   11bfc:	005f62b3          	or	t0,t5,t0
   11c00:	00775f13          	srli	t5,a4,0x7
   11c04:	01af6f33          	or	t5,t5,s10
   11c08:	00a34333          	xor	t1,t1,a0
   11c0c:	00b8c8b3          	xor	a7,a7,a1
   11c10:	c67a                	sw	t5,12(sp)
   11c12:	01971c93          	slli	s9,a4,0x19
   11c16:	007e5f13          	srli	t5,t3,0x7
   11c1a:	019f6cb3          	or	s9,t5,s9
   11c1e:	00a35d13          	srli	s10,t1,0xa
   11c22:	01689f13          	slli	t5,a7,0x16
   11c26:	00a8dd93          	srli	s11,a7,0xa
   11c2a:	01af6f33          	or	t5,t5,s10
   11c2e:	01631d13          	slli	s10,t1,0x16
   11c32:	01bd6db3          	or	s11,s10,s11
   11c36:	01135b93          	srli	s7,t1,0x11
   11c3a:	00f89d13          	slli	s10,a7,0xf
   11c3e:	fff54513          	not	a0,a0
   11c42:	fff5c593          	not	a1,a1
   11c46:	00decc33          	xor	s8,t4,a3
   11c4a:	c276                	sw	t4,4(sp)
   11c4c:	017d6bb3          	or	s7,s10,s7
   11c50:	0118de93          	srli	t4,a7,0x11
   11c54:	00f31d13          	slli	s10,t1,0xf
   11c58:	0065d393          	srli	t2,a1,0x6
   11c5c:	01f51a13          	slli	s4,a0,0x1f
   11c60:	01a51813          	slli	a6,a0,0x1a
   11c64:	01dd6eb3          	or	t4,s10,t4
   11c68:	0015dd13          	srli	s10,a1,0x1
   11c6c:	c86e                	sw	s11,16(sp)
   11c6e:	01aa6a33          	or	s4,s4,s10
   11c72:	00786833          	or	a6,a6,t2
   11c76:	0192c2b3          	xor	t0,t0,s9
   11c7a:	017f4f33          	xor	t5,t5,s7
   11c7e:	4cb2                	lw	s9,12(sp)
   11c80:	4bc2                	lw	s7,16(sp)
   11c82:	010a4833          	xor	a6,s4,a6
   11c86:	4a12                	lw	s4,4(sp)
   11c88:	00cb44b3          	xor	s1,s6,a2
   11c8c:	00655413          	srli	s0,a0,0x6
   11c90:	01f59d93          	slli	s11,a1,0x1f
   11c94:	00155a93          	srli	s5,a0,0x1
   11c98:	01a59793          	slli	a5,a1,0x1a
   11c9c:	015deab3          	or	s5,s11,s5
   11ca0:	00d49d13          	slli	s10,s1,0xd
   11ca4:	00dc1d93          	slli	s11,s8,0xd
   11ca8:	8fc1                	or	a5,a5,s0
   11caa:	013c5393          	srli	t2,s8,0x13
   11cae:	0134d413          	srli	s0,s1,0x13
   11cb2:	013b4b33          	xor	s6,s6,s3
   11cb6:	019fcfb3          	xor	t6,t6,s9
   11cba:	01dbceb3          	xor	t4,s7,t4
   11cbe:	00fac7b3          	xor	a5,s5,a5
   11cc2:	012a4bb3          	xor	s7,s4,s2
   11cc6:	01c4da93          	srli	s5,s1,0x1c
   11cca:	008de433          	or	s0,s11,s0
   11cce:	007d63b3          	or	t2,s10,t2
   11cd2:	004c1a13          	slli	s4,s8,0x4
   11cd6:	0492                	slli	s1,s1,0x4
   11cd8:	01cc5c13          	srli	s8,s8,0x1c
   11cdc:	00e2c2b3          	xor	t0,t0,a4
   11ce0:	01cfcfb3          	xor	t6,t6,t3
   11ce4:	015a6a33          	or	s4,s4,s5
   11ce8:	0184e4b3          	or	s1,s1,s8
   11cec:	8fa9                	xor	a5,a5,a0
   11cee:	00b84833          	xor	a6,a6,a1
   11cf2:	01644433          	xor	s0,s0,s6
   11cf6:	0173c3b3          	xor	t2,t2,s7
   11cfa:	006f4f33          	xor	t5,t5,t1
   11cfe:	011eceb3          	xor	t4,t4,a7
   11d02:	01f84833          	xor	a6,a6,t6
   11d06:	01444433          	xor	s0,s0,s4
   11d0a:	0093c3b3          	xor	t2,t2,s1
   11d0e:	01364633          	xor	a2,a2,s3
   11d12:	0126c6b3          	xor	a3,a3,s2
   11d16:	0057c7b3          	xor	a5,a5,t0
   11d1a:	01e64933          	xor	s2,a2,t5
   11d1e:	01d6c4b3          	xor	s1,a3,t4
   11d22:	0a57c713          	xori	a4,a5,165
   11d26:	fff2ca13          	not	s4,t0
   11d2a:	ffffc993          	not	s3,t6
   11d2e:	fff44613          	not	a2,s0
   11d32:	fff3c693          	not	a3,t2
   11d36:	fff84e13          	not	t3,a6
   11d3a:	00ea7a33          	and	s4,s4,a4
   11d3e:	0109f9b3          	and	s3,s3,a6
   11d42:	ffff4513          	not	a0,t5
   11d46:	fffec593          	not	a1,t4
   11d4a:	fff94313          	not	t1,s2
   11d4e:	fff4c893          	not	a7,s1
   11d52:	00567633          	and	a2,a2,t0
   11d56:	01f6f6b3          	and	a3,a3,t6
   11d5a:	01de7e33          	and	t3,t3,t4
   11d5e:	f5a7c793          	xori	a5,a5,-166
   11d62:	8ea5                	xor	a3,a3,s1
   11d64:	01264633          	xor	a2,a2,s2
   11d68:	008a4b33          	xor	s6,s4,s0
   11d6c:	01e7f7b3          	and	a5,a5,t5
   11d70:	01257533          	and	a0,a0,s2
   11d74:	8de5                	and	a1,a1,s1
   11d76:	00837333          	and	t1,t1,s0
   11d7a:	0078f8b3          	and	a7,a7,t2
   11d7e:	0079c433          	xor	s0,s3,t2
   11d82:	01fe4e33          	xor	t3,t3,t6
   11d86:	008e4e33          	xor	t3,t3,s0
   11d8a:	8d39                	xor	a0,a0,a4
   11d8c:	0105c5b3          	xor	a1,a1,a6
   11d90:	0057c733          	xor	a4,a5,t0
   11d94:	0076d393          	srli	t2,a3,0x7
   11d98:	01769813          	slli	a6,a3,0x17
   11d9c:	01761793          	slli	a5,a2,0x17
   11da0:	01e34333          	xor	t1,t1,t5
   11da4:	01d8c8b3          	xor	a7,a7,t4
   11da8:	01969993          	slli	s3,a3,0x19
   11dac:	8ea2                	mv	t4,s0
   11dae:	01961913          	slli	s2,a2,0x19
   11db2:	00765413          	srli	s0,a2,0x7
   11db6:	00965f13          	srli	t5,a2,0x9
   11dba:	0096df93          	srli	t6,a3,0x9
   11dbe:	01674733          	xor	a4,a4,s6
   11dc2:	010f6f33          	or	t5,t5,a6
   11dc6:	00ffefb3          	or	t6,t6,a5
   11dca:	0089e9b3          	or	s3,s3,s0
   11dce:	00796933          	or	s2,s2,t2
   11dd2:	01f9c9b3          	xor	s3,s3,t6
   11dd6:	01e94933          	xor	s2,s2,t5
   11dda:	003e1f93          	slli	t6,t3,0x3
   11dde:	01d75f13          	srli	t5,a4,0x1d
   11de2:	00371293          	slli	t0,a4,0x3
   11de6:	01ff6fb3          	or	t6,t5,t6
   11dea:	01de5f13          	srli	t5,t3,0x1d
   11dee:	019e1d13          	slli	s10,t3,0x19
   11df2:	005f62b3          	or	t0,t5,t0
   11df6:	00775f13          	srli	t5,a4,0x7
   11dfa:	01af6f33          	or	t5,t5,s10
   11dfe:	00a34333          	xor	t1,t1,a0
   11e02:	00b8c8b3          	xor	a7,a7,a1
   11e06:	c67a                	sw	t5,12(sp)
   11e08:	01971c93          	slli	s9,a4,0x19
   11e0c:	007e5f13          	srli	t5,t3,0x7
   11e10:	019f6cb3          	or	s9,t5,s9
   11e14:	00a35d13          	srli	s10,t1,0xa
   11e18:	01689f13          	slli	t5,a7,0x16
   11e1c:	00a8dd93          	srli	s11,a7,0xa
   11e20:	01af6f33          	or	t5,t5,s10
   11e24:	01631d13          	slli	s10,t1,0x16
   11e28:	01bd6db3          	or	s11,s10,s11
   11e2c:	01135b93          	srli	s7,t1,0x11
   11e30:	00f89d13          	slli	s10,a7,0xf
   11e34:	fff54513          	not	a0,a0
   11e38:	fff5c593          	not	a1,a1
   11e3c:	00decc33          	xor	s8,t4,a3
   11e40:	c276                	sw	t4,4(sp)
   11e42:	017d6bb3          	or	s7,s10,s7
   11e46:	0118de93          	srli	t4,a7,0x11
   11e4a:	00f31d13          	slli	s10,t1,0xf
   11e4e:	0065d393          	srli	t2,a1,0x6
   11e52:	01f51a13          	slli	s4,a0,0x1f
   11e56:	01a51813          	slli	a6,a0,0x1a
   11e5a:	01dd6eb3          	or	t4,s10,t4
   11e5e:	0015dd13          	srli	s10,a1,0x1
   11e62:	c86e                	sw	s11,16(sp)
   11e64:	01aa6a33          	or	s4,s4,s10
   11e68:	00786833          	or	a6,a6,t2
   11e6c:	0192c2b3          	xor	t0,t0,s9
   11e70:	017f4f33          	xor	t5,t5,s7
   11e74:	4cb2                	lw	s9,12(sp)
   11e76:	010a4833          	xor	a6,s4,a6
   11e7a:	4bc2                	lw	s7,16(sp)
   11e7c:	4a12                	lw	s4,4(sp)
   11e7e:	00cb44b3          	xor	s1,s6,a2
   11e82:	00655413          	srli	s0,a0,0x6
   11e86:	01f59d93          	slli	s11,a1,0x1f
   11e8a:	00155a93          	srli	s5,a0,0x1
   11e8e:	01a59793          	slli	a5,a1,0x1a
   11e92:	015deab3          	or	s5,s11,s5
   11e96:	00d49d13          	slli	s10,s1,0xd
   11e9a:	00dc1d93          	slli	s11,s8,0xd
   11e9e:	8fc1                	or	a5,a5,s0
   11ea0:	013c5393          	srli	t2,s8,0x13
   11ea4:	0134d413          	srli	s0,s1,0x13
   11ea8:	013b4b33          	xor	s6,s6,s3
   11eac:	019fcfb3          	xor	t6,t6,s9
   11eb0:	01dbceb3          	xor	t4,s7,t4
   11eb4:	00fac7b3          	xor	a5,s5,a5
   11eb8:	012a4bb3          	xor	s7,s4,s2
   11ebc:	01c4da93          	srli	s5,s1,0x1c
   11ec0:	008de433          	or	s0,s11,s0
   11ec4:	007d63b3          	or	t2,s10,t2
   11ec8:	004c1a13          	slli	s4,s8,0x4
   11ecc:	0492                	slli	s1,s1,0x4
   11ece:	01cc5c13          	srli	s8,s8,0x1c
   11ed2:	00e2c2b3          	xor	t0,t0,a4
   11ed6:	01cfcfb3          	xor	t6,t6,t3
   11eda:	015a6a33          	or	s4,s4,s5
   11ede:	0184e4b3          	or	s1,s1,s8
   11ee2:	8fa9                	xor	a5,a5,a0
   11ee4:	00b84833          	xor	a6,a6,a1
   11ee8:	01644433          	xor	s0,s0,s6
   11eec:	0173c3b3          	xor	t2,t2,s7
   11ef0:	006f4f33          	xor	t5,t5,t1
   11ef4:	011eceb3          	xor	t4,t4,a7
   11ef8:	01f84833          	xor	a6,a6,t6
   11efc:	01444433          	xor	s0,s0,s4
   11f00:	0093c3b3          	xor	t2,t2,s1
   11f04:	01364633          	xor	a2,a2,s3
   11f08:	0126c6b3          	xor	a3,a3,s2
   11f0c:	0057c7b3          	xor	a5,a5,t0
   11f10:	01e64933          	xor	s2,a2,t5
   11f14:	01d6c4b3          	xor	s1,a3,t4
   11f18:	0967c713          	xori	a4,a5,150
   11f1c:	fff2ca13          	not	s4,t0
   11f20:	ffffc993          	not	s3,t6
   11f24:	fff44613          	not	a2,s0
   11f28:	fff3c693          	not	a3,t2
   11f2c:	fff84e13          	not	t3,a6
   11f30:	00ea7a33          	and	s4,s4,a4
   11f34:	0109f9b3          	and	s3,s3,a6
   11f38:	ffff4513          	not	a0,t5
   11f3c:	fffec593          	not	a1,t4
   11f40:	fff94313          	not	t1,s2
   11f44:	fff4c893          	not	a7,s1
   11f48:	00567633          	and	a2,a2,t0
   11f4c:	01f6f6b3          	and	a3,a3,t6
   11f50:	01de7e33          	and	t3,t3,t4
   11f54:	f697c793          	xori	a5,a5,-151
   11f58:	8ea5                	xor	a3,a3,s1
   11f5a:	01264633          	xor	a2,a2,s2
   11f5e:	008a4b33          	xor	s6,s4,s0
   11f62:	01e7f7b3          	and	a5,a5,t5
   11f66:	01257533          	and	a0,a0,s2
   11f6a:	8de5                	and	a1,a1,s1
   11f6c:	00837333          	and	t1,t1,s0
   11f70:	0078f8b3          	and	a7,a7,t2
   11f74:	0079c433          	xor	s0,s3,t2
   11f78:	01fe4e33          	xor	t3,t3,t6
   11f7c:	008e4e33          	xor	t3,t3,s0
   11f80:	8d39                	xor	a0,a0,a4
   11f82:	0105c5b3          	xor	a1,a1,a6
   11f86:	0057c733          	xor	a4,a5,t0
   11f8a:	0076d393          	srli	t2,a3,0x7
   11f8e:	01769813          	slli	a6,a3,0x17
   11f92:	01761793          	slli	a5,a2,0x17
   11f96:	01e34333          	xor	t1,t1,t5
   11f9a:	01d8c8b3          	xor	a7,a7,t4
   11f9e:	01969993          	slli	s3,a3,0x19
   11fa2:	8ea2                	mv	t4,s0
   11fa4:	01961913          	slli	s2,a2,0x19
   11fa8:	00765413          	srli	s0,a2,0x7
   11fac:	00965f13          	srli	t5,a2,0x9
   11fb0:	0096df93          	srli	t6,a3,0x9
   11fb4:	01674733          	xor	a4,a4,s6
   11fb8:	010f6f33          	or	t5,t5,a6
   11fbc:	00ffefb3          	or	t6,t6,a5
   11fc0:	0089e9b3          	or	s3,s3,s0
   11fc4:	00796933          	or	s2,s2,t2
   11fc8:	01f9c9b3          	xor	s3,s3,t6
   11fcc:	01e94933          	xor	s2,s2,t5
   11fd0:	003e1f93          	slli	t6,t3,0x3
   11fd4:	01d75f13          	srli	t5,a4,0x1d
   11fd8:	00371293          	slli	t0,a4,0x3
   11fdc:	01ff6fb3          	or	t6,t5,t6
   11fe0:	01de5f13          	srli	t5,t3,0x1d
   11fe4:	019e1d13          	slli	s10,t3,0x19
   11fe8:	005f62b3          	or	t0,t5,t0
   11fec:	00775f13          	srli	t5,a4,0x7
   11ff0:	01af6f33          	or	t5,t5,s10
   11ff4:	c67a                	sw	t5,12(sp)
   11ff6:	00a34333          	xor	t1,t1,a0
   11ffa:	00b8c8b3          	xor	a7,a7,a1
   11ffe:	007e5f13          	srli	t5,t3,0x7
   12002:	01971c93          	slli	s9,a4,0x19
   12006:	019f6cb3          	or	s9,t5,s9
   1200a:	00a35d13          	srli	s10,t1,0xa
   1200e:	01689f13          	slli	t5,a7,0x16
   12012:	00a8dd93          	srli	s11,a7,0xa
   12016:	01af6f33          	or	t5,t5,s10
   1201a:	01631d13          	slli	s10,t1,0x16
   1201e:	01bd6db3          	or	s11,s10,s11
   12022:	01135b93          	srli	s7,t1,0x11
   12026:	00f89d13          	slli	s10,a7,0xf
   1202a:	c276                	sw	t4,4(sp)
   1202c:	fff54513          	not	a0,a0
   12030:	fff5c593          	not	a1,a1
   12034:	00decc33          	xor	s8,t4,a3
   12038:	017d6bb3          	or	s7,s10,s7
   1203c:	0118de93          	srli	t4,a7,0x11
   12040:	00f31d13          	slli	s10,t1,0xf
   12044:	0065d393          	srli	t2,a1,0x6
   12048:	01f51a13          	slli	s4,a0,0x1f
   1204c:	01a51813          	slli	a6,a0,0x1a
   12050:	01dd6eb3          	or	t4,s10,t4
   12054:	0015dd13          	srli	s10,a1,0x1
   12058:	c86e                	sw	s11,16(sp)
   1205a:	01aa6a33          	or	s4,s4,s10
   1205e:	00786833          	or	a6,a6,t2
   12062:	0192c2b3          	xor	t0,t0,s9
   12066:	017f4f33          	xor	t5,t5,s7
   1206a:	4cb2                	lw	s9,12(sp)
   1206c:	4bc2                	lw	s7,16(sp)
   1206e:	010a4833          	xor	a6,s4,a6
   12072:	4a12                	lw	s4,4(sp)
   12074:	00cb44b3          	xor	s1,s6,a2
   12078:	00655413          	srli	s0,a0,0x6
   1207c:	01f59d93          	slli	s11,a1,0x1f
   12080:	00155a93          	srli	s5,a0,0x1
   12084:	01a59793          	slli	a5,a1,0x1a
   12088:	015deab3          	or	s5,s11,s5
   1208c:	00d49d13          	slli	s10,s1,0xd
   12090:	00dc1d93          	slli	s11,s8,0xd
   12094:	8fc1                	or	a5,a5,s0
   12096:	013c5393          	srli	t2,s8,0x13
   1209a:	0134d413          	srli	s0,s1,0x13
   1209e:	013b4b33          	xor	s6,s6,s3
   120a2:	019fcfb3          	xor	t6,t6,s9
   120a6:	01dbceb3          	xor	t4,s7,t4
   120aa:	00fac7b3          	xor	a5,s5,a5
   120ae:	012a4bb3          	xor	s7,s4,s2
   120b2:	01c4da93          	srli	s5,s1,0x1c
   120b6:	008de433          	or	s0,s11,s0
   120ba:	007d63b3          	or	t2,s10,t2
   120be:	004c1a13          	slli	s4,s8,0x4
   120c2:	0492                	slli	s1,s1,0x4
   120c4:	01cc5c13          	srli	s8,s8,0x1c
   120c8:	00e2c2b3          	xor	t0,t0,a4
   120cc:	01cfcfb3          	xor	t6,t6,t3
   120d0:	015a6a33          	or	s4,s4,s5
   120d4:	0184e4b3          	or	s1,s1,s8
   120d8:	8fa9                	xor	a5,a5,a0
   120da:	00b84833          	xor	a6,a6,a1
   120de:	01644433          	xor	s0,s0,s6
   120e2:	0173c3b3          	xor	t2,t2,s7
   120e6:	006f4f33          	xor	t5,t5,t1
   120ea:	011eceb3          	xor	t4,t4,a7
   120ee:	01f84833          	xor	a6,a6,t6
   120f2:	0093c3b3          	xor	t2,t2,s1
   120f6:	01444433          	xor	s0,s0,s4
   120fa:	01364633          	xor	a2,a2,s3
   120fe:	0126c6b3          	xor	a3,a3,s2
   12102:	0057c7b3          	xor	a5,a5,t0
   12106:	01e64933          	xor	s2,a2,t5
   1210a:	01d6c4b3          	xor	s1,a3,t4
   1210e:	0877c713          	xori	a4,a5,135
   12112:	fff2ca13          	not	s4,t0
   12116:	ffffc993          	not	s3,t6
   1211a:	ffff4513          	not	a0,t5
   1211e:	fff44613          	not	a2,s0
   12122:	fff3c693          	not	a3,t2
   12126:	fff84e13          	not	t3,a6
   1212a:	f787c793          	xori	a5,a5,-136
   1212e:	00ea7a33          	and	s4,s4,a4
   12132:	0109f9b3          	and	s3,s3,a6
   12136:	01e7f7b3          	and	a5,a5,t5
   1213a:	fffec593          	not	a1,t4
   1213e:	fff94313          	not	t1,s2
   12142:	fff4c893          	not	a7,s1
   12146:	01257533          	and	a0,a0,s2
   1214a:	00567633          	and	a2,a2,t0
   1214e:	01f6f6b3          	and	a3,a3,t6
   12152:	01de7e33          	and	t3,t3,t4
   12156:	01264633          	xor	a2,a2,s2
   1215a:	8ea5                	xor	a3,a3,s1
   1215c:	8d39                	xor	a0,a0,a4
   1215e:	8de5                	and	a1,a1,s1
   12160:	0057c733          	xor	a4,a5,t0
   12164:	0079c4b3          	xor	s1,s3,t2
   12168:	00837333          	and	t1,t1,s0
   1216c:	0078f8b3          	and	a7,a7,t2
   12170:	008a4433          	xor	s0,s4,s0
   12174:	01fe4e33          	xor	t3,t3,t6
   12178:	8f21                	xor	a4,a4,s0
   1217a:	009e4e33          	xor	t3,t3,s1
   1217e:	82a6                	mv	t0,s1
   12180:	0105c5b3          	xor	a1,a1,a6
   12184:	00765993          	srli	s3,a2,0x7
   12188:	0076d913          	srli	s2,a3,0x7
   1218c:	01769813          	slli	a6,a3,0x17
   12190:	01761793          	slli	a5,a2,0x17
   12194:	01e34333          	xor	t1,t1,t5
   12198:	01d8c8b3          	xor	a7,a7,t4
   1219c:	01969493          	slli	s1,a3,0x19
   121a0:	8ea2                	mv	t4,s0
   121a2:	00965f13          	srli	t5,a2,0x9
   121a6:	01961413          	slli	s0,a2,0x19
   121aa:	0096df93          	srli	t6,a3,0x9
   121ae:	010f6f33          	or	t5,t5,a6
   121b2:	00ffefb3          	or	t6,t6,a5
   121b6:	0134e4b3          	or	s1,s1,s3
   121ba:	01246433          	or	s0,s0,s2
   121be:	01f4c4b3          	xor	s1,s1,t6
   121c2:	01e44433          	xor	s0,s0,t5
   121c6:	003e1f93          	slli	t6,t3,0x3
   121ca:	01d75f13          	srli	t5,a4,0x1d
   121ce:	c616                	sw	t0,12(sp)
   121d0:	00d2cc33          	xor	s8,t0,a3
   121d4:	01ff6fb3          	or	t6,t5,t6
   121d8:	00371293          	slli	t0,a4,0x3
   121dc:	01de5f13          	srli	t5,t3,0x1d
   121e0:	019e1d13          	slli	s10,t3,0x19
   121e4:	005f62b3          	or	t0,t5,t0
   121e8:	00775f13          	srli	t5,a4,0x7
   121ec:	01af6f33          	or	t5,t5,s10
   121f0:	c87a                	sw	t5,16(sp)
   121f2:	00a34333          	xor	t1,t1,a0
   121f6:	00b8c8b3          	xor	a7,a7,a1
   121fa:	007e5f13          	srli	t5,t3,0x7
   121fe:	01971c93          	slli	s9,a4,0x19
   12202:	019f6cb3          	or	s9,t5,s9
   12206:	00a35d13          	srli	s10,t1,0xa
   1220a:	01689f13          	slli	t5,a7,0x16
   1220e:	00a8db13          	srli	s6,a7,0xa
   12212:	01af6f33          	or	t5,t5,s10
   12216:	01631d13          	slli	s10,t1,0x16
   1221a:	016d6b33          	or	s6,s10,s6
   1221e:	01135b93          	srli	s7,t1,0x11
   12222:	00f89d13          	slli	s10,a7,0xf
   12226:	c276                	sw	t4,4(sp)
   12228:	fff54513          	not	a0,a0
   1222c:	fff5c593          	not	a1,a1
   12230:	00cec3b3          	xor	t2,t4,a2
   12234:	017d6bb3          	or	s7,s10,s7
   12238:	0118de93          	srli	t4,a7,0x11
   1223c:	00f31d13          	slli	s10,t1,0xf
   12240:	0065d913          	srli	s2,a1,0x6
   12244:	01f51a13          	slli	s4,a0,0x1f
   12248:	01a51813          	slli	a6,a0,0x1a
   1224c:	01dd6eb3          	or	t4,s10,t4
   12250:	0015dd13          	srli	s10,a1,0x1
   12254:	01aa6a33          	or	s4,s4,s10
   12258:	01286833          	or	a6,a6,s2
   1225c:	010a4833          	xor	a6,s4,a6
   12260:	4a12                	lw	s4,4(sp)
   12262:	01f59d93          	slli	s11,a1,0x1f
   12266:	00655993          	srli	s3,a0,0x6
   1226a:	00155a93          	srli	s5,a0,0x1
   1226e:	01a59793          	slli	a5,a1,0x1a
   12272:	015deab3          	or	s5,s11,s5
   12276:	0137e7b3          	or	a5,a5,s3
   1227a:	0192c2b3          	xor	t0,t0,s9
   1227e:	00fac7b3          	xor	a5,s5,a5
   12282:	4cc2                	lw	s9,16(sp)
   12284:	009a4ab3          	xor	s5,s4,s1
   12288:	4a32                	lw	s4,12(sp)
   1228a:	00dc1d93          	slli	s11,s8,0xd
   1228e:	00d39d13          	slli	s10,t2,0xd
   12292:	0133d993          	srli	s3,t2,0x13
   12296:	013c5913          	srli	s2,s8,0x13
   1229a:	013de9b3          	or	s3,s11,s3
   1229e:	012d6933          	or	s2,s10,s2
   122a2:	019fcfb3          	xor	t6,t6,s9
   122a6:	017f4f33          	xor	t5,t5,s7
   122aa:	01db4eb3          	xor	t4,s6,t4
   122ae:	01c3db93          	srli	s7,t2,0x1c
   122b2:	008a4a33          	xor	s4,s4,s0
   122b6:	004c1b13          	slli	s6,s8,0x4
   122ba:	0392                	slli	t2,t2,0x4
   122bc:	01cc5c13          	srli	s8,s8,0x1c
   122c0:	00e2c2b3          	xor	t0,t0,a4
   122c4:	01cfcfb3          	xor	t6,t6,t3
   122c8:	017b6b33          	or	s6,s6,s7
   122cc:	0183e3b3          	or	t2,t2,s8
   122d0:	8fa9                	xor	a5,a5,a0
   122d2:	00b84833          	xor	a6,a6,a1
   122d6:	013acab3          	xor	s5,s5,s3
   122da:	012a4a33          	xor	s4,s4,s2
   122de:	006f4f33          	xor	t5,t5,t1
   122e2:	011eceb3          	xor	t4,t4,a7
   122e6:	01f84833          	xor	a6,a6,t6
   122ea:	016acab3          	xor	s5,s5,s6
   122ee:	007a4a33          	xor	s4,s4,t2
   122f2:	8e25                	xor	a2,a2,s1
   122f4:	8ea1                	xor	a3,a3,s0
   122f6:	0057c7b3          	xor	a5,a5,t0
   122fa:	01e64433          	xor	s0,a2,t5
   122fe:	01d6c3b3          	xor	t2,a3,t4
   12302:	0787c713          	xori	a4,a5,120
   12306:	fff2c913          	not	s2,t0
   1230a:	ffffc493          	not	s1,t6
   1230e:	ffff4513          	not	a0,t5
   12312:	fffac613          	not	a2,s5
   12316:	fffa4693          	not	a3,s4
   1231a:	fff84e13          	not	t3,a6
   1231e:	f877c793          	xori	a5,a5,-121
   12322:	00e97933          	and	s2,s2,a4
   12326:	01e7f7b3          	and	a5,a5,t5
   1232a:	fffec593          	not	a1,t4
   1232e:	fff44313          	not	t1,s0
   12332:	fff3c893          	not	a7,t2
   12336:	0104f4b3          	and	s1,s1,a6
   1233a:	8d61                	and	a0,a0,s0
   1233c:	00567633          	and	a2,a2,t0
   12340:	01f6f6b3          	and	a3,a3,t6
   12344:	01de7e33          	and	t3,t3,t4
   12348:	8e21                	xor	a2,a2,s0
   1234a:	0076c6b3          	xor	a3,a3,t2
   1234e:	01594433          	xor	s0,s2,s5
   12352:	0144c4b3          	xor	s1,s1,s4
   12356:	8d39                	xor	a0,a0,a4
   12358:	0075f5b3          	and	a1,a1,t2
   1235c:	0057c733          	xor	a4,a5,t0
   12360:	01537333          	and	t1,t1,s5
   12364:	0148f8b3          	and	a7,a7,s4
   12368:	01fe4e33          	xor	t3,t3,t6
   1236c:	8f21                	xor	a4,a4,s0
   1236e:	009e4e33          	xor	t3,t3,s1
   12372:	82a6                	mv	t0,s1
   12374:	0105c5b3          	xor	a1,a1,a6
   12378:	00765993          	srli	s3,a2,0x7
   1237c:	0076d913          	srli	s2,a3,0x7
   12380:	01769813          	slli	a6,a3,0x17
   12384:	01761793          	slli	a5,a2,0x17
   12388:	01e34333          	xor	t1,t1,t5
   1238c:	01d8c8b3          	xor	a7,a7,t4
   12390:	01969493          	slli	s1,a3,0x19
   12394:	8ea2                	mv	t4,s0
   12396:	00965f13          	srli	t5,a2,0x9
   1239a:	01961413          	slli	s0,a2,0x19
   1239e:	0096df93          	srli	t6,a3,0x9
   123a2:	010f6f33          	or	t5,t5,a6
   123a6:	00ffefb3          	or	t6,t6,a5
   123aa:	0134e4b3          	or	s1,s1,s3
   123ae:	01246433          	or	s0,s0,s2
   123b2:	01f4c4b3          	xor	s1,s1,t6
   123b6:	01e44433          	xor	s0,s0,t5
   123ba:	003e1f93          	slli	t6,t3,0x3
   123be:	01d75f13          	srli	t5,a4,0x1d
   123c2:	c616                	sw	t0,12(sp)
   123c4:	00d2cc33          	xor	s8,t0,a3
   123c8:	01ff6fb3          	or	t6,t5,t6
   123cc:	00371293          	slli	t0,a4,0x3
   123d0:	01de5f13          	srli	t5,t3,0x1d
   123d4:	019e1d13          	slli	s10,t3,0x19
   123d8:	005f62b3          	or	t0,t5,t0
   123dc:	00775f13          	srli	t5,a4,0x7
   123e0:	01af6f33          	or	t5,t5,s10
   123e4:	c87a                	sw	t5,16(sp)
   123e6:	00a34333          	xor	t1,t1,a0
   123ea:	00b8c8b3          	xor	a7,a7,a1
   123ee:	007e5f13          	srli	t5,t3,0x7
   123f2:	01971c93          	slli	s9,a4,0x19
   123f6:	019f6cb3          	or	s9,t5,s9
   123fa:	00a35d13          	srli	s10,t1,0xa
   123fe:	01689f13          	slli	t5,a7,0x16
   12402:	00a8db13          	srli	s6,a7,0xa
   12406:	01af6f33          	or	t5,t5,s10
   1240a:	01631d13          	slli	s10,t1,0x16
   1240e:	016d6b33          	or	s6,s10,s6
   12412:	01135b93          	srli	s7,t1,0x11
   12416:	00f89d13          	slli	s10,a7,0xf
   1241a:	c276                	sw	t4,4(sp)
   1241c:	fff54513          	not	a0,a0
   12420:	fff5c593          	not	a1,a1
   12424:	00cec3b3          	xor	t2,t4,a2
   12428:	017d6bb3          	or	s7,s10,s7
   1242c:	0118de93          	srli	t4,a7,0x11
   12430:	00f31d13          	slli	s10,t1,0xf
   12434:	0065d913          	srli	s2,a1,0x6
   12438:	01f51a13          	slli	s4,a0,0x1f
   1243c:	01a51813          	slli	a6,a0,0x1a
   12440:	01dd6eb3          	or	t4,s10,t4
   12444:	0015dd13          	srli	s10,a1,0x1
   12448:	01aa6a33          	or	s4,s4,s10
   1244c:	01286833          	or	a6,a6,s2
   12450:	010a4833          	xor	a6,s4,a6
   12454:	4a12                	lw	s4,4(sp)
   12456:	01f59d93          	slli	s11,a1,0x1f
   1245a:	00655993          	srli	s3,a0,0x6
   1245e:	00155a93          	srli	s5,a0,0x1
   12462:	01a59793          	slli	a5,a1,0x1a
   12466:	015deab3          	or	s5,s11,s5
   1246a:	0137e7b3          	or	a5,a5,s3
   1246e:	0192c2b3          	xor	t0,t0,s9
   12472:	00fac7b3          	xor	a5,s5,a5
   12476:	4cc2                	lw	s9,16(sp)
   12478:	009a4ab3          	xor	s5,s4,s1
   1247c:	4a32                	lw	s4,12(sp)
   1247e:	00dc1d93          	slli	s11,s8,0xd
   12482:	00d39d13          	slli	s10,t2,0xd
   12486:	0133d993          	srli	s3,t2,0x13
   1248a:	013c5913          	srli	s2,s8,0x13
   1248e:	013de9b3          	or	s3,s11,s3
   12492:	012d6933          	or	s2,s10,s2
   12496:	019fcfb3          	xor	t6,t6,s9
   1249a:	017f4f33          	xor	t5,t5,s7
   1249e:	01db4eb3          	xor	t4,s6,t4
   124a2:	01c3db93          	srli	s7,t2,0x1c
   124a6:	008a4a33          	xor	s4,s4,s0
   124aa:	004c1b13          	slli	s6,s8,0x4
   124ae:	0392                	slli	t2,t2,0x4
   124b0:	01cc5c13          	srli	s8,s8,0x1c
   124b4:	01cfcfb3          	xor	t6,t6,t3
   124b8:	017b6b33          	or	s6,s6,s7
   124bc:	0183e3b3          	or	t2,t2,s8
   124c0:	00b84833          	xor	a6,a6,a1
   124c4:	013acab3          	xor	s5,s5,s3
   124c8:	012a4a33          	xor	s4,s4,s2
   124cc:	00e2c2b3          	xor	t0,t0,a4
   124d0:	006f4f33          	xor	t5,t5,t1
   124d4:	011eceb3          	xor	t4,t4,a7
   124d8:	01f84833          	xor	a6,a6,t6
   124dc:	007a4a33          	xor	s4,s4,t2
   124e0:	016acab3          	xor	s5,s5,s6
   124e4:	8e25                	xor	a2,a2,s1
   124e6:	8ea1                	xor	a3,a3,s0
   124e8:	8fa9                	xor	a5,a5,a0
   124ea:	01e64433          	xor	s0,a2,t5
   124ee:	01d6c3b3          	xor	t2,a3,t4
   124f2:	0057c7b3          	xor	a5,a5,t0
   124f6:	ffffc493          	not	s1,t6
   124fa:	fffac613          	not	a2,s5
   124fe:	fffa4693          	not	a3,s4
   12502:	fff84e13          	not	t3,a6
   12506:	0697c713          	xori	a4,a5,105
   1250a:	0104f4b3          	and	s1,s1,a6
   1250e:	fff2c913          	not	s2,t0
   12512:	ffff4513          	not	a0,t5
   12516:	fffec593          	not	a1,t4
   1251a:	fff44313          	not	t1,s0
   1251e:	fff3c893          	not	a7,t2
   12522:	00567633          	and	a2,a2,t0
   12526:	01f6f6b3          	and	a3,a3,t6
   1252a:	01de7e33          	and	t3,t3,t4
   1252e:	f967c793          	xori	a5,a5,-106
   12532:	8e21                	xor	a2,a2,s0
   12534:	0076c6b3          	xor	a3,a3,t2
   12538:	00e97933          	and	s2,s2,a4
   1253c:	01e7f7b3          	and	a5,a5,t5
   12540:	8d61                	and	a0,a0,s0
   12542:	0075f5b3          	and	a1,a1,t2
   12546:	0144c433          	xor	s0,s1,s4
   1254a:	01537333          	and	t1,t1,s5
   1254e:	0148f8b3          	and	a7,a7,s4
   12552:	01fe4e33          	xor	t3,t3,t6
   12556:	008e4e33          	xor	t3,t3,s0
   1255a:	01594b33          	xor	s6,s2,s5
   1255e:	8d39                	xor	a0,a0,a4
   12560:	0105c5b3          	xor	a1,a1,a6
   12564:	0057c733          	xor	a4,a5,t0
   12568:	0076d393          	srli	t2,a3,0x7
   1256c:	01769813          	slli	a6,a3,0x17
   12570:	01761793          	slli	a5,a2,0x17
   12574:	01e34333          	xor	t1,t1,t5
   12578:	01d8c8b3          	xor	a7,a7,t4
   1257c:	01969993          	slli	s3,a3,0x19
   12580:	8ea2                	mv	t4,s0
   12582:	01961913          	slli	s2,a2,0x19
   12586:	00765413          	srli	s0,a2,0x7
   1258a:	00965f13          	srli	t5,a2,0x9
   1258e:	0096df93          	srli	t6,a3,0x9
   12592:	01674733          	xor	a4,a4,s6
   12596:	010f6f33          	or	t5,t5,a6
   1259a:	00ffefb3          	or	t6,t6,a5
   1259e:	0089e9b3          	or	s3,s3,s0
   125a2:	00796933          	or	s2,s2,t2
   125a6:	01f9c9b3          	xor	s3,s3,t6
   125aa:	01e94933          	xor	s2,s2,t5
   125ae:	003e1f93          	slli	t6,t3,0x3
   125b2:	01d75f13          	srli	t5,a4,0x1d
   125b6:	00371293          	slli	t0,a4,0x3
   125ba:	01ff6fb3          	or	t6,t5,t6
   125be:	01de5f13          	srli	t5,t3,0x1d
   125c2:	019e1d13          	slli	s10,t3,0x19
   125c6:	005f62b3          	or	t0,t5,t0
   125ca:	00775f13          	srli	t5,a4,0x7
   125ce:	01af6f33          	or	t5,t5,s10
   125d2:	00a34333          	xor	t1,t1,a0
   125d6:	00b8c8b3          	xor	a7,a7,a1
   125da:	c67a                	sw	t5,12(sp)
   125dc:	01971c93          	slli	s9,a4,0x19
   125e0:	007e5f13          	srli	t5,t3,0x7
   125e4:	019f6cb3          	or	s9,t5,s9
   125e8:	00a35d13          	srli	s10,t1,0xa
   125ec:	01689f13          	slli	t5,a7,0x16
   125f0:	00a8dd93          	srli	s11,a7,0xa
   125f4:	01af6f33          	or	t5,t5,s10
   125f8:	01631d13          	slli	s10,t1,0x16
   125fc:	01bd6db3          	or	s11,s10,s11
   12600:	01135b93          	srli	s7,t1,0x11
   12604:	00f89d13          	slli	s10,a7,0xf
   12608:	fff54513          	not	a0,a0
   1260c:	fff5c593          	not	a1,a1
   12610:	c276                	sw	t4,4(sp)
   12612:	00decc33          	xor	s8,t4,a3
   12616:	017d6bb3          	or	s7,s10,s7
   1261a:	0118de93          	srli	t4,a7,0x11
   1261e:	00f31d13          	slli	s10,t1,0xf
   12622:	0065d393          	srli	t2,a1,0x6
   12626:	01f51a13          	slli	s4,a0,0x1f
   1262a:	01a51813          	slli	a6,a0,0x1a
   1262e:	01dd6eb3          	or	t4,s10,t4
   12632:	0015dd13          	srli	s10,a1,0x1
   12636:	c86e                	sw	s11,16(sp)
   12638:	01aa6a33          	or	s4,s4,s10
   1263c:	00786833          	or	a6,a6,t2
   12640:	0192c2b3          	xor	t0,t0,s9
   12644:	017f4f33          	xor	t5,t5,s7
   12648:	4cb2                	lw	s9,12(sp)
   1264a:	4bc2                	lw	s7,16(sp)
   1264c:	010a4833          	xor	a6,s4,a6
   12650:	4a12                	lw	s4,4(sp)
   12652:	00cb44b3          	xor	s1,s6,a2
   12656:	00655413          	srli	s0,a0,0x6
   1265a:	01f59d93          	slli	s11,a1,0x1f
   1265e:	00155a93          	srli	s5,a0,0x1
   12662:	01a59793          	slli	a5,a1,0x1a
   12666:	015deab3          	or	s5,s11,s5
   1266a:	00d49d13          	slli	s10,s1,0xd
   1266e:	00dc1d93          	slli	s11,s8,0xd
   12672:	8fc1                	or	a5,a5,s0
   12674:	013c5393          	srli	t2,s8,0x13
   12678:	0134d413          	srli	s0,s1,0x13
   1267c:	013b4b33          	xor	s6,s6,s3
   12680:	019fcfb3          	xor	t6,t6,s9
   12684:	01dbceb3          	xor	t4,s7,t4
   12688:	00fac7b3          	xor	a5,s5,a5
   1268c:	012a4bb3          	xor	s7,s4,s2
   12690:	01c4da93          	srli	s5,s1,0x1c
   12694:	008de433          	or	s0,s11,s0
   12698:	007d63b3          	or	t2,s10,t2
   1269c:	004c1a13          	slli	s4,s8,0x4
   126a0:	0492                	slli	s1,s1,0x4
   126a2:	01cc5c13          	srli	s8,s8,0x1c
   126a6:	00e2c2b3          	xor	t0,t0,a4
   126aa:	01cfcfb3          	xor	t6,t6,t3
   126ae:	015a6a33          	or	s4,s4,s5
   126b2:	0184e4b3          	or	s1,s1,s8
   126b6:	8fa9                	xor	a5,a5,a0
   126b8:	00b84833          	xor	a6,a6,a1
   126bc:	01644433          	xor	s0,s0,s6
   126c0:	0173c3b3          	xor	t2,t2,s7
   126c4:	006f4f33          	xor	t5,t5,t1
   126c8:	011eceb3          	xor	t4,t4,a7
   126cc:	01f84833          	xor	a6,a6,t6
   126d0:	01444433          	xor	s0,s0,s4
   126d4:	0093c3b3          	xor	t2,t2,s1
   126d8:	01364633          	xor	a2,a2,s3
   126dc:	0126c6b3          	xor	a3,a3,s2
   126e0:	0057c7b3          	xor	a5,a5,t0
   126e4:	01e64933          	xor	s2,a2,t5
   126e8:	01d6c4b3          	xor	s1,a3,t4
   126ec:	05a7c713          	xori	a4,a5,90
   126f0:	fff2ca13          	not	s4,t0
   126f4:	ffffc993          	not	s3,t6
   126f8:	fff44613          	not	a2,s0
   126fc:	fff3c693          	not	a3,t2
   12700:	fff84e13          	not	t3,a6
   12704:	00ea7a33          	and	s4,s4,a4
   12708:	0109f9b3          	and	s3,s3,a6
   1270c:	ffff4513          	not	a0,t5
   12710:	fffec593          	not	a1,t4
   12714:	fff94313          	not	t1,s2
   12718:	fff4c893          	not	a7,s1
   1271c:	00567633          	and	a2,a2,t0
   12720:	01f6f6b3          	and	a3,a3,t6
   12724:	01de7e33          	and	t3,t3,t4
   12728:	fa57c793          	xori	a5,a5,-91
   1272c:	8ea5                	xor	a3,a3,s1
   1272e:	01264633          	xor	a2,a2,s2
   12732:	008a4b33          	xor	s6,s4,s0
   12736:	01e7f7b3          	and	a5,a5,t5
   1273a:	01257533          	and	a0,a0,s2
   1273e:	8de5                	and	a1,a1,s1
   12740:	00837333          	and	t1,t1,s0
   12744:	0078f8b3          	and	a7,a7,t2
   12748:	0079c433          	xor	s0,s3,t2
   1274c:	01fe4e33          	xor	t3,t3,t6
   12750:	008e4e33          	xor	t3,t3,s0
   12754:	8d39                	xor	a0,a0,a4
   12756:	0105c5b3          	xor	a1,a1,a6
   1275a:	0057c733          	xor	a4,a5,t0
   1275e:	0076d393          	srli	t2,a3,0x7
   12762:	01769813          	slli	a6,a3,0x17
   12766:	01761793          	slli	a5,a2,0x17
   1276a:	01e34333          	xor	t1,t1,t5
   1276e:	01d8c8b3          	xor	a7,a7,t4
   12772:	01969993          	slli	s3,a3,0x19
   12776:	8ea2                	mv	t4,s0
   12778:	01961913          	slli	s2,a2,0x19
   1277c:	00765413          	srli	s0,a2,0x7
   12780:	00965f13          	srli	t5,a2,0x9
   12784:	0096df93          	srli	t6,a3,0x9
   12788:	01674733          	xor	a4,a4,s6
   1278c:	010f6f33          	or	t5,t5,a6
   12790:	00ffefb3          	or	t6,t6,a5
   12794:	0089e9b3          	or	s3,s3,s0
   12798:	00796933          	or	s2,s2,t2
   1279c:	01f9c9b3          	xor	s3,s3,t6
   127a0:	01e94933          	xor	s2,s2,t5
   127a4:	003e1f93          	slli	t6,t3,0x3
   127a8:	01d75f13          	srli	t5,a4,0x1d
   127ac:	00371293          	slli	t0,a4,0x3
   127b0:	01ff6fb3          	or	t6,t5,t6
   127b4:	01de5f13          	srli	t5,t3,0x1d
   127b8:	019e1d13          	slli	s10,t3,0x19
   127bc:	005f62b3          	or	t0,t5,t0
   127c0:	00775f13          	srli	t5,a4,0x7
   127c4:	01af6f33          	or	t5,t5,s10
   127c8:	00a34333          	xor	t1,t1,a0
   127cc:	00b8c8b3          	xor	a7,a7,a1
   127d0:	c67a                	sw	t5,12(sp)
   127d2:	01971c93          	slli	s9,a4,0x19
   127d6:	007e5f13          	srli	t5,t3,0x7
   127da:	019f6cb3          	or	s9,t5,s9
   127de:	00a35d13          	srli	s10,t1,0xa
   127e2:	01689f13          	slli	t5,a7,0x16
   127e6:	00a8dd93          	srli	s11,a7,0xa
   127ea:	01af6f33          	or	t5,t5,s10
   127ee:	01631d13          	slli	s10,t1,0x16
   127f2:	01bd6db3          	or	s11,s10,s11
   127f6:	01135b93          	srli	s7,t1,0x11
   127fa:	00f89d13          	slli	s10,a7,0xf
   127fe:	fff54513          	not	a0,a0
   12802:	fff5c593          	not	a1,a1
   12806:	00decc33          	xor	s8,t4,a3
   1280a:	c276                	sw	t4,4(sp)
   1280c:	017d6bb3          	or	s7,s10,s7
   12810:	0118de93          	srli	t4,a7,0x11
   12814:	00f31d13          	slli	s10,t1,0xf
   12818:	0065d393          	srli	t2,a1,0x6
   1281c:	01f51a13          	slli	s4,a0,0x1f
   12820:	01a51813          	slli	a6,a0,0x1a
   12824:	01dd6eb3          	or	t4,s10,t4
   12828:	0015dd13          	srli	s10,a1,0x1
   1282c:	c86e                	sw	s11,16(sp)
   1282e:	01aa6a33          	or	s4,s4,s10
   12832:	00786833          	or	a6,a6,t2
   12836:	0192c2b3          	xor	t0,t0,s9
   1283a:	017f4f33          	xor	t5,t5,s7
   1283e:	4cb2                	lw	s9,12(sp)
   12840:	4bc2                	lw	s7,16(sp)
   12842:	010a4833          	xor	a6,s4,a6
   12846:	4a12                	lw	s4,4(sp)
   12848:	00cb44b3          	xor	s1,s6,a2
   1284c:	00655413          	srli	s0,a0,0x6
   12850:	01f59d93          	slli	s11,a1,0x1f
   12854:	00155a93          	srli	s5,a0,0x1
   12858:	01a59793          	slli	a5,a1,0x1a
   1285c:	015deab3          	or	s5,s11,s5
   12860:	00d49d13          	slli	s10,s1,0xd
   12864:	00dc1d93          	slli	s11,s8,0xd
   12868:	8fc1                	or	a5,a5,s0
   1286a:	013c5393          	srli	t2,s8,0x13
   1286e:	0134d413          	srli	s0,s1,0x13
   12872:	013b4b33          	xor	s6,s6,s3
   12876:	019fcfb3          	xor	t6,t6,s9
   1287a:	01dbceb3          	xor	t4,s7,t4
   1287e:	00fac7b3          	xor	a5,s5,a5
   12882:	012a4bb3          	xor	s7,s4,s2
   12886:	01c4da93          	srli	s5,s1,0x1c
   1288a:	008de433          	or	s0,s11,s0
   1288e:	007d63b3          	or	t2,s10,t2
   12892:	004c1a13          	slli	s4,s8,0x4
   12896:	0492                	slli	s1,s1,0x4
   12898:	01cc5c13          	srli	s8,s8,0x1c
   1289c:	00e2c2b3          	xor	t0,t0,a4
   128a0:	01cfcfb3          	xor	t6,t6,t3
   128a4:	00b84833          	xor	a6,a6,a1
   128a8:	015a6a33          	or	s4,s4,s5
   128ac:	0184e4b3          	or	s1,s1,s8
   128b0:	8fa9                	xor	a5,a5,a0
   128b2:	01644433          	xor	s0,s0,s6
   128b6:	0173c3b3          	xor	t2,t2,s7
   128ba:	006f4f33          	xor	t5,t5,t1
   128be:	01444433          	xor	s0,s0,s4
   128c2:	0093c3b3          	xor	t2,t2,s1
   128c6:	01364633          	xor	a2,a2,s3
   128ca:	0057c7b3          	xor	a5,a5,t0
   128ce:	01f849b3          	xor	s3,a6,t6
   128d2:	011eceb3          	xor	t4,t4,a7
   128d6:	04b7ca13          	xori	s4,a5,75
   128da:	0126c6b3          	xor	a3,a3,s2
   128de:	fff2c593          	not	a1,t0
   128e2:	01e64933          	xor	s2,a2,t5
   128e6:	fff44e13          	not	t3,s0
   128ea:	ffffc613          	not	a2,t6
   128ee:	fff3c313          	not	t1,t2
   128f2:	fff9c893          	not	a7,s3
   128f6:	fb47c793          	xori	a5,a5,-76
   128fa:	01d6c4b3          	xor	s1,a3,t4
   128fe:	0145f5b3          	and	a1,a1,s4
   12902:	01367633          	and	a2,a2,s3
   12906:	005e7e33          	and	t3,t3,t0
   1290a:	01f37333          	and	t1,t1,t6
   1290e:	01e7f7b3          	and	a5,a5,t5
   12912:	01d8f8b3          	and	a7,a7,t4
   12916:	012e4e33          	xor	t3,t3,s2
   1291a:	00934333          	xor	t1,t1,s1
   1291e:	8da1                	xor	a1,a1,s0
   12920:	00764633          	xor	a2,a2,t2
   12924:	0057c7b3          	xor	a5,a5,t0
   12928:	01f8c8b3          	xor	a7,a7,t6
   1292c:	00b7c2b3          	xor	t0,a5,a1
   12930:	00c8c8b3          	xor	a7,a7,a2
   12934:	01c5c5b3          	xor	a1,a1,t3
   12938:	00664633          	xor	a2,a2,t1
   1293c:	fff94813          	not	a6,s2
   12940:	ffff4693          	not	a3,t5
   12944:	00887833          	and	a6,a6,s0
   12948:	00d61793          	slli	a5,a2,0xd
   1294c:	0135d413          	srli	s0,a1,0x13
   12950:	8c5d                	or	s0,s0,a5
   12952:	fff4c513          	not	a0,s1
   12956:	0126f6b3          	and	a3,a3,s2
   1295a:	0072d913          	srli	s2,t0,0x7
   1295e:	c24a                	sw	s2,4(sp)
   12960:	00757533          	and	a0,a0,t2
   12964:	c822                	sw	s0,16(sp)
   12966:	00d59793          	slli	a5,a1,0xd
   1296a:	01365413          	srli	s0,a2,0x13
   1296e:	8c5d                	or	s0,s0,a5
   12970:	fffec713          	not	a4,t4
   12974:	01d54533          	xor	a0,a0,t4
   12978:	01c5d793          	srli	a5,a1,0x1c
   1297c:	00461e93          	slli	t4,a2,0x4
   12980:	0146c6b3          	xor	a3,a3,s4
   12984:	00feeeb3          	or	t4,t4,a5
   12988:	01c65a13          	srli	s4,a2,0x1c
   1298c:	00459793          	slli	a5,a1,0x4
   12990:	8f65                	and	a4,a4,s1
   12992:	01d2dd13          	srli	s10,t0,0x1d
   12996:	0147ea33          	or	s4,a5,s4
   1299a:	00389793          	slli	a5,a7,0x3
   1299e:	01374733          	xor	a4,a4,s3
   129a2:	00fd6d33          	or	s10,s10,a5
   129a6:	00329993          	slli	s3,t0,0x3
   129aa:	01d8d793          	srli	a5,a7,0x1d
   129ae:	0137e9b3          	or	s3,a5,s3
   129b2:	4792                	lw	a5,4(sp)
   129b4:	01e84833          	xor	a6,a6,t5
   129b8:	01989913          	slli	s2,a7,0x19
   129bc:	00d84833          	xor	a6,a6,a3
   129c0:	8d39                	xor	a0,a0,a4
   129c2:	fff6c693          	not	a3,a3
   129c6:	fff74713          	not	a4,a4
   129ca:	01929d93          	slli	s11,t0,0x19
   129ce:	0127e933          	or	s2,a5,s2
   129d2:	0078d793          	srli	a5,a7,0x7
   129d6:	ca22                	sw	s0,20(sp)
   129d8:	01b7edb3          	or	s11,a5,s11
   129dc:	0016d413          	srli	s0,a3,0x1
   129e0:	01f71793          	slli	a5,a4,0x1f
   129e4:	8c5d                	or	s0,s0,a5
   129e6:	00175c93          	srli	s9,a4,0x1
   129ea:	01f69793          	slli	a5,a3,0x1f
   129ee:	0197ecb3          	or	s9,a5,s9
   129f2:	0066d493          	srli	s1,a3,0x6
   129f6:	01a71793          	slli	a5,a4,0x1a
   129fa:	c222                	sw	s0,4(sp)
   129fc:	8cdd                	or	s1,s1,a5
   129fe:	00675413          	srli	s0,a4,0x6
   12a02:	01a69793          	slli	a5,a3,0x1a
   12a06:	8c5d                	or	s0,s0,a5
   12a08:	00a85c13          	srli	s8,a6,0xa
   12a0c:	01651793          	slli	a5,a0,0x16
   12a10:	0187ec33          	or	s8,a5,s8
   12a14:	00a55b93          	srli	s7,a0,0xa
   12a18:	01681793          	slli	a5,a6,0x16
   12a1c:	0177ebb3          	or	s7,a5,s7
   12a20:	01185393          	srli	t2,a6,0x11
   12a24:	00f51793          	slli	a5,a0,0xf
   12a28:	c616                	sw	t0,12(sp)
   12a2a:	0077e3b3          	or	t2,a5,t2
   12a2e:	01155293          	srli	t0,a0,0x11
   12a32:	00f81793          	slli	a5,a6,0xf
   12a36:	0057e2b3          	or	t0,a5,t0
   12a3a:	007e5b13          	srli	s6,t3,0x7
   12a3e:	01931793          	slli	a5,t1,0x19
   12a42:	0167eb33          	or	s6,a5,s6
   12a46:	00735a93          	srli	s5,t1,0x7
   12a4a:	019e1793          	slli	a5,t3,0x19
   12a4e:	0157eab3          	or	s5,a5,s5
   12a52:	01731f13          	slli	t5,t1,0x17
   12a56:	009e5793          	srli	a5,t3,0x9
   12a5a:	01e7ef33          	or	t5,a5,t5
   12a5e:	017e1f93          	slli	t6,t3,0x17
   12a62:	00935793          	srli	a5,t1,0x9
   12a66:	01f7efb3          	or	t6,a5,t6
   12a6a:	47c2                	lw	a5,16(sp)
   12a6c:	008cc433          	xor	s0,s9,s0
   12a70:	8c39                	xor	s0,s0,a4
   12a72:	01d7ceb3          	xor	t4,a5,t4
   12a76:	47d2                	lw	a5,20(sp)
   12a78:	4722                	lw	a4,8(sp)
   12a7a:	01b9c9b3          	xor	s3,s3,s11
   12a7e:	0147ca33          	xor	s4,a5,s4
   12a82:	4792                	lw	a5,4(sp)
   12a84:	012d4933          	xor	s2,s10,s2
   12a88:	007c43b3          	xor	t2,s8,t2
   12a8c:	8cbd                	xor	s1,s1,a5
   12a8e:	47b2                	lw	a5,12(sp)
   12a90:	005bc2b3          	xor	t0,s7,t0
   12a94:	01fb4fb3          	xor	t6,s6,t6
   12a98:	01eacf33          	xor	t5,s5,t5
   12a9c:	cb40                	sw	s0,20(a4)
   12a9e:	4436                	lw	s0,76(sp)
   12aa0:	00ca4a33          	xor	s4,s4,a2
   12aa4:	00f9c9b3          	xor	s3,s3,a5
   12aa8:	01194933          	xor	s2,s2,a7
   12aac:	8cb5                	xor	s1,s1,a3
   12aae:	00beceb3          	xor	t4,t4,a1
   12ab2:	0103c3b3          	xor	t2,t2,a6
   12ab6:	00a2c2b3          	xor	t0,t0,a0
   12aba:	01cfcfb3          	xor	t6,t6,t3
   12abe:	006f4f33          	xor	t5,t5,t1
   12ac2:	01472223          	sw	s4,4(a4)
   12ac6:	01372423          	sw	s3,8(a4)
   12aca:	01272623          	sw	s2,12(a4)
   12ace:	cb04                	sw	s1,16(a4)
   12ad0:	01d72023          	sw	t4,0(a4)
   12ad4:	00772c23          	sw	t2,24(a4)
   12ad8:	00572e23          	sw	t0,28(a4)
   12adc:	03f72023          	sw	t6,32(a4)
   12ae0:	03e72223          	sw	t5,36(a4)
   12ae4:	44a6                	lw	s1,72(sp)
   12ae6:	4916                	lw	s2,68(sp)
   12ae8:	4986                	lw	s3,64(sp)
   12aea:	5a72                	lw	s4,60(sp)
   12aec:	5ae2                	lw	s5,56(sp)
   12aee:	5b52                	lw	s6,52(sp)
   12af0:	5bc2                	lw	s7,48(sp)
   12af2:	5c32                	lw	s8,44(sp)
   12af4:	5ca2                	lw	s9,40(sp)
   12af6:	5d12                	lw	s10,36(sp)
   12af8:	5d82                	lw	s11,32(sp)
   12afa:	6161                	addi	sp,sp,80
   12afc:	8082                	ret

00012afe <crypto_aead_encrypt>:
   12afe:	7131                	addi	sp,sp,-192
   12b00:	01068e13          	addi	t3,a3,16
   12b04:	db26                	sw	s1,180(sp)
   12b06:	84b6                	mv	s1,a3
   12b08:	46ae                	lw	a3,200(sp)
   12b0a:	8eba                	mv	t4,a4
   12b0c:	009e3733          	sltu	a4,t3,s1
   12b10:	d94a                	sw	s2,176(sp)
   12b12:	cd62                	sw	s8,152(sp)
   12b14:	cb66                	sw	s9,148(sp)
   12b16:	df06                	sw	ra,188(sp)
   12b18:	dd22                	sw	s0,184(sp)
   12b1a:	d74e                	sw	s3,172(sp)
   12b1c:	d552                	sw	s4,168(sp)
   12b1e:	d356                	sw	s5,164(sp)
   12b20:	d15a                	sw	s6,160(sp)
   12b22:	cf5e                	sw	s7,156(sp)
   12b24:	c96a                	sw	s10,144(sp)
   12b26:	c76e                	sw	s11,140(sp)
   12b28:	9776                	add	a4,a4,t4
   12b2a:	01c5a023          	sw	t3,0(a1)
   12b2e:	8c32                	mv	s8,a2
   12b30:	8942                	mv	s2,a6
   12b32:	863e                	mv	a2,a5
   12b34:	c1d8                	sw	a4,4(a1)
   12b36:	431e                	lw	t1,196(sp)
   12b38:	8caa                	mv	s9,a0
   12b3a:	85b6                	mv	a1,a3
   12b3c:	03800793          	li	a5,56
   12b40:	4e01                	li	t3,0
   12b42:	4801                	li	a6,0
   12b44:	43fd                	li	t2,31
   12b46:	52e1                	li	t0,-8
   12b48:	a831                	j	12b64 <crypto_aead_encrypt+0x66>
   12b4a:	4401                	li	s0,0
   12b4c:	00a71ab3          	sll	s5,a4,a0
   12b50:	008e6433          	or	s0,t3,s0
   12b54:	01586ab3          	or	s5,a6,s5
   12b58:	17e1                	addi	a5,a5,-8
   12b5a:	8e22                	mv	t3,s0
   12b5c:	8856                	mv	a6,s5
   12b5e:	0585                	addi	a1,a1,1
   12b60:	02578a63          	beq	a5,t0,12b94 <crypto_aead_encrypt+0x96>
   12b64:	fe078513          	addi	a0,a5,-32
   12b68:	0005c703          	lbu	a4,0(a1)
   12b6c:	40f38f33          	sub	t5,t2,a5
   12b70:	fc055de3          	bgez	a0,12b4a <crypto_aead_encrypt+0x4c>
   12b74:	00175513          	srli	a0,a4,0x1
   12b78:	00f71433          	sll	s0,a4,a5
   12b7c:	01e55ab3          	srl	s5,a0,t5
   12b80:	008e6433          	or	s0,t3,s0
   12b84:	01586ab3          	or	s5,a6,s5
   12b88:	17e1                	addi	a5,a5,-8
   12b8a:	8e22                	mv	t3,s0
   12b8c:	8856                	mv	a6,s5
   12b8e:	0585                	addi	a1,a1,1
   12b90:	fc579ae3          	bne	a5,t0,12b64 <crypto_aead_encrypt+0x66>
   12b94:	06a1                	addi	a3,a3,8
   12b96:	03800793          	li	a5,56
   12b9a:	4801                	li	a6,0
   12b9c:	4501                	li	a0,0
   12b9e:	42fd                	li	t0,31
   12ba0:	5fe1                	li	t6,-8
   12ba2:	a831                	j	12bbe <crypto_aead_encrypt+0xc0>
   12ba4:	4d01                	li	s10,0
   12ba6:	00b71db3          	sll	s11,a4,a1
   12baa:	01a86d33          	or	s10,a6,s10
   12bae:	01b56db3          	or	s11,a0,s11
   12bb2:	17e1                	addi	a5,a5,-8
   12bb4:	886a                	mv	a6,s10
   12bb6:	856e                	mv	a0,s11
   12bb8:	0685                	addi	a3,a3,1
   12bba:	03f78a63          	beq	a5,t6,12bee <crypto_aead_encrypt+0xf0>
   12bbe:	fe078593          	addi	a1,a5,-32
   12bc2:	0006c703          	lbu	a4,0(a3)
   12bc6:	40f28e33          	sub	t3,t0,a5
   12bca:	fc05dde3          	bgez	a1,12ba4 <crypto_aead_encrypt+0xa6>
   12bce:	00175593          	srli	a1,a4,0x1
   12bd2:	00f71d33          	sll	s10,a4,a5
   12bd6:	01c5ddb3          	srl	s11,a1,t3
   12bda:	01a86d33          	or	s10,a6,s10
   12bde:	01b56db3          	or	s11,a0,s11
   12be2:	17e1                	addi	a5,a5,-8
   12be4:	886a                	mv	a6,s10
   12be6:	856e                	mv	a0,s11
   12be8:	0685                	addi	a3,a3,1
   12bea:	fdf79ae3          	bne	a5,t6,12bbe <crypto_aead_encrypt+0xc0>
   12bee:	851a                	mv	a0,t1
   12bf0:	03800793          	li	a5,56
   12bf4:	4e01                	li	t3,0
   12bf6:	4801                	li	a6,0
   12bf8:	42fd                	li	t0,31
   12bfa:	5fe1                	li	t6,-8
   12bfc:	a831                	j	12c18 <crypto_aead_encrypt+0x11a>
   12bfe:	4581                	li	a1,0
   12c00:	00d716b3          	sll	a3,a4,a3
   12c04:	00be65b3          	or	a1,t3,a1
   12c08:	00d866b3          	or	a3,a6,a3
   12c0c:	17e1                	addi	a5,a5,-8
   12c0e:	8e2e                	mv	t3,a1
   12c10:	8836                	mv	a6,a3
   12c12:	0505                	addi	a0,a0,1
   12c14:	03f78a63          	beq	a5,t6,12c48 <crypto_aead_encrypt+0x14a>
   12c18:	fe078693          	addi	a3,a5,-32
   12c1c:	00054703          	lbu	a4,0(a0)
   12c20:	40f28f33          	sub	t5,t0,a5
   12c24:	fc06dde3          	bgez	a3,12bfe <crypto_aead_encrypt+0x100>
   12c28:	00175693          	srli	a3,a4,0x1
   12c2c:	00f715b3          	sll	a1,a4,a5
   12c30:	01e6d6b3          	srl	a3,a3,t5
   12c34:	00be65b3          	or	a1,t3,a1
   12c38:	00d866b3          	or	a3,a6,a3
   12c3c:	17e1                	addi	a5,a5,-8
   12c3e:	8e2e                	mv	t3,a1
   12c40:	8836                	mv	a6,a3
   12c42:	0505                	addi	a0,a0,1
   12c44:	fdf79ae3          	bne	a5,t6,12c18 <crypto_aead_encrypt+0x11a>
   12c48:	0321                	addi	t1,t1,8 # 10288 <frame_dummy+0x1a>
   12c4a:	03800793          	li	a5,56
   12c4e:	4e01                	li	t3,0
   12c50:	4801                	li	a6,0
   12c52:	43fd                	li	t2,31
   12c54:	52e1                	li	t0,-8
   12c56:	a821                	j	12c6e <crypto_aead_encrypt+0x170>
   12c58:	4f01                	li	t5,0
   12c5a:	00a71733          	sll	a4,a4,a0
   12c5e:	17e1                	addi	a5,a5,-8
   12c60:	01ee6e33          	or	t3,t3,t5
   12c64:	00e86833          	or	a6,a6,a4
   12c68:	0305                	addi	t1,t1,1
   12c6a:	02578863          	beq	a5,t0,12c9a <crypto_aead_encrypt+0x19c>
   12c6e:	fe078513          	addi	a0,a5,-32
   12c72:	00034703          	lbu	a4,0(t1)
   12c76:	40f38fb3          	sub	t6,t2,a5
   12c7a:	fc055fe3          	bgez	a0,12c58 <crypto_aead_encrypt+0x15a>
   12c7e:	00175513          	srli	a0,a4,0x1
   12c82:	00f71f33          	sll	t5,a4,a5
   12c86:	01f55733          	srl	a4,a0,t6
   12c8a:	17e1                	addi	a5,a5,-8
   12c8c:	01ee6e33          	or	t3,t3,t5
   12c90:	00e86833          	or	a6,a6,a4
   12c94:	0305                	addi	t1,t1,1
   12c96:	fc579ce3          	bne	a5,t0,12c6e <crypto_aead_encrypt+0x170>
   12c9a:	808017b7          	lui	a5,0x80801
   12c9e:	c0878793          	addi	a5,a5,-1016 # 80800c08 <__BSS_END__+0x807dcd0c>
   12ca2:	4701                	li	a4,0
   12ca4:	08a8                	addi	a0,sp,88
   12ca6:	c876                	sw	t4,16(sp)
   12ca8:	c646                	sw	a7,12(sp)
   12caa:	cebe                	sw	a5,92(sp)
   12cac:	dcf2                	sw	t3,120(sp)
   12cae:	ca32                	sw	a2,20(sp)
   12cb0:	ccba                	sw	a4,88(sp)
   12cb2:	d0a2                	sw	s0,96(sp)
   12cb4:	d2d6                	sw	s5,100(sp)
   12cb6:	d4ea                	sw	s10,104(sp)
   12cb8:	d6ee                	sw	s11,108(sp)
   12cba:	d8ae                	sw	a1,112(sp)
   12cbc:	dab6                	sw	a3,116(sp)
   12cbe:	dec2                	sw	a6,124(sp)
   12cc0:	e4cfe0ef          	jal	1130c <P12>
   12cc4:	5e66                	lw	t3,120(sp)
   12cc6:	59c6                	lw	s3,112(sp)
   12cc8:	5bd6                	lw	s7,116(sp)
   12cca:	52f6                	lw	t0,124(sp)
   12ccc:	48b2                	lw	a7,12(sp)
   12cce:	0089c9b3          	xor	s3,s3,s0
   12cd2:	015bcbb3          	xor	s7,s7,s5
   12cd6:	01ae4e33          	xor	t3,t3,s10
   12cda:	01b2c2b3          	xor	t0,t0,s11
   12cde:	d8ce                	sw	s3,112(sp)
   12ce0:	dade                	sw	s7,116(sp)
   12ce2:	dcf2                	sw	t3,120(sp)
   12ce4:	de96                	sw	t0,124(sp)
   12ce6:	011967b3          	or	a5,s2,a7
   12cea:	4ec2                	lw	t4,16(sp)
   12cec:	e399                	bnez	a5,12cf2 <crypto_aead_encrypt+0x1f4>
   12cee:	1a60106f          	j	13e94 <crypto_aead_encrypt+0x1396>
   12cf2:	4b66                	lw	s6,88(sp)
   12cf4:	4a76                	lw	s4,92(sp)
   12cf6:	4652                	lw	a2,20(sp)
   12cf8:	00089463          	bnez	a7,12d00 <crypto_aead_encrypt+0x202>
   12cfc:	5860206f          	j	15282 <crypto_aead_encrypt+0x2784>
   12d00:	5786                	lw	a5,96(sp)
   12d02:	5716                	lw	a4,100(sp)
   12d04:	5f26                	lw	t5,104(sp)
   12d06:	50b6                	lw	ra,108(sp)
   12d08:	c84a                	sw	s2,16(sp)
   12d0a:	ca46                	sw	a7,20(sp)
   12d0c:	c632                	sw	a2,12(sp)
   12d0e:	d466                	sw	s9,40(sp)
   12d10:	d662                	sw	s8,44(sp)
   12d12:	d832                	sw	a2,48(sp)
   12d14:	da26                	sw	s1,52(sp)
   12d16:	dc76                	sw	t4,56(sp)
   12d18:	de4a                	sw	s2,60(sp)
   12d1a:	c0a2                	sw	s0,64(sp)
   12d1c:	c2d6                	sw	s5,68(sp)
   12d1e:	c4ea                	sw	s10,72(sp)
   12d20:	c6ee                	sw	s11,76(sp)
   12d22:	4632                	lw	a2,12(sp)
   12d24:	03800693          	li	a3,56
   12d28:	4881                	li	a7,0
   12d2a:	4801                	li	a6,0
   12d2c:	a839                	j	12d4a <crypto_aead_encrypt+0x24c>
   12d2e:	00a595b3          	sll	a1,a1,a0
   12d32:	4301                	li	t1,0
   12d34:	0068e333          	or	t1,a7,t1
   12d38:	00b865b3          	or	a1,a6,a1
   12d3c:	16e1                	addi	a3,a3,-8
   12d3e:	5561                	li	a0,-8
   12d40:	889a                	mv	a7,t1
   12d42:	882e                	mv	a6,a1
   12d44:	0605                	addi	a2,a2,1
   12d46:	02a68c63          	beq	a3,a0,12d7e <crypto_aead_encrypt+0x280>
   12d4a:	45fd                	li	a1,31
   12d4c:	fe068513          	addi	a0,a3,-32
   12d50:	40d58eb3          	sub	t4,a1,a3
   12d54:	00064583          	lbu	a1,0(a2)
   12d58:	fc055be3          	bgez	a0,12d2e <crypto_aead_encrypt+0x230>
   12d5c:	0015d513          	srli	a0,a1,0x1
   12d60:	00d59333          	sll	t1,a1,a3
   12d64:	01d555b3          	srl	a1,a0,t4
   12d68:	0068e333          	or	t1,a7,t1
   12d6c:	00b865b3          	or	a1,a6,a1
   12d70:	16e1                	addi	a3,a3,-8
   12d72:	5561                	li	a0,-8
   12d74:	889a                	mv	a7,t1
   12d76:	882e                	mv	a6,a1
   12d78:	0605                	addi	a2,a2,1
   12d7a:	fca698e3          	bne	a3,a0,12d4a <crypto_aead_encrypt+0x24c>
   12d7e:	46b2                	lw	a3,12(sp)
   12d80:	03800513          	li	a0,56
   12d84:	4e81                	li	t4,0
   12d86:	06a1                	addi	a3,a3,8
   12d88:	4881                	li	a7,0
   12d8a:	a829                	j	12da4 <crypto_aead_encrypt+0x2a6>
   12d8c:	01061633          	sll	a2,a2,a6
   12d90:	4f81                	li	t6,0
   12d92:	00c8e8b3          	or	a7,a7,a2
   12d96:	1561                	addi	a0,a0,-8
   12d98:	5661                	li	a2,-8
   12d9a:	01feeeb3          	or	t4,t4,t6
   12d9e:	0685                	addi	a3,a3,1
   12da0:	02c50a63          	beq	a0,a2,12dd4 <crypto_aead_encrypt+0x2d6>
   12da4:	467d                	li	a2,31
   12da6:	fe050813          	addi	a6,a0,-32
   12daa:	40a603b3          	sub	t2,a2,a0
   12dae:	0006c603          	lbu	a2,0(a3)
   12db2:	fc085de3          	bgez	a6,12d8c <crypto_aead_encrypt+0x28e>
   12db6:	00165813          	srli	a6,a2,0x1
   12dba:	00a61fb3          	sll	t6,a2,a0
   12dbe:	00785633          	srl	a2,a6,t2
   12dc2:	00c8e8b3          	or	a7,a7,a2
   12dc6:	1561                	addi	a0,a0,-8
   12dc8:	5661                	li	a2,-8
   12dca:	01feeeb3          	or	t4,t4,t6
   12dce:	0685                	addi	a3,a3,1
   12dd0:	fcc51ae3          	bne	a0,a2,12da4 <crypto_aead_encrypt+0x2a6>
   12dd4:	01cb4833          	xor	a6,s6,t3
   12dd8:	005a4a33          	xor	s4,s4,t0
   12ddc:	00fecfb3          	xor	t6,t4,a5
   12de0:	00e8c3b3          	xor	t2,a7,a4
   12de4:	00684833          	xor	a6,a6,t1
   12de8:	00ba4a33          	xor	s4,s4,a1
   12dec:	0013ceb3          	xor	t4,t2,ra
   12df0:	01c9ce33          	xor	t3,s3,t3
   12df4:	01efc7b3          	xor	a5,t6,t5
   12df8:	fff84613          	not	a2,a6
   12dfc:	fffa4693          	not	a3,s4
   12e00:	005bc433          	xor	s0,s7,t0
   12e04:	fff9c513          	not	a0,s3
   12e08:	0b47c293          	xori	t0,a5,180
   12e0c:	ffffc093          	not	ra,t6
   12e10:	fff3c713          	not	a4,t2
   12e14:	fffec493          	not	s1,t4
   12e18:	fffe4313          	not	t1,t3
   12e1c:	01f67633          	and	a2,a2,t6
   12e20:	0076f6b3          	and	a3,a3,t2
   12e24:	f4b7c793          	xori	a5,a5,-181
   12e28:	01c64633          	xor	a2,a2,t3
   12e2c:	8ea1                	xor	a3,a3,s0
   12e2e:	0137f7b3          	and	a5,a5,s3
   12e32:	0174f4b3          	and	s1,s1,s7
   12e36:	0050f0b3          	and	ra,ra,t0
   12e3a:	01d77733          	and	a4,a4,t4
   12e3e:	fffbc593          	not	a1,s7
   12e42:	01c57533          	and	a0,a0,t3
   12e46:	01037333          	and	t1,t1,a6
   12e4a:	0100cc33          	xor	s8,ra,a6
   12e4e:	01474cb3          	xor	s9,a4,s4
   12e52:	00554533          	xor	a0,a0,t0
   12e56:	01f7c733          	xor	a4,a5,t6
   12e5a:	0074ce33          	xor	t3,s1,t2
   12e5e:	0076d293          	srli	t0,a3,0x7
   12e62:	00765393          	srli	t2,a2,0x7
   12e66:	01769813          	slli	a6,a3,0x17
   12e6a:	01761793          	slli	a5,a2,0x17
   12e6e:	fff44f13          	not	t5,s0
   12e72:	8de1                	and	a1,a1,s0
   12e74:	01334333          	xor	t1,t1,s3
   12e78:	01961493          	slli	s1,a2,0x19
   12e7c:	01969993          	slli	s3,a3,0x19
   12e80:	00965413          	srli	s0,a2,0x9
   12e84:	0096d913          	srli	s2,a3,0x9
   12e88:	01874733          	xor	a4,a4,s8
   12e8c:	019e4e33          	xor	t3,t3,s9
   12e90:	0079e9b3          	or	s3,s3,t2
   12e94:	0054e4b3          	or	s1,s1,t0
   12e98:	01046433          	or	s0,s0,a6
   12e9c:	00f96933          	or	s2,s2,a5
   12ea0:	0129c933          	xor	s2,s3,s2
   12ea4:	0084c9b3          	xor	s3,s1,s0
   12ea8:	01d75413          	srli	s0,a4,0x1d
   12eac:	003e1493          	slli	s1,t3,0x3
   12eb0:	8cc1                	or	s1,s1,s0
   12eb2:	cc4a                	sw	s2,24(sp)
   12eb4:	ce26                	sw	s1,28(sp)
   12eb6:	014f7f33          	and	t5,t5,s4
   12eba:	00371913          	slli	s2,a4,0x3
   12ebe:	01de5493          	srli	s1,t3,0x1d
   12ec2:	01d5c5b3          	xor	a1,a1,t4
   12ec6:	017f48b3          	xor	a7,t5,s7
   12eca:	0124e4b3          	or	s1,s1,s2
   12ece:	019e1b93          	slli	s7,t3,0x19
   12ed2:	00775913          	srli	s2,a4,0x7
   12ed6:	00a34333          	xor	t1,t1,a0
   12eda:	00b8c8b3          	xor	a7,a7,a1
   12ede:	01796933          	or	s2,s2,s7
   12ee2:	01971413          	slli	s0,a4,0x19
   12ee6:	007e5b93          	srli	s7,t3,0x7
   12eea:	008bebb3          	or	s7,s7,s0
   12eee:	00a35d93          	srli	s11,t1,0xa
   12ef2:	01689413          	slli	s0,a7,0x16
   12ef6:	00a8dd13          	srli	s10,a7,0xa
   12efa:	01b46db3          	or	s11,s0,s11
   12efe:	01631413          	slli	s0,t1,0x16
   12f02:	01a46d33          	or	s10,s0,s10
   12f06:	00f89093          	slli	ra,a7,0xf
   12f0a:	01135413          	srli	s0,t1,0x11
   12f0e:	fff54513          	not	a0,a0
   12f12:	fff5c593          	not	a1,a1
   12f16:	0080e0b3          	or	ra,ra,s0
   12f1a:	0118de93          	srli	t4,a7,0x11
   12f1e:	00f31413          	slli	s0,t1,0xf
   12f22:	d05e                	sw	s7,32(sp)
   12f24:	00155393          	srli	t2,a0,0x1
   12f28:	01d46eb3          	or	t4,s0,t4
   12f2c:	01f59413          	slli	s0,a1,0x1f
   12f30:	007463b3          	or	t2,s0,t2
   12f34:	5402                	lw	s0,32(sp)
   12f36:	00cc4fb3          	xor	t6,s8,a2
   12f3a:	00dccf33          	xor	t5,s9,a3
   12f3e:	01f51b13          	slli	s6,a0,0x1f
   12f42:	0065da13          	srli	s4,a1,0x6
   12f46:	0015d293          	srli	t0,a1,0x1
   12f4a:	01a51813          	slli	a6,a0,0x1a
   12f4e:	005b62b3          	or	t0,s6,t0
   12f52:	01486833          	or	a6,a6,s4
   12f56:	00df9b13          	slli	s6,t6,0xd
   12f5a:	013f5a13          	srli	s4,t5,0x13
   12f5e:	8ca1                	xor	s1,s1,s0
   12f60:	014b6a33          	or	s4,s6,s4
   12f64:	4472                	lw	s0,28(sp)
   12f66:	4b62                	lw	s6,24(sp)
   12f68:	01a59a93          	slli	s5,a1,0x1a
   12f6c:	00655793          	srli	a5,a0,0x6
   12f70:	00df1b93          	slli	s7,t5,0xd
   12f74:	00fae7b3          	or	a5,s5,a5
   12f78:	013fda93          	srli	s5,t6,0x13
   12f7c:	015beab3          	or	s5,s7,s5
   12f80:	01244433          	xor	s0,s0,s2
   12f84:	001dcdb3          	xor	s11,s11,ra
   12f88:	013cc933          	xor	s2,s9,s3
   12f8c:	004f1093          	slli	ra,t5,0x4
   12f90:	00f3c7b3          	xor	a5,t2,a5
   12f94:	0102c833          	xor	a6,t0,a6
   12f98:	01cfd393          	srli	t2,t6,0x1c
   12f9c:	016c42b3          	xor	t0,s8,s6
   12fa0:	0f92                	slli	t6,t6,0x4
   12fa2:	01cf5f13          	srli	t5,t5,0x1c
   12fa6:	0070e3b3          	or	t2,ra,t2
   12faa:	01efef33          	or	t5,t6,t5
   12fae:	01dd4eb3          	xor	t4,s10,t4
   12fb2:	005ac2b3          	xor	t0,s5,t0
   12fb6:	012a4a33          	xor	s4,s4,s2
   12fba:	8cb9                	xor	s1,s1,a4
   12fbc:	01c44433          	xor	s0,s0,t3
   12fc0:	006dcdb3          	xor	s11,s11,t1
   12fc4:	011eceb3          	xor	t4,t4,a7
   12fc8:	0072c2b3          	xor	t0,t0,t2
   12fcc:	01ea4a33          	xor	s4,s4,t5
   12fd0:	01664633          	xor	a2,a2,s6
   12fd4:	0136c6b3          	xor	a3,a3,s3
   12fd8:	8fa9                	xor	a5,a5,a0
   12fda:	00b84833          	xor	a6,a6,a1
   12fde:	01b64fb3          	xor	t6,a2,s11
   12fe2:	01d6cf33          	xor	t5,a3,t4
   12fe6:	00884833          	xor	a6,a6,s0
   12fea:	8fa5                	xor	a5,a5,s1
   12fec:	fff2c613          	not	a2,t0
   12ff0:	fffa4693          	not	a3,s4
   12ff4:	0a57c393          	xori	t2,a5,165
   12ff8:	fff4c913          	not	s2,s1
   12ffc:	fff44093          	not	ra,s0
   13000:	fffdc513          	not	a0,s11
   13004:	fffec593          	not	a1,t4
   13008:	f5a7c713          	xori	a4,a5,-166
   1300c:	fff84e13          	not	t3,a6
   13010:	8e65                	and	a2,a2,s1
   13012:	8ee1                	and	a3,a3,s0
   13014:	01f64633          	xor	a2,a2,t6
   13018:	01e6c6b3          	xor	a3,a3,t5
   1301c:	00797933          	and	s2,s2,t2
   13020:	0100f0b3          	and	ra,ra,a6
   13024:	ffffc313          	not	t1,t6
   13028:	01f57533          	and	a0,a0,t6
   1302c:	01e5f5b3          	and	a1,a1,t5
   13030:	01b77733          	and	a4,a4,s11
   13034:	01de7e33          	and	t3,t3,t4
   13038:	00594c33          	xor	s8,s2,t0
   1303c:	0140ccb3          	xor	s9,ra,s4
   13040:	00754533          	xor	a0,a0,t2
   13044:	0105c5b3          	xor	a1,a1,a6
   13048:	00765393          	srli	t2,a2,0x7
   1304c:	01769813          	slli	a6,a3,0x17
   13050:	01761793          	slli	a5,a2,0x17
   13054:	00537333          	and	t1,t1,t0
   13058:	8f25                	xor	a4,a4,s1
   1305a:	0076d293          	srli	t0,a3,0x7
   1305e:	008e4e33          	xor	t3,t3,s0
   13062:	01969993          	slli	s3,a3,0x19
   13066:	01961493          	slli	s1,a2,0x19
   1306a:	00965413          	srli	s0,a2,0x9
   1306e:	0096d913          	srli	s2,a3,0x9
   13072:	01874733          	xor	a4,a4,s8
   13076:	019e4e33          	xor	t3,t3,s9
   1307a:	0079e9b3          	or	s3,s3,t2
   1307e:	0054e4b3          	or	s1,s1,t0
   13082:	01046433          	or	s0,s0,a6
   13086:	00f96933          	or	s2,s2,a5
   1308a:	0129c933          	xor	s2,s3,s2
   1308e:	0084c9b3          	xor	s3,s1,s0
   13092:	01d75413          	srli	s0,a4,0x1d
   13096:	003e1493          	slli	s1,t3,0x3
   1309a:	8cc1                	or	s1,s1,s0
   1309c:	ffff4893          	not	a7,t5
   130a0:	cc4a                	sw	s2,24(sp)
   130a2:	ce26                	sw	s1,28(sp)
   130a4:	00371913          	slli	s2,a4,0x3
   130a8:	0148f8b3          	and	a7,a7,s4
   130ac:	01de5493          	srli	s1,t3,0x1d
   130b0:	019e1b93          	slli	s7,t3,0x19
   130b4:	01b34333          	xor	t1,t1,s11
   130b8:	01d8c8b3          	xor	a7,a7,t4
   130bc:	0124e4b3          	or	s1,s1,s2
   130c0:	00775913          	srli	s2,a4,0x7
   130c4:	00a34333          	xor	t1,t1,a0
   130c8:	00b8c8b3          	xor	a7,a7,a1
   130cc:	01796933          	or	s2,s2,s7
   130d0:	01971413          	slli	s0,a4,0x19
   130d4:	007e5b93          	srli	s7,t3,0x7
   130d8:	008bebb3          	or	s7,s7,s0
   130dc:	00a35d93          	srli	s11,t1,0xa
   130e0:	01689413          	slli	s0,a7,0x16
   130e4:	00a8dd13          	srli	s10,a7,0xa
   130e8:	01b46db3          	or	s11,s0,s11
   130ec:	01631413          	slli	s0,t1,0x16
   130f0:	01a46d33          	or	s10,s0,s10
   130f4:	00f89093          	slli	ra,a7,0xf
   130f8:	01135413          	srli	s0,t1,0x11
   130fc:	fff54513          	not	a0,a0
   13100:	fff5c593          	not	a1,a1
   13104:	0080e0b3          	or	ra,ra,s0
   13108:	0118de93          	srli	t4,a7,0x11
   1310c:	00f31413          	slli	s0,t1,0xf
   13110:	d05e                	sw	s7,32(sp)
   13112:	00155393          	srli	t2,a0,0x1
   13116:	01d46eb3          	or	t4,s0,t4
   1311a:	01f59413          	slli	s0,a1,0x1f
   1311e:	007463b3          	or	t2,s0,t2
   13122:	5402                	lw	s0,32(sp)
   13124:	00cc4fb3          	xor	t6,s8,a2
   13128:	00dccf33          	xor	t5,s9,a3
   1312c:	01f51b13          	slli	s6,a0,0x1f
   13130:	0065da13          	srli	s4,a1,0x6
   13134:	0015d293          	srli	t0,a1,0x1
   13138:	01a51813          	slli	a6,a0,0x1a
   1313c:	005b62b3          	or	t0,s6,t0
   13140:	01486833          	or	a6,a6,s4
   13144:	00df9b13          	slli	s6,t6,0xd
   13148:	013f5a13          	srli	s4,t5,0x13
   1314c:	8ca1                	xor	s1,s1,s0
   1314e:	014b6a33          	or	s4,s6,s4
   13152:	4472                	lw	s0,28(sp)
   13154:	4b62                	lw	s6,24(sp)
   13156:	01a59a93          	slli	s5,a1,0x1a
   1315a:	00655793          	srli	a5,a0,0x6
   1315e:	00df1b93          	slli	s7,t5,0xd
   13162:	00fae7b3          	or	a5,s5,a5
   13166:	013fda93          	srli	s5,t6,0x13
   1316a:	015beab3          	or	s5,s7,s5
   1316e:	01244433          	xor	s0,s0,s2
   13172:	001dcdb3          	xor	s11,s11,ra
   13176:	013cc933          	xor	s2,s9,s3
   1317a:	004f1093          	slli	ra,t5,0x4
   1317e:	00f3c7b3          	xor	a5,t2,a5
   13182:	0102c833          	xor	a6,t0,a6
   13186:	01cfd393          	srli	t2,t6,0x1c
   1318a:	016c42b3          	xor	t0,s8,s6
   1318e:	0f92                	slli	t6,t6,0x4
   13190:	01cf5f13          	srli	t5,t5,0x1c
   13194:	0070e3b3          	or	t2,ra,t2
   13198:	01efef33          	or	t5,t6,t5
   1319c:	01dd4eb3          	xor	t4,s10,t4
   131a0:	005ac2b3          	xor	t0,s5,t0
   131a4:	012a4a33          	xor	s4,s4,s2
   131a8:	8cb9                	xor	s1,s1,a4
   131aa:	01c44433          	xor	s0,s0,t3
   131ae:	006dcdb3          	xor	s11,s11,t1
   131b2:	011eceb3          	xor	t4,t4,a7
   131b6:	0072c2b3          	xor	t0,t0,t2
   131ba:	01ea4a33          	xor	s4,s4,t5
   131be:	01664633          	xor	a2,a2,s6
   131c2:	0136c6b3          	xor	a3,a3,s3
   131c6:	8fa9                	xor	a5,a5,a0
   131c8:	00b84833          	xor	a6,a6,a1
   131cc:	01b64fb3          	xor	t6,a2,s11
   131d0:	01d6cf33          	xor	t5,a3,t4
   131d4:	00884833          	xor	a6,a6,s0
   131d8:	8fa5                	xor	a5,a5,s1
   131da:	fff2c613          	not	a2,t0
   131de:	fffa4693          	not	a3,s4
   131e2:	0967c393          	xori	t2,a5,150
   131e6:	fff4c913          	not	s2,s1
   131ea:	fff44093          	not	ra,s0
   131ee:	fffdc513          	not	a0,s11
   131f2:	fffec593          	not	a1,t4
   131f6:	f697c713          	xori	a4,a5,-151
   131fa:	fff84e13          	not	t3,a6
   131fe:	8e65                	and	a2,a2,s1
   13200:	8ee1                	and	a3,a3,s0
   13202:	01f64633          	xor	a2,a2,t6
   13206:	01e6c6b3          	xor	a3,a3,t5
   1320a:	00797933          	and	s2,s2,t2
   1320e:	0100f0b3          	and	ra,ra,a6
   13212:	ffffc313          	not	t1,t6
   13216:	01f57533          	and	a0,a0,t6
   1321a:	01e5f5b3          	and	a1,a1,t5
   1321e:	01b77733          	and	a4,a4,s11
   13222:	01de7e33          	and	t3,t3,t4
   13226:	00594c33          	xor	s8,s2,t0
   1322a:	0140ccb3          	xor	s9,ra,s4
   1322e:	00754533          	xor	a0,a0,t2
   13232:	0105c5b3          	xor	a1,a1,a6
   13236:	00765393          	srli	t2,a2,0x7
   1323a:	01769813          	slli	a6,a3,0x17
   1323e:	01761793          	slli	a5,a2,0x17
   13242:	00537333          	and	t1,t1,t0
   13246:	8f25                	xor	a4,a4,s1
   13248:	0076d293          	srli	t0,a3,0x7
   1324c:	008e4e33          	xor	t3,t3,s0
   13250:	01969993          	slli	s3,a3,0x19
   13254:	01961493          	slli	s1,a2,0x19
   13258:	00965413          	srli	s0,a2,0x9
   1325c:	0096d913          	srli	s2,a3,0x9
   13260:	01874733          	xor	a4,a4,s8
   13264:	019e4e33          	xor	t3,t3,s9
   13268:	0079e9b3          	or	s3,s3,t2
   1326c:	0054e4b3          	or	s1,s1,t0
   13270:	01046433          	or	s0,s0,a6
   13274:	00f96933          	or	s2,s2,a5
   13278:	0129c933          	xor	s2,s3,s2
   1327c:	0084c9b3          	xor	s3,s1,s0
   13280:	01d75413          	srli	s0,a4,0x1d
   13284:	003e1493          	slli	s1,t3,0x3
   13288:	8cc1                	or	s1,s1,s0
   1328a:	ffff4893          	not	a7,t5
   1328e:	cc4a                	sw	s2,24(sp)
   13290:	ce26                	sw	s1,28(sp)
   13292:	00371913          	slli	s2,a4,0x3
   13296:	0148f8b3          	and	a7,a7,s4
   1329a:	01de5493          	srli	s1,t3,0x1d
   1329e:	019e1b93          	slli	s7,t3,0x19
   132a2:	01b34333          	xor	t1,t1,s11
   132a6:	01d8c8b3          	xor	a7,a7,t4
   132aa:	0124e4b3          	or	s1,s1,s2
   132ae:	00775913          	srli	s2,a4,0x7
   132b2:	00a34333          	xor	t1,t1,a0
   132b6:	00b8c8b3          	xor	a7,a7,a1
   132ba:	01796933          	or	s2,s2,s7
   132be:	01971413          	slli	s0,a4,0x19
   132c2:	007e5b93          	srli	s7,t3,0x7
   132c6:	008bebb3          	or	s7,s7,s0
   132ca:	00a35d93          	srli	s11,t1,0xa
   132ce:	01689413          	slli	s0,a7,0x16
   132d2:	00a8dd13          	srli	s10,a7,0xa
   132d6:	01b46db3          	or	s11,s0,s11
   132da:	01631413          	slli	s0,t1,0x16
   132de:	01a46d33          	or	s10,s0,s10
   132e2:	00f89093          	slli	ra,a7,0xf
   132e6:	01135413          	srli	s0,t1,0x11
   132ea:	fff54513          	not	a0,a0
   132ee:	fff5c593          	not	a1,a1
   132f2:	0080e0b3          	or	ra,ra,s0
   132f6:	0118de93          	srli	t4,a7,0x11
   132fa:	00f31413          	slli	s0,t1,0xf
   132fe:	d05e                	sw	s7,32(sp)
   13300:	00155393          	srli	t2,a0,0x1
   13304:	01d46eb3          	or	t4,s0,t4
   13308:	01f59413          	slli	s0,a1,0x1f
   1330c:	007463b3          	or	t2,s0,t2
   13310:	5402                	lw	s0,32(sp)
   13312:	00cc4fb3          	xor	t6,s8,a2
   13316:	00dccf33          	xor	t5,s9,a3
   1331a:	01f51b13          	slli	s6,a0,0x1f
   1331e:	0065da13          	srli	s4,a1,0x6
   13322:	0015d293          	srli	t0,a1,0x1
   13326:	01a51813          	slli	a6,a0,0x1a
   1332a:	005b62b3          	or	t0,s6,t0
   1332e:	01486833          	or	a6,a6,s4
   13332:	00df9b13          	slli	s6,t6,0xd
   13336:	013f5a13          	srli	s4,t5,0x13
   1333a:	8ca1                	xor	s1,s1,s0
   1333c:	014b6a33          	or	s4,s6,s4
   13340:	4472                	lw	s0,28(sp)
   13342:	4b62                	lw	s6,24(sp)
   13344:	01a59a93          	slli	s5,a1,0x1a
   13348:	00655793          	srli	a5,a0,0x6
   1334c:	00df1b93          	slli	s7,t5,0xd
   13350:	00fae7b3          	or	a5,s5,a5
   13354:	013fda93          	srli	s5,t6,0x13
   13358:	015beab3          	or	s5,s7,s5
   1335c:	01244433          	xor	s0,s0,s2
   13360:	001dcdb3          	xor	s11,s11,ra
   13364:	013cc933          	xor	s2,s9,s3
   13368:	004f1093          	slli	ra,t5,0x4
   1336c:	00f3c7b3          	xor	a5,t2,a5
   13370:	0102c833          	xor	a6,t0,a6
   13374:	01cfd393          	srli	t2,t6,0x1c
   13378:	016c42b3          	xor	t0,s8,s6
   1337c:	0f92                	slli	t6,t6,0x4
   1337e:	01cf5f13          	srli	t5,t5,0x1c
   13382:	0070e3b3          	or	t2,ra,t2
   13386:	01efef33          	or	t5,t6,t5
   1338a:	01dd4eb3          	xor	t4,s10,t4
   1338e:	005ac2b3          	xor	t0,s5,t0
   13392:	012a4a33          	xor	s4,s4,s2
   13396:	8cb9                	xor	s1,s1,a4
   13398:	01c44433          	xor	s0,s0,t3
   1339c:	006dcdb3          	xor	s11,s11,t1
   133a0:	011eceb3          	xor	t4,t4,a7
   133a4:	0072c2b3          	xor	t0,t0,t2
   133a8:	01ea4a33          	xor	s4,s4,t5
   133ac:	01664633          	xor	a2,a2,s6
   133b0:	0136c6b3          	xor	a3,a3,s3
   133b4:	8fa9                	xor	a5,a5,a0
   133b6:	00b84833          	xor	a6,a6,a1
   133ba:	01b64fb3          	xor	t6,a2,s11
   133be:	01d6cf33          	xor	t5,a3,t4
   133c2:	00884833          	xor	a6,a6,s0
   133c6:	8fa5                	xor	a5,a5,s1
   133c8:	fff2c613          	not	a2,t0
   133cc:	fffa4693          	not	a3,s4
   133d0:	0877c393          	xori	t2,a5,135
   133d4:	fff4c913          	not	s2,s1
   133d8:	fff44093          	not	ra,s0
   133dc:	fffdc513          	not	a0,s11
   133e0:	fffec593          	not	a1,t4
   133e4:	f787c713          	xori	a4,a5,-136
   133e8:	fff84e13          	not	t3,a6
   133ec:	8e65                	and	a2,a2,s1
   133ee:	8ee1                	and	a3,a3,s0
   133f0:	01f64633          	xor	a2,a2,t6
   133f4:	01e6c6b3          	xor	a3,a3,t5
   133f8:	00797933          	and	s2,s2,t2
   133fc:	0100f0b3          	and	ra,ra,a6
   13400:	ffffc313          	not	t1,t6
   13404:	01f57533          	and	a0,a0,t6
   13408:	01e5f5b3          	and	a1,a1,t5
   1340c:	01b77733          	and	a4,a4,s11
   13410:	01de7e33          	and	t3,t3,t4
   13414:	00594c33          	xor	s8,s2,t0
   13418:	0140ccb3          	xor	s9,ra,s4
   1341c:	00754533          	xor	a0,a0,t2
   13420:	0105c5b3          	xor	a1,a1,a6
   13424:	00765393          	srli	t2,a2,0x7
   13428:	01769813          	slli	a6,a3,0x17
   1342c:	01761793          	slli	a5,a2,0x17
   13430:	00537333          	and	t1,t1,t0
   13434:	8f25                	xor	a4,a4,s1
   13436:	0076d293          	srli	t0,a3,0x7
   1343a:	008e4e33          	xor	t3,t3,s0
   1343e:	01969993          	slli	s3,a3,0x19
   13442:	01961493          	slli	s1,a2,0x19
   13446:	00965413          	srli	s0,a2,0x9
   1344a:	0096d913          	srli	s2,a3,0x9
   1344e:	01874733          	xor	a4,a4,s8
   13452:	019e4e33          	xor	t3,t3,s9
   13456:	0079e9b3          	or	s3,s3,t2
   1345a:	0054e4b3          	or	s1,s1,t0
   1345e:	01046433          	or	s0,s0,a6
   13462:	00f96933          	or	s2,s2,a5
   13466:	0129c933          	xor	s2,s3,s2
   1346a:	0084c9b3          	xor	s3,s1,s0
   1346e:	01d75413          	srli	s0,a4,0x1d
   13472:	003e1493          	slli	s1,t3,0x3
   13476:	8cc1                	or	s1,s1,s0
   13478:	ffff4893          	not	a7,t5
   1347c:	cc4a                	sw	s2,24(sp)
   1347e:	ce26                	sw	s1,28(sp)
   13480:	00371913          	slli	s2,a4,0x3
   13484:	0148f8b3          	and	a7,a7,s4
   13488:	01de5493          	srli	s1,t3,0x1d
   1348c:	019e1b93          	slli	s7,t3,0x19
   13490:	01b34333          	xor	t1,t1,s11
   13494:	01d8c8b3          	xor	a7,a7,t4
   13498:	0124e4b3          	or	s1,s1,s2
   1349c:	00775913          	srli	s2,a4,0x7
   134a0:	00a34333          	xor	t1,t1,a0
   134a4:	00b8c8b3          	xor	a7,a7,a1
   134a8:	01796933          	or	s2,s2,s7
   134ac:	01971413          	slli	s0,a4,0x19
   134b0:	007e5b93          	srli	s7,t3,0x7
   134b4:	008bebb3          	or	s7,s7,s0
   134b8:	00a35d93          	srli	s11,t1,0xa
   134bc:	01689413          	slli	s0,a7,0x16
   134c0:	00a8dd13          	srli	s10,a7,0xa
   134c4:	01b46db3          	or	s11,s0,s11
   134c8:	01631413          	slli	s0,t1,0x16
   134cc:	01a46d33          	or	s10,s0,s10
   134d0:	00f89093          	slli	ra,a7,0xf
   134d4:	01135413          	srli	s0,t1,0x11
   134d8:	fff54513          	not	a0,a0
   134dc:	fff5c593          	not	a1,a1
   134e0:	0080e0b3          	or	ra,ra,s0
   134e4:	0118de93          	srli	t4,a7,0x11
   134e8:	00f31413          	slli	s0,t1,0xf
   134ec:	d05e                	sw	s7,32(sp)
   134ee:	00155393          	srli	t2,a0,0x1
   134f2:	01d46eb3          	or	t4,s0,t4
   134f6:	01f59413          	slli	s0,a1,0x1f
   134fa:	007463b3          	or	t2,s0,t2
   134fe:	5402                	lw	s0,32(sp)
   13500:	01dd4eb3          	xor	t4,s10,t4
   13504:	4d62                	lw	s10,24(sp)
   13506:	8ca1                	xor	s1,s1,s0
   13508:	4472                	lw	s0,28(sp)
   1350a:	00cc4fb3          	xor	t6,s8,a2
   1350e:	00dccf33          	xor	t5,s9,a3
   13512:	01f51b13          	slli	s6,a0,0x1f
   13516:	01a59a93          	slli	s5,a1,0x1a
   1351a:	0065da13          	srli	s4,a1,0x6
   1351e:	0015d293          	srli	t0,a1,0x1
   13522:	00655793          	srli	a5,a0,0x6
   13526:	01a51813          	slli	a6,a0,0x1a
   1352a:	005b62b3          	or	t0,s6,t0
   1352e:	00df1b93          	slli	s7,t5,0xd
   13532:	00df9b13          	slli	s6,t6,0xd
   13536:	00fae7b3          	or	a5,s5,a5
   1353a:	01486833          	or	a6,a6,s4
   1353e:	013f5a93          	srli	s5,t5,0x13
   13542:	013fda13          	srli	s4,t6,0x13
   13546:	015b6ab3          	or	s5,s6,s5
   1354a:	01244433          	xor	s0,s0,s2
   1354e:	001dcdb3          	xor	s11,s11,ra
   13552:	004f1913          	slli	s2,t5,0x4
   13556:	00f3c7b3          	xor	a5,t2,a5
   1355a:	0102c833          	xor	a6,t0,a6
   1355e:	01ac43b3          	xor	t2,s8,s10
   13562:	013cc2b3          	xor	t0,s9,s3
   13566:	014bea33          	or	s4,s7,s4
   1356a:	01cfd093          	srli	ra,t6,0x1c
   1356e:	01cf5f13          	srli	t5,t5,0x1c
   13572:	0f92                	slli	t6,t6,0x4
   13574:	001960b3          	or	ra,s2,ra
   13578:	01efef33          	or	t5,t6,t5
   1357c:	0143ca33          	xor	s4,t2,s4
   13580:	0152c2b3          	xor	t0,t0,s5
   13584:	8cb9                	xor	s1,s1,a4
   13586:	01c44433          	xor	s0,s0,t3
   1358a:	006dcdb3          	xor	s11,s11,t1
   1358e:	011eceb3          	xor	t4,t4,a7
   13592:	001a4a33          	xor	s4,s4,ra
   13596:	01e2c2b3          	xor	t0,t0,t5
   1359a:	01a64633          	xor	a2,a2,s10
   1359e:	0136c6b3          	xor	a3,a3,s3
   135a2:	8fa9                	xor	a5,a5,a0
   135a4:	00b84833          	xor	a6,a6,a1
   135a8:	01b64fb3          	xor	t6,a2,s11
   135ac:	01d6cf33          	xor	t5,a3,t4
   135b0:	00884833          	xor	a6,a6,s0
   135b4:	8fa5                	xor	a5,a5,s1
   135b6:	fffa4613          	not	a2,s4
   135ba:	fff2c693          	not	a3,t0
   135be:	0787c393          	xori	t2,a5,120
   135c2:	fff4c913          	not	s2,s1
   135c6:	fff44093          	not	ra,s0
   135ca:	fffdc513          	not	a0,s11
   135ce:	fffec593          	not	a1,t4
   135d2:	f877c713          	xori	a4,a5,-121
   135d6:	fff84e13          	not	t3,a6
   135da:	8e65                	and	a2,a2,s1
   135dc:	8ee1                	and	a3,a3,s0
   135de:	01f64633          	xor	a2,a2,t6
   135e2:	01e6c6b3          	xor	a3,a3,t5
   135e6:	00797933          	and	s2,s2,t2
   135ea:	0100f0b3          	and	ra,ra,a6
   135ee:	ffff4893          	not	a7,t5
   135f2:	01f57533          	and	a0,a0,t6
   135f6:	01e5f5b3          	and	a1,a1,t5
   135fa:	01b77733          	and	a4,a4,s11
   135fe:	01de7e33          	and	t3,t3,t4
   13602:	01494c33          	xor	s8,s2,s4
   13606:	0050ccb3          	xor	s9,ra,t0
   1360a:	00754533          	xor	a0,a0,t2
   1360e:	0105c5b3          	xor	a1,a1,a6
   13612:	00765393          	srli	t2,a2,0x7
   13616:	01769813          	slli	a6,a3,0x17
   1361a:	01761793          	slli	a5,a2,0x17
   1361e:	0058f8b3          	and	a7,a7,t0
   13622:	8f25                	xor	a4,a4,s1
   13624:	0076d293          	srli	t0,a3,0x7
   13628:	008e4e33          	xor	t3,t3,s0
   1362c:	01969993          	slli	s3,a3,0x19
   13630:	01961493          	slli	s1,a2,0x19
   13634:	00965413          	srli	s0,a2,0x9
   13638:	0096d913          	srli	s2,a3,0x9
   1363c:	01874733          	xor	a4,a4,s8
   13640:	019e4e33          	xor	t3,t3,s9
   13644:	0079e9b3          	or	s3,s3,t2
   13648:	0054e4b3          	or	s1,s1,t0
   1364c:	01046433          	or	s0,s0,a6
   13650:	00f96933          	or	s2,s2,a5
   13654:	0129c933          	xor	s2,s3,s2
   13658:	0084c9b3          	xor	s3,s1,s0
   1365c:	01d75413          	srli	s0,a4,0x1d
   13660:	003e1493          	slli	s1,t3,0x3
   13664:	8cc1                	or	s1,s1,s0
   13666:	ffffc313          	not	t1,t6
   1366a:	cc4a                	sw	s2,24(sp)
   1366c:	ce26                	sw	s1,28(sp)
   1366e:	00371913          	slli	s2,a4,0x3
   13672:	01437333          	and	t1,t1,s4
   13676:	01de5493          	srli	s1,t3,0x1d
   1367a:	019e1b93          	slli	s7,t3,0x19
   1367e:	01b34333          	xor	t1,t1,s11
   13682:	01d8c8b3          	xor	a7,a7,t4
   13686:	0124e4b3          	or	s1,s1,s2
   1368a:	00775913          	srli	s2,a4,0x7
   1368e:	00a34333          	xor	t1,t1,a0
   13692:	00b8c8b3          	xor	a7,a7,a1
   13696:	01796933          	or	s2,s2,s7
   1369a:	01971413          	slli	s0,a4,0x19
   1369e:	007e5b93          	srli	s7,t3,0x7
   136a2:	008bebb3          	or	s7,s7,s0
   136a6:	00a35d93          	srli	s11,t1,0xa
   136aa:	01689413          	slli	s0,a7,0x16
   136ae:	00a8dd13          	srli	s10,a7,0xa
   136b2:	01b46db3          	or	s11,s0,s11
   136b6:	01631413          	slli	s0,t1,0x16
   136ba:	01a46d33          	or	s10,s0,s10
   136be:	00f89093          	slli	ra,a7,0xf
   136c2:	01135413          	srli	s0,t1,0x11
   136c6:	fff54513          	not	a0,a0
   136ca:	fff5c593          	not	a1,a1
   136ce:	0080e0b3          	or	ra,ra,s0
   136d2:	0118de93          	srli	t4,a7,0x11
   136d6:	00f31413          	slli	s0,t1,0xf
   136da:	d05e                	sw	s7,32(sp)
   136dc:	00155393          	srli	t2,a0,0x1
   136e0:	01d46eb3          	or	t4,s0,t4
   136e4:	01f59413          	slli	s0,a1,0x1f
   136e8:	007463b3          	or	t2,s0,t2
   136ec:	5402                	lw	s0,32(sp)
   136ee:	01dd4eb3          	xor	t4,s10,t4
   136f2:	4d62                	lw	s10,24(sp)
   136f4:	8ca1                	xor	s1,s1,s0
   136f6:	4472                	lw	s0,28(sp)
   136f8:	00cc4fb3          	xor	t6,s8,a2
   136fc:	00dccf33          	xor	t5,s9,a3
   13700:	01f51b13          	slli	s6,a0,0x1f
   13704:	01a59a93          	slli	s5,a1,0x1a
   13708:	0065da13          	srli	s4,a1,0x6
   1370c:	0015d293          	srli	t0,a1,0x1
   13710:	00655793          	srli	a5,a0,0x6
   13714:	01a51813          	slli	a6,a0,0x1a
   13718:	005b62b3          	or	t0,s6,t0
   1371c:	00df1b93          	slli	s7,t5,0xd
   13720:	00df9b13          	slli	s6,t6,0xd
   13724:	00fae7b3          	or	a5,s5,a5
   13728:	01486833          	or	a6,a6,s4
   1372c:	013f5a93          	srli	s5,t5,0x13
   13730:	013fda13          	srli	s4,t6,0x13
   13734:	015b6ab3          	or	s5,s6,s5
   13738:	01244433          	xor	s0,s0,s2
   1373c:	001dcdb3          	xor	s11,s11,ra
   13740:	004f1913          	slli	s2,t5,0x4
   13744:	00f3c7b3          	xor	a5,t2,a5
   13748:	0102c833          	xor	a6,t0,a6
   1374c:	01ac43b3          	xor	t2,s8,s10
   13750:	013cc2b3          	xor	t0,s9,s3
   13754:	014bea33          	or	s4,s7,s4
   13758:	01cfd093          	srli	ra,t6,0x1c
   1375c:	01cf5f13          	srli	t5,t5,0x1c
   13760:	0f92                	slli	t6,t6,0x4
   13762:	001960b3          	or	ra,s2,ra
   13766:	01efef33          	or	t5,t6,t5
   1376a:	0143ca33          	xor	s4,t2,s4
   1376e:	0152c2b3          	xor	t0,t0,s5
   13772:	8cb9                	xor	s1,s1,a4
   13774:	01c44433          	xor	s0,s0,t3
   13778:	006dcdb3          	xor	s11,s11,t1
   1377c:	011eceb3          	xor	t4,t4,a7
   13780:	001a4a33          	xor	s4,s4,ra
   13784:	01e2c2b3          	xor	t0,t0,t5
   13788:	01a64633          	xor	a2,a2,s10
   1378c:	0136c6b3          	xor	a3,a3,s3
   13790:	8fa9                	xor	a5,a5,a0
   13792:	00b84833          	xor	a6,a6,a1
   13796:	01b64fb3          	xor	t6,a2,s11
   1379a:	01d6cf33          	xor	t5,a3,t4
   1379e:	00884833          	xor	a6,a6,s0
   137a2:	8fa5                	xor	a5,a5,s1
   137a4:	fffa4613          	not	a2,s4
   137a8:	fff2c693          	not	a3,t0
   137ac:	0697c393          	xori	t2,a5,105
   137b0:	fff4c913          	not	s2,s1
   137b4:	fff44093          	not	ra,s0
   137b8:	fffdc513          	not	a0,s11
   137bc:	fffec593          	not	a1,t4
   137c0:	f967c713          	xori	a4,a5,-106
   137c4:	fff84e13          	not	t3,a6
   137c8:	8e65                	and	a2,a2,s1
   137ca:	8ee1                	and	a3,a3,s0
   137cc:	01f64633          	xor	a2,a2,t6
   137d0:	01e6c6b3          	xor	a3,a3,t5
   137d4:	00797933          	and	s2,s2,t2
   137d8:	0100f0b3          	and	ra,ra,a6
   137dc:	ffff4893          	not	a7,t5
   137e0:	01f57533          	and	a0,a0,t6
   137e4:	01e5f5b3          	and	a1,a1,t5
   137e8:	01b77733          	and	a4,a4,s11
   137ec:	01de7e33          	and	t3,t3,t4
   137f0:	01494c33          	xor	s8,s2,s4
   137f4:	0050ccb3          	xor	s9,ra,t0
   137f8:	00754533          	xor	a0,a0,t2
   137fc:	0105c5b3          	xor	a1,a1,a6
   13800:	00765393          	srli	t2,a2,0x7
   13804:	01769813          	slli	a6,a3,0x17
   13808:	01761793          	slli	a5,a2,0x17
   1380c:	0058f8b3          	and	a7,a7,t0
   13810:	8f25                	xor	a4,a4,s1
   13812:	0076d293          	srli	t0,a3,0x7
   13816:	008e4e33          	xor	t3,t3,s0
   1381a:	01969993          	slli	s3,a3,0x19
   1381e:	01961493          	slli	s1,a2,0x19
   13822:	00965413          	srli	s0,a2,0x9
   13826:	0096d913          	srli	s2,a3,0x9
   1382a:	01874733          	xor	a4,a4,s8
   1382e:	019e4e33          	xor	t3,t3,s9
   13832:	0079e9b3          	or	s3,s3,t2
   13836:	0054e4b3          	or	s1,s1,t0
   1383a:	01046433          	or	s0,s0,a6
   1383e:	00f96933          	or	s2,s2,a5
   13842:	0129c933          	xor	s2,s3,s2
   13846:	0084c9b3          	xor	s3,s1,s0
   1384a:	01d75413          	srli	s0,a4,0x1d
   1384e:	003e1493          	slli	s1,t3,0x3
   13852:	8cc1                	or	s1,s1,s0
   13854:	ffffc313          	not	t1,t6
   13858:	01437333          	and	t1,t1,s4
   1385c:	cc4a                	sw	s2,24(sp)
   1385e:	ce26                	sw	s1,28(sp)
   13860:	00371913          	slli	s2,a4,0x3
   13864:	01de5493          	srli	s1,t3,0x1d
   13868:	019e1b93          	slli	s7,t3,0x19
   1386c:	01b34333          	xor	t1,t1,s11
   13870:	01d8c8b3          	xor	a7,a7,t4
   13874:	0124e4b3          	or	s1,s1,s2
   13878:	00775913          	srli	s2,a4,0x7
   1387c:	00a34333          	xor	t1,t1,a0
   13880:	00b8c8b3          	xor	a7,a7,a1
   13884:	01796933          	or	s2,s2,s7
   13888:	01971413          	slli	s0,a4,0x19
   1388c:	007e5b93          	srli	s7,t3,0x7
   13890:	008bebb3          	or	s7,s7,s0
   13894:	00a35d93          	srli	s11,t1,0xa
   13898:	01689413          	slli	s0,a7,0x16
   1389c:	00a8dd13          	srli	s10,a7,0xa
   138a0:	01b46db3          	or	s11,s0,s11
   138a4:	01631413          	slli	s0,t1,0x16
   138a8:	01a46d33          	or	s10,s0,s10
   138ac:	00f89093          	slli	ra,a7,0xf
   138b0:	01135413          	srli	s0,t1,0x11
   138b4:	fff54513          	not	a0,a0
   138b8:	fff5c593          	not	a1,a1
   138bc:	0080e0b3          	or	ra,ra,s0
   138c0:	0118de93          	srli	t4,a7,0x11
   138c4:	00f31413          	slli	s0,t1,0xf
   138c8:	00155393          	srli	t2,a0,0x1
   138cc:	01d46eb3          	or	t4,s0,t4
   138d0:	01f59413          	slli	s0,a1,0x1f
   138d4:	d05e                	sw	s7,32(sp)
   138d6:	007463b3          	or	t2,s0,t2
   138da:	5402                	lw	s0,32(sp)
   138dc:	01dd4eb3          	xor	t4,s10,t4
   138e0:	4d62                	lw	s10,24(sp)
   138e2:	8ca1                	xor	s1,s1,s0
   138e4:	4472                	lw	s0,28(sp)
   138e6:	00cc4fb3          	xor	t6,s8,a2
   138ea:	00dccf33          	xor	t5,s9,a3
   138ee:	01f51b13          	slli	s6,a0,0x1f
   138f2:	01a59a93          	slli	s5,a1,0x1a
   138f6:	0065da13          	srli	s4,a1,0x6
   138fa:	0015d293          	srli	t0,a1,0x1
   138fe:	00655793          	srli	a5,a0,0x6
   13902:	01a51813          	slli	a6,a0,0x1a
   13906:	005b62b3          	or	t0,s6,t0
   1390a:	00df1b93          	slli	s7,t5,0xd
   1390e:	00df9b13          	slli	s6,t6,0xd
   13912:	00fae7b3          	or	a5,s5,a5
   13916:	01486833          	or	a6,a6,s4
   1391a:	013f5a93          	srli	s5,t5,0x13
   1391e:	013fda13          	srli	s4,t6,0x13
   13922:	015b6ab3          	or	s5,s6,s5
   13926:	01244433          	xor	s0,s0,s2
   1392a:	001dcdb3          	xor	s11,s11,ra
   1392e:	004f1913          	slli	s2,t5,0x4
   13932:	00f3c7b3          	xor	a5,t2,a5
   13936:	0102c833          	xor	a6,t0,a6
   1393a:	01ac43b3          	xor	t2,s8,s10
   1393e:	013cc2b3          	xor	t0,s9,s3
   13942:	014bea33          	or	s4,s7,s4
   13946:	01cfd093          	srli	ra,t6,0x1c
   1394a:	01cf5f13          	srli	t5,t5,0x1c
   1394e:	0f92                	slli	t6,t6,0x4
   13950:	001960b3          	or	ra,s2,ra
   13954:	01efef33          	or	t5,t6,t5
   13958:	0143ca33          	xor	s4,t2,s4
   1395c:	0152c2b3          	xor	t0,t0,s5
   13960:	8cb9                	xor	s1,s1,a4
   13962:	01c44433          	xor	s0,s0,t3
   13966:	006dcdb3          	xor	s11,s11,t1
   1396a:	011eceb3          	xor	t4,t4,a7
   1396e:	001a4a33          	xor	s4,s4,ra
   13972:	01e2c2b3          	xor	t0,t0,t5
   13976:	01a64633          	xor	a2,a2,s10
   1397a:	0136c6b3          	xor	a3,a3,s3
   1397e:	8fa9                	xor	a5,a5,a0
   13980:	00b84833          	xor	a6,a6,a1
   13984:	01b64f33          	xor	t5,a2,s11
   13988:	01d6c733          	xor	a4,a3,t4
   1398c:	00884833          	xor	a6,a6,s0
   13990:	8fa5                	xor	a5,a5,s1
   13992:	fffa4613          	not	a2,s4
   13996:	fff2c693          	not	a3,t0
   1399a:	05a7cf93          	xori	t6,a5,90
   1399e:	fff4c093          	not	ra,s1
   139a2:	fff44393          	not	t2,s0
   139a6:	fffdc513          	not	a0,s11
   139aa:	fffec593          	not	a1,t4
   139ae:	fff84e13          	not	t3,a6
   139b2:	8e65                	and	a2,a2,s1
   139b4:	8ee1                	and	a3,a3,s0
   139b6:	fa57c793          	xori	a5,a5,-91
   139ba:	8eb9                	xor	a3,a3,a4
   139bc:	01e64633          	xor	a2,a2,t5
   139c0:	01f0f0b3          	and	ra,ra,t6
   139c4:	0103f3b3          	and	t2,t2,a6
   139c8:	fff74893          	not	a7,a4
   139cc:	01e57533          	and	a0,a0,t5
   139d0:	8df9                	and	a1,a1,a4
   139d2:	01b7f7b3          	and	a5,a5,s11
   139d6:	01de7e33          	and	t3,t3,t4
   139da:	0140ccb3          	xor	s9,ra,s4
   139de:	0053cc33          	xor	s8,t2,t0
   139e2:	01f54533          	xor	a0,a0,t6
   139e6:	0105c5b3          	xor	a1,a1,a6
   139ea:	0076df93          	srli	t6,a3,0x7
   139ee:	01769813          	slli	a6,a3,0x17
   139f2:	01761713          	slli	a4,a2,0x17
   139f6:	0058f8b3          	and	a7,a7,t0
   139fa:	8fa5                	xor	a5,a5,s1
   139fc:	00765293          	srli	t0,a2,0x7
   13a00:	008e4e33          	xor	t3,t3,s0
   13a04:	01969993          	slli	s3,a3,0x19
   13a08:	01961493          	slli	s1,a2,0x19
   13a0c:	00965413          	srli	s0,a2,0x9
   13a10:	0096d913          	srli	s2,a3,0x9
   13a14:	0197c7b3          	xor	a5,a5,s9
   13a18:	018e4e33          	xor	t3,t3,s8
   13a1c:	01f4e4b3          	or	s1,s1,t6
   13a20:	01046433          	or	s0,s0,a6
   13a24:	00e96933          	or	s2,s2,a4
   13a28:	0059e9b3          	or	s3,s3,t0
   13a2c:	0129c9b3          	xor	s3,s3,s2
   13a30:	0084c933          	xor	s2,s1,s0
   13a34:	01d7d413          	srli	s0,a5,0x1d
   13a38:	003e1493          	slli	s1,t3,0x3
   13a3c:	8cc1                	or	s1,s1,s0
   13a3e:	cc26                	sw	s1,24(sp)
   13a40:	00379413          	slli	s0,a5,0x3
   13a44:	ffff4313          	not	t1,t5
   13a48:	01de5493          	srli	s1,t3,0x1d
   13a4c:	01437333          	and	t1,t1,s4
   13a50:	019e1b93          	slli	s7,t3,0x19
   13a54:	8cc1                	or	s1,s1,s0
   13a56:	0077d413          	srli	s0,a5,0x7
   13a5a:	01746bb3          	or	s7,s0,s7
   13a5e:	01b34333          	xor	t1,t1,s11
   13a62:	01d8c8b3          	xor	a7,a7,t4
   13a66:	00a34333          	xor	t1,t1,a0
   13a6a:	00b8c8b3          	xor	a7,a7,a1
   13a6e:	ce5e                	sw	s7,28(sp)
   13a70:	007e5413          	srli	s0,t3,0x7
   13a74:	01979b93          	slli	s7,a5,0x19
   13a78:	01746bb3          	or	s7,s0,s7
   13a7c:	00a35d93          	srli	s11,t1,0xa
   13a80:	01689413          	slli	s0,a7,0x16
   13a84:	00a8dd13          	srli	s10,a7,0xa
   13a88:	01b46db3          	or	s11,s0,s11
   13a8c:	01631413          	slli	s0,t1,0x16
   13a90:	00f89093          	slli	ra,a7,0xf
   13a94:	01a46d33          	or	s10,s0,s10
   13a98:	01135413          	srli	s0,t1,0x11
   13a9c:	fff54513          	not	a0,a0
   13aa0:	fff5c593          	not	a1,a1
   13aa4:	0080e0b3          	or	ra,ra,s0
   13aa8:	0118d393          	srli	t2,a7,0x11
   13aac:	00f31413          	slli	s0,t1,0xf
   13ab0:	007463b3          	or	t2,s0,t2
   13ab4:	00155293          	srli	t0,a0,0x1
   13ab8:	01f59413          	slli	s0,a1,0x1f
   13abc:	00cccf33          	xor	t5,s9,a2
   13ac0:	00dc4eb3          	xor	t4,s8,a3
   13ac4:	01f51b13          	slli	s6,a0,0x1f
   13ac8:	01a59a93          	slli	s5,a1,0x1a
   13acc:	0065da13          	srli	s4,a1,0x6
   13ad0:	005462b3          	or	t0,s0,t0
   13ad4:	0015df93          	srli	t6,a1,0x1
   13ad8:	4472                	lw	s0,28(sp)
   13ada:	00655713          	srli	a4,a0,0x6
   13ade:	01a51813          	slli	a6,a0,0x1a
   13ae2:	0174c4b3          	xor	s1,s1,s7
   13ae6:	4be2                	lw	s7,24(sp)
   13ae8:	01fb6fb3          	or	t6,s6,t6
   13aec:	00eae733          	or	a4,s5,a4
   13af0:	00df1b13          	slli	s6,t5,0xd
   13af4:	01486833          	or	a6,a6,s4
   13af8:	007d4d33          	xor	s10,s10,t2
   13afc:	013eda13          	srli	s4,t4,0x13
   13b00:	011d4d33          	xor	s10,s10,a7
   13b04:	004e9393          	slli	t2,t4,0x4
   13b08:	013f5a93          	srli	s5,t5,0x13
   13b0c:	001dcdb3          	xor	s11,s11,ra
   13b10:	00e2c733          	xor	a4,t0,a4
   13b14:	012c40b3          	xor	ra,s8,s2
   13b18:	010fc833          	xor	a6,t6,a6
   13b1c:	014b6a33          	or	s4,s6,s4
   13b20:	00de9f93          	slli	t6,t4,0xd
   13b24:	01cf5293          	srli	t0,t5,0x1c
   13b28:	0126c6b3          	xor	a3,a3,s2
   13b2c:	0f12                	slli	t5,t5,0x4
   13b2e:	01cede93          	srli	t4,t4,0x1c
   13b32:	8cbd                	xor	s1,s1,a5
   13b34:	006dcdb3          	xor	s11,s11,t1
   13b38:	01a6c6b3          	xor	a3,a3,s10
   13b3c:	015feab3          	or	s5,t6,s5
   13b40:	01df6eb3          	or	t4,t5,t4
   13b44:	013ccfb3          	xor	t6,s9,s3
   13b48:	008bc433          	xor	s0,s7,s0
   13b4c:	8f29                	xor	a4,a4,a0
   13b4e:	001a4a33          	xor	s4,s4,ra
   13b52:	01364633          	xor	a2,a2,s3
   13b56:	01c44433          	xor	s0,s0,t3
   13b5a:	01da4a33          	xor	s4,s4,t4
   13b5e:	01b64633          	xor	a2,a2,s11
   13b62:	8f25                	xor	a4,a4,s1
   13b64:	0053e2b3          	or	t0,t2,t0
   13b68:	fffd4093          	not	ra,s10
   13b6c:	00b84833          	xor	a6,a6,a1
   13b70:	01facfb3          	xor	t6,s5,t6
   13b74:	fff6c893          	not	a7,a3
   13b78:	00884833          	xor	a6,a6,s0
   13b7c:	005fcfb3          	xor	t6,t6,t0
   13b80:	04b74393          	xori	t2,a4,75
   13b84:	fb474793          	xori	a5,a4,-76
   13b88:	fff64e93          	not	t4,a2
   13b8c:	00d0f733          	and	a4,ra,a3
   13b90:	0148f8b3          	and	a7,a7,s4
   13b94:	01074733          	xor	a4,a4,a6
   13b98:	01a8c8b3          	xor	a7,a7,s10
   13b9c:	ffffce13          	not	t3,t6
   13ba0:	01b7f7b3          	and	a5,a5,s11
   13ba4:	01fefeb3          	and	t4,t4,t6
   13ba8:	01beceb3          	xor	t4,t4,s11
   13bac:	fff4c513          	not	a0,s1
   13bb0:	fff44593          	not	a1,s0
   13bb4:	fffdc293          	not	t0,s11
   13bb8:	fffa4313          	not	t1,s4
   13bbc:	00e8cdb3          	xor	s11,a7,a4
   13bc0:	fff84f13          	not	t5,a6
   13bc4:	009e7e33          	and	t3,t3,s1
   13bc8:	8fa5                	xor	a5,a5,s1
   13bca:	fff74493          	not	s1,a4
   13bce:	4742                	lw	a4,16(sp)
   13bd0:	00757533          	and	a0,a0,t2
   13bd4:	0105f5b3          	and	a1,a1,a6
   13bd8:	00837333          	and	t1,t1,s0
   13bdc:	01af7f33          	and	t5,t5,s10
   13be0:	00d34333          	xor	t1,t1,a3
   13be4:	00ce4e33          	xor	t3,t3,a2
   13be8:	01f54533          	xor	a0,a0,t6
   13bec:	0145c5b3          	xor	a1,a1,s4
   13bf0:	008f4f33          	xor	t5,t5,s0
   13bf4:	00bf4bb3          	xor	s7,t5,a1
   13bf8:	8fa9                	xor	a5,a5,a0
   13bfa:	0065c5b3          	xor	a1,a1,t1
   13bfe:	01c54533          	xor	a0,a0,t3
   13c02:	ff070093          	addi	ra,a4,-16
   13c06:	d206                	sw	ra,36(sp)
   13c08:	00d59813          	slli	a6,a1,0xd
   13c0c:	00e0b0b3          	sltu	ra,ra,a4
   13c10:	01355713          	srli	a4,a0,0x13
   13c14:	00e86833          	or	a6,a6,a4
   13c18:	0135d893          	srli	a7,a1,0x13
   13c1c:	00d51713          	slli	a4,a0,0xd
   13c20:	011768b3          	or	a7,a4,a7
   13c24:	01c55b13          	srli	s6,a0,0x1c
   13c28:	00459713          	slli	a4,a1,0x4
   13c2c:	00c2f2b3          	and	t0,t0,a2
   13c30:	01676b33          	or	s6,a4,s6
   13c34:	01c5da13          	srli	s4,a1,0x1c
   13c38:	00451713          	slli	a4,a0,0x4
   13c3c:	0072c6b3          	xor	a3,t0,t2
   13c40:	01476a33          	or	s4,a4,s4
   13c44:	003b9393          	slli	t2,s7,0x3
   13c48:	01d7d713          	srli	a4,a5,0x1d
   13c4c:	00379f13          	slli	t5,a5,0x3
   13c50:	007763b3          	or	t2,a4,t2
   13c54:	01dbd713          	srli	a4,s7,0x1d
   13c58:	c806                	sw	ra,16(sp)
   13c5a:	01e76f33          	or	t5,a4,t5
   13c5e:	019b9093          	slli	ra,s7,0x19
   13c62:	0077d713          	srli	a4,a5,0x7
   13c66:	fff6ca93          	not	s5,a3
   13c6a:	001760b3          	or	ra,a4,ra
   13c6e:	01979c13          	slli	s8,a5,0x19
   13c72:	007bd713          	srli	a4,s7,0x7
   13c76:	00decd33          	xor	s10,t4,a3
   13c7a:	01876c33          	or	s8,a4,s8
   13c7e:	001ad693          	srli	a3,s5,0x1
   13c82:	01f49713          	slli	a4,s1,0x1f
   13c86:	8ed9                	or	a3,a3,a4
   13c88:	0014de93          	srli	t4,s1,0x1
   13c8c:	01fa9713          	slli	a4,s5,0x1f
   13c90:	cc06                	sw	ra,24(sp)
   13c92:	01d76eb3          	or	t4,a4,t4
   13c96:	006ad093          	srli	ra,s5,0x6
   13c9a:	01a49713          	slli	a4,s1,0x1a
   13c9e:	001760b3          	or	ra,a4,ra
   13ca2:	01aa9993          	slli	s3,s5,0x1a
   13ca6:	0064d713          	srli	a4,s1,0x6
   13caa:	00e9e9b3          	or	s3,s3,a4
   13cae:	00ad5f93          	srli	t6,s10,0xa
   13cb2:	016d9713          	slli	a4,s11,0x16
   13cb6:	01f76fb3          	or	t6,a4,t6
   13cba:	00add293          	srli	t0,s11,0xa
   13cbe:	016d1713          	slli	a4,s10,0x16
   13cc2:	005762b3          	or	t0,a4,t0
   13cc6:	011d5913          	srli	s2,s10,0x11
   13cca:	00fd9713          	slli	a4,s11,0xf
   13cce:	01276933          	or	s2,a4,s2
   13cd2:	ce06                	sw	ra,28(sp)
   13cd4:	00fd1713          	slli	a4,s10,0xf
   13cd8:	011dd093          	srli	ra,s11,0x11
   13cdc:	00176733          	or	a4,a4,ra
   13ce0:	007e5613          	srli	a2,t3,0x7
   13ce4:	d03a                	sw	a4,32(sp)
   13ce6:	0148c8b3          	xor	a7,a7,s4
   13cea:	01931713          	slli	a4,t1,0x19
   13cee:	4a62                	lw	s4,24(sp)
   13cf0:	019e1093          	slli	ra,t3,0x19
   13cf4:	8e59                	or	a2,a2,a4
   13cf6:	00735713          	srli	a4,t1,0x7
   13cfa:	00e0e733          	or	a4,ra,a4
   13cfe:	01731413          	slli	s0,t1,0x17
   13d02:	009e5093          	srli	ra,t3,0x9
   13d06:	017e1c93          	slli	s9,t3,0x17
   13d0a:	0080e0b3          	or	ra,ra,s0
   13d0e:	0143c3b3          	xor	t2,t2,s4
   13d12:	00935413          	srli	s0,t1,0x9
   13d16:	4a72                	lw	s4,28(sp)
   13d18:	01946433          	or	s0,s0,s9
   13d1c:	8e21                	xor	a2,a2,s0
   13d1e:	4cd2                	lw	s9,20(sp)
   13d20:	0146c6b3          	xor	a3,a3,s4
   13d24:	00174433          	xor	s0,a4,ra
   13d28:	018f4f33          	xor	t5,t5,s8
   13d2c:	4742                	lw	a4,16(sp)
   13d2e:	012fcfb3          	xor	t6,t6,s2
   13d32:	01c64e33          	xor	t3,a2,t3
   13d36:	5902                	lw	s2,32(sp)
   13d38:	4632                	lw	a2,12(sp)
   13d3a:	00ff47b3          	xor	a5,t5,a5
   13d3e:	0156cf33          	xor	t5,a3,s5
   13d42:	5692                	lw	a3,36(sp)
   13d44:	1cfd                	addi	s9,s9,-1
   13d46:	0122c2b3          	xor	t0,t0,s2
   13d4a:	0641                	addi	a2,a2,16
   13d4c:	01970933          	add	s2,a4,s9
   13d50:	013eceb3          	xor	t4,t4,s3
   13d54:	01684833          	xor	a6,a6,s6
   13d58:	ca4a                	sw	s2,20(sp)
   13d5a:	c632                	sw	a2,12(sp)
   13d5c:	c836                	sw	a3,16(sp)
   13d5e:	0173c733          	xor	a4,t2,s7
   13d62:	00a84b33          	xor	s6,a6,a0
   13d66:	01b2cbb3          	xor	s7,t0,s11
   13d6a:	00b8ca33          	xor	s4,a7,a1
   13d6e:	009ec0b3          	xor	ra,t4,s1
   13d72:	01afc9b3          	xor	s3,t6,s10
   13d76:	006442b3          	xor	t0,s0,t1
   13d7a:	00090463          	beqz	s2,13d82 <crypto_aead_encrypt+0x1284>
   13d7e:	fa5fe06f          	j	12d22 <crypto_aead_encrypt+0x224>
   13d82:	463d                	li	a2,15
   13d84:	00d67463          	bgeu	a2,a3,13d8c <crypto_aead_encrypt+0x128e>
   13d88:	f9bfe06f          	j	12d22 <crypto_aead_encrypt+0x224>
   13d8c:	5972                	lw	s2,60(sp)
   13d8e:	5642                	lw	a2,48(sp)
   13d90:	d0be                	sw	a5,96(sp)
   13d92:	ff090693          	addi	a3,s2,-16
   13d96:	9ac1                	andi	a3,a3,-16
   13d98:	06c1                	addi	a3,a3,16
   13d9a:	d2ba                	sw	a4,100(sp)
   13d9c:	d4fa                	sw	t5,104(sp)
   13d9e:	d686                	sw	ra,108(sp)
   13da0:	d8ce                	sw	s3,112(sp)
   13da2:	dade                	sw	s7,116(sp)
   13da4:	dcf2                	sw	t3,120(sp)
   13da6:	de96                	sw	t0,124(sp)
   13da8:	00897593          	andi	a1,s2,8
   13dac:	5ca2                	lw	s9,40(sp)
   13dae:	5c32                	lw	s8,44(sp)
   13db0:	54d2                	lw	s1,52(sp)
   13db2:	5ee2                	lw	t4,56(sp)
   13db4:	4406                	lw	s0,64(sp)
   13db6:	4a96                	lw	s5,68(sp)
   13db8:	4d26                	lw	s10,72(sp)
   13dba:	4db6                	lw	s11,76(sp)
   13dbc:	9636                	add	a2,a2,a3
   13dbe:	00f97813          	andi	a6,s2,15
   13dc2:	c199                	beqz	a1,13dc8 <crypto_aead_encrypt+0x12ca>
   13dc4:	4d40106f          	j	15298 <crypto_aead_encrypt+0x279a>
   13dc8:	86c2                	mv	a3,a6
   13dca:	04080c63          	beqz	a6,13e22 <crypto_aead_encrypt+0x1324>
   13dce:	96b2                	add	a3,a3,a2
   13dd0:	03800793          	li	a5,56
   13dd4:	4881                	li	a7,0
   13dd6:	4501                	li	a0,0
   13dd8:	4f7d                	li	t5,31
   13dda:	a819                	j	13df0 <crypto_aead_encrypt+0x12f2>
   13ddc:	4301                	li	t1,0
   13dde:	00b71733          	sll	a4,a4,a1
   13de2:	0605                	addi	a2,a2,1
   13de4:	0068e8b3          	or	a7,a7,t1
   13de8:	8d59                	or	a0,a0,a4
   13dea:	17e1                	addi	a5,a5,-8
   13dec:	02c68763          	beq	a3,a2,13e1a <crypto_aead_encrypt+0x131c>
   13df0:	fe078593          	addi	a1,a5,-32
   13df4:	00064703          	lbu	a4,0(a2)
   13df8:	40ff0e33          	sub	t3,t5,a5
   13dfc:	fe05d0e3          	bgez	a1,13ddc <crypto_aead_encrypt+0x12de>
   13e00:	00175593          	srli	a1,a4,0x1
   13e04:	00f71333          	sll	t1,a4,a5
   13e08:	0605                	addi	a2,a2,1
   13e0a:	01c5d733          	srl	a4,a1,t3
   13e0e:	0068e8b3          	or	a7,a7,t1
   13e12:	8d59                	or	a0,a0,a4
   13e14:	17e1                	addi	a5,a5,-8
   13e16:	fcc69de3          	bne	a3,a2,13df0 <crypto_aead_encrypt+0x12f2>
   13e1a:	011b4b33          	xor	s6,s6,a7
   13e1e:	00aa4a33          	xor	s4,s4,a0
   13e22:	479d                	li	a5,7
   13e24:	410787b3          	sub	a5,a5,a6
   13e28:	078e                	slli	a5,a5,0x3
   13e2a:	fe078713          	addi	a4,a5,-32
   13e2e:	00075463          	bgez	a4,13e36 <crypto_aead_encrypt+0x1338>
   13e32:	55e0106f          	j	15390 <crypto_aead_encrypt+0x2892>
   13e36:	08000793          	li	a5,128
   13e3a:	00e79733          	sll	a4,a5,a4
   13e3e:	4681                	li	a3,0
   13e40:	0166c6b3          	xor	a3,a3,s6
   13e44:	014747b3          	xor	a5,a4,s4
   13e48:	ccb6                	sw	a3,88(sp)
   13e4a:	cebe                	sw	a5,92(sp)
   13e4c:	a81d                	j	13e82 <crypto_aead_encrypt+0x1384>
   13e4e:	4301                	li	t1,0
   13e50:	4881                	li	a7,0
   13e52:	45bd                	li	a1,15
   13e54:	410585b3          	sub	a1,a1,a6
   13e58:	058e                	slli	a1,a1,0x3
   13e5a:	fe058613          	addi	a2,a1,-32
   13e5e:	00065463          	bgez	a2,13e66 <crypto_aead_encrypt+0x1368>
   13e62:	5160106f          	j	15378 <crypto_aead_encrypt+0x287a>
   13e66:	08000693          	li	a3,128
   13e6a:	00c696b3          	sll	a3,a3,a2
   13e6e:	4601                	li	a2,0
   13e70:	8e3d                	xor	a2,a2,a5
   13e72:	00e6c7b3          	xor	a5,a3,a4
   13e76:	0117c7b3          	xor	a5,a5,a7
   13e7a:	00664733          	xor	a4,a2,t1
   13e7e:	d0ba                	sw	a4,96(sp)
   13e80:	d2be                	sw	a5,100(sp)
   13e82:	08a8                	addi	a0,sp,88
   13e84:	c676                	sw	t4,12(sp)
   13e86:	c70fc0ef          	jal	102f6 <P8>
   13e8a:	5e66                	lw	t3,120(sp)
   13e8c:	52f6                	lw	t0,124(sp)
   13e8e:	59c6                	lw	s3,112(sp)
   13e90:	5bd6                	lw	s7,116(sp)
   13e92:	4eb2                	lw	t4,12(sp)
   13e94:	001e4e13          	xori	t3,t3,1
   13e98:	dcf2                	sw	t3,120(sp)
   13e9a:	de96                	sw	t0,124(sp)
   13e9c:	4b66                	lw	s6,88(sp)
   13e9e:	4a76                	lw	s4,92(sp)
   13ea0:	57a6                	lw	a5,104(sp)
   13ea2:	50b6                	lw	ra,108(sp)
   13ea4:	000e9463          	bnez	t4,13eac <crypto_aead_encrypt+0x13ae>
   13ea8:	5000106f          	j	153a8 <crypto_aead_encrypt+0x28aa>
   13eac:	5686                	lw	a3,96(sp)
   13eae:	5616                	lw	a2,100(sp)
   13eb0:	ca26                	sw	s1,20(sp)
   13eb2:	cc76                	sw	t4,24(sp)
   13eb4:	c662                	sw	s8,12(sp)
   13eb6:	c866                	sw	s9,16(sp)
   13eb8:	d666                	sw	s9,44(sp)
   13eba:	d862                	sw	s8,48(sp)
   13ebc:	da26                	sw	s1,52(sp)
   13ebe:	dc22                	sw	s0,56(sp)
   13ec0:	de56                	sw	s5,60(sp)
   13ec2:	c0ea                	sw	s10,64(sp)
   13ec4:	c2ee                	sw	s11,68(sp)
   13ec6:	48b2                	lw	a7,12(sp)
   13ec8:	03800713          	li	a4,56
   13ecc:	4581                	li	a1,0
   13ece:	4801                	li	a6,0
   13ed0:	a829                	j	13eea <crypto_aead_encrypt+0x13ec>
   13ed2:	00651533          	sll	a0,a0,t1
   13ed6:	4e81                	li	t4,0
   13ed8:	00a86833          	or	a6,a6,a0
   13edc:	1761                	addi	a4,a4,-8
   13ede:	5561                	li	a0,-8
   13ee0:	01d5e5b3          	or	a1,a1,t4
   13ee4:	0885                	addi	a7,a7,1
   13ee6:	02a70a63          	beq	a4,a0,13f1a <crypto_aead_encrypt+0x141c>
   13eea:	457d                	li	a0,31
   13eec:	fe070313          	addi	t1,a4,-32
   13ef0:	40e50f33          	sub	t5,a0,a4
   13ef4:	0008c503          	lbu	a0,0(a7)
   13ef8:	fc035de3          	bgez	t1,13ed2 <crypto_aead_encrypt+0x13d4>
   13efc:	00155313          	srli	t1,a0,0x1
   13f00:	00e51eb3          	sll	t4,a0,a4
   13f04:	01e35533          	srl	a0,t1,t5
   13f08:	00a86833          	or	a6,a6,a0
   13f0c:	1761                	addi	a4,a4,-8
   13f0e:	5561                	li	a0,-8
   13f10:	01d5e5b3          	or	a1,a1,t4
   13f14:	0885                	addi	a7,a7,1
   13f16:	fca71ae3          	bne	a4,a0,13eea <crypto_aead_encrypt+0x13ec>
   13f1a:	4732                	lw	a4,12(sp)
   13f1c:	0165c5b3          	xor	a1,a1,s6
   13f20:	01484833          	xor	a6,a6,s4
   13f24:	00870893          	addi	a7,a4,8
   13f28:	4381                	li	t2,0
   13f2a:	03800713          	li	a4,56
   13f2e:	4401                	li	s0,0
   13f30:	a821                	j	13f48 <crypto_aead_encrypt+0x144a>
   13f32:	00651533          	sll	a0,a0,t1
   13f36:	4e81                	li	t4,0
   13f38:	8c49                	or	s0,s0,a0
   13f3a:	1761                	addi	a4,a4,-8
   13f3c:	5561                	li	a0,-8
   13f3e:	01d3e3b3          	or	t2,t2,t4
   13f42:	0885                	addi	a7,a7,1
   13f44:	02a70963          	beq	a4,a0,13f76 <crypto_aead_encrypt+0x1478>
   13f48:	457d                	li	a0,31
   13f4a:	fe070313          	addi	t1,a4,-32
   13f4e:	40e50f33          	sub	t5,a0,a4
   13f52:	0008c503          	lbu	a0,0(a7)
   13f56:	fc035ee3          	bgez	t1,13f32 <crypto_aead_encrypt+0x1434>
   13f5a:	00155313          	srli	t1,a0,0x1
   13f5e:	00e51eb3          	sll	t4,a0,a4
   13f62:	01e35533          	srl	a0,t1,t5
   13f66:	8c49                	or	s0,s0,a0
   13f68:	1761                	addi	a4,a4,-8
   13f6a:	5561                	li	a0,-8
   13f6c:	01d3e3b3          	or	t2,t2,t4
   13f70:	0885                	addi	a7,a7,1
   13f72:	fca71be3          	bne	a4,a0,13f48 <crypto_aead_encrypt+0x144a>
   13f76:	4542                	lw	a0,16(sp)
   13f78:	00d3c3b3          	xor	t2,t2,a3
   13f7c:	8c31                	xor	s0,s0,a2
   13f7e:	03800713          	li	a4,56
   13f82:	00181313          	slli	t1,a6,0x1
   13f86:	46fd                	li	a3,31
   13f88:	8e99                	sub	a3,a3,a4
   13f8a:	00e5d633          	srl	a2,a1,a4
   13f8e:	00d316b3          	sll	a3,t1,a3
   13f92:	fe070893          	addi	a7,a4,-32
   13f96:	8e55                	or	a2,a2,a3
   13f98:	0008c463          	bltz	a7,13fa0 <crypto_aead_encrypt+0x14a2>
   13f9c:	01185633          	srl	a2,a6,a7
   13fa0:	00c50023          	sb	a2,0(a0)
   13fa4:	1761                	addi	a4,a4,-8
   13fa6:	56e1                	li	a3,-8
   13fa8:	0505                	addi	a0,a0,1
   13faa:	fcd71ee3          	bne	a4,a3,13f86 <crypto_aead_encrypt+0x1488>
   13fae:	4742                	lw	a4,16(sp)
   13fb0:	00141313          	slli	t1,s0,0x1
   13fb4:	00870513          	addi	a0,a4,8
   13fb8:	03800713          	li	a4,56
   13fbc:	46fd                	li	a3,31
   13fbe:	8e99                	sub	a3,a3,a4
   13fc0:	00e3d633          	srl	a2,t2,a4
   13fc4:	00d316b3          	sll	a3,t1,a3
   13fc8:	fe070893          	addi	a7,a4,-32
   13fcc:	8e55                	or	a2,a2,a3
   13fce:	0008c463          	bltz	a7,13fd6 <crypto_aead_encrypt+0x14d8>
   13fd2:	01145633          	srl	a2,s0,a7
   13fd6:	00c50023          	sb	a2,0(a0)
   13fda:	1761                	addi	a4,a4,-8
   13fdc:	56e1                	li	a3,-8
   13fde:	0505                	addi	a0,a0,1
   13fe0:	fcd71ee3          	bne	a4,a3,13fbc <crypto_aead_encrypt+0x14be>
   13fe4:	005bc4b3          	xor	s1,s7,t0
   13fe8:	01c5c5b3          	xor	a1,a1,t3
   13fec:	005842b3          	xor	t0,a6,t0
   13ff0:	01c9c933          	xor	s2,s3,t3
   13ff4:	00144333          	xor	t1,s0,ra
   13ff8:	00f3c7b3          	xor	a5,t2,a5
   13ffc:	fff5cf93          	not	t6,a1
   14000:	fff2cf13          	not	t5,t0
   14004:	0b47ce93          	xori	t4,a5,180
   14008:	fff44093          	not	ra,s0
   1400c:	fff9c613          	not	a2,s3
   14010:	fff3ce13          	not	t3,t2
   14014:	f4b7c713          	xori	a4,a5,-181
   14018:	fff34893          	not	a7,t1
   1401c:	fff94813          	not	a6,s2
   14020:	007fffb3          	and	t6,t6,t2
   14024:	008f7f33          	and	t5,t5,s0
   14028:	012fcfb3          	xor	t6,t6,s2
   1402c:	009f4f33          	xor	t5,t5,s1
   14030:	0060f7b3          	and	a5,ra,t1
   14034:	01de7e33          	and	t3,t3,t4
   14038:	fffbc693          	not	a3,s7
   1403c:	fff4c513          	not	a0,s1
   14040:	01377733          	and	a4,a4,s3
   14044:	0178f8b3          	and	a7,a7,s7
   14048:	01267633          	and	a2,a2,s2
   1404c:	00b87833          	and	a6,a6,a1
   14050:	00be4cb3          	xor	s9,t3,a1
   14054:	0057cd33          	xor	s10,a5,t0
   14058:	01d64633          	xor	a2,a2,t4
   1405c:	017f1593          	slli	a1,t5,0x17
   14060:	017f9793          	slli	a5,t6,0x17
   14064:	8ee5                	and	a3,a3,s1
   14066:	00557533          	and	a0,a0,t0
   1406a:	007fd493          	srli	s1,t6,0x7
   1406e:	01384833          	xor	a6,a6,s3
   14072:	00774733          	xor	a4,a4,t2
   14076:	0088c8b3          	xor	a7,a7,s0
   1407a:	019f1a13          	slli	s4,t5,0x19
   1407e:	007f5413          	srli	s0,t5,0x7
   14082:	019f9293          	slli	t0,t6,0x19
   14086:	009fde93          	srli	t4,t6,0x9
   1408a:	009f5993          	srli	s3,t5,0x9
   1408e:	01974733          	xor	a4,a4,s9
   14092:	01a8c8b3          	xor	a7,a7,s10
   14096:	009a6a33          	or	s4,s4,s1
   1409a:	0082e2b3          	or	t0,t0,s0
   1409e:	00beeeb3          	or	t4,t4,a1
   140a2:	00f9e9b3          	or	s3,s3,a5
   140a6:	013a49b3          	xor	s3,s4,s3
   140aa:	01d2ca33          	xor	s4,t0,t4
   140ae:	00389293          	slli	t0,a7,0x3
   140b2:	01d75e93          	srli	t4,a4,0x1d
   140b6:	ce4e                	sw	s3,28(sp)
   140b8:	005eeeb3          	or	t4,t4,t0
   140bc:	00371993          	slli	s3,a4,0x3
   140c0:	01754533          	xor	a0,a0,s7
   140c4:	01d8d293          	srli	t0,a7,0x1d
   140c8:	01989b93          	slli	s7,a7,0x19
   140cc:	0066c6b3          	xor	a3,a3,t1
   140d0:	0132e2b3          	or	t0,t0,s3
   140d4:	835e                	mv	t1,s7
   140d6:	00775993          	srli	s3,a4,0x7
   140da:	d076                	sw	t4,32(sp)
   140dc:	00c84833          	xor	a6,a6,a2
   140e0:	8d35                	xor	a0,a0,a3
   140e2:	0069e9b3          	or	s3,s3,t1
   140e6:	01971e93          	slli	t4,a4,0x19
   140ea:	0078d313          	srli	t1,a7,0x7
   140ee:	01d36eb3          	or	t4,t1,t4
   140f2:	00a85e13          	srli	t3,a6,0xa
   140f6:	01651313          	slli	t1,a0,0x16
   140fa:	00a55d93          	srli	s11,a0,0xa
   140fe:	01c36e33          	or	t3,t1,t3
   14102:	01681313          	slli	t1,a6,0x16
   14106:	01b36db3          	or	s11,t1,s11
   1410a:	00f51913          	slli	s2,a0,0xf
   1410e:	01185313          	srli	t1,a6,0x11
   14112:	fff64613          	not	a2,a2
   14116:	fff6c693          	not	a3,a3
   1411a:	01155a93          	srli	s5,a0,0x11
   1411e:	00696933          	or	s2,s2,t1
   14122:	00f81313          	slli	t1,a6,0xf
   14126:	01fcc0b3          	xor	ra,s9,t6
   1412a:	01ed43b3          	xor	t2,s10,t5
   1412e:	01f61b93          	slli	s7,a2,0x1f
   14132:	0016d413          	srli	s0,a3,0x1
   14136:	01a61593          	slli	a1,a2,0x1a
   1413a:	01536333          	or	t1,t1,s5
   1413e:	0066da93          	srli	s5,a3,0x6
   14142:	008be433          	or	s0,s7,s0
   14146:	0155e5b3          	or	a1,a1,s5
   1414a:	00d09b93          	slli	s7,ra,0xd
   1414e:	0133da93          	srli	s5,t2,0x13
   14152:	01d2c2b3          	xor	t0,t0,t4
   14156:	015beab3          	or	s5,s7,s5
   1415a:	5e82                	lw	t4,32(sp)
   1415c:	4bf2                	lw	s7,28(sp)
   1415e:	01f69c13          	slli	s8,a3,0x1f
   14162:	01a69b13          	slli	s6,a3,0x1a
   14166:	00165493          	srli	s1,a2,0x1
   1416a:	00665793          	srli	a5,a2,0x6
   1416e:	009c64b3          	or	s1,s8,s1
   14172:	00fb67b3          	or	a5,s6,a5
   14176:	00d39c13          	slli	s8,t2,0xd
   1417a:	0130db13          	srli	s6,ra,0x13
   1417e:	016c6b33          	or	s6,s8,s6
   14182:	013eceb3          	xor	t4,t4,s3
   14186:	012e4e33          	xor	t3,t3,s2
   1418a:	01aa49b3          	xor	s3,s4,s10
   1418e:	00439913          	slli	s2,t2,0x4
   14192:	8fa5                	xor	a5,a5,s1
   14194:	8da1                	xor	a1,a1,s0
   14196:	01c0d493          	srli	s1,ra,0x1c
   1419a:	019bc433          	xor	s0,s7,s9
   1419e:	0092                	slli	ra,ra,0x4
   141a0:	01c3d393          	srli	t2,t2,0x1c
   141a4:	009964b3          	or	s1,s2,s1
   141a8:	0070e3b3          	or	t2,ra,t2
   141ac:	008b4433          	xor	s0,s6,s0
   141b0:	013acab3          	xor	s5,s5,s3
   141b4:	00e2c2b3          	xor	t0,t0,a4
   141b8:	011eceb3          	xor	t4,t4,a7
   141bc:	8c25                	xor	s0,s0,s1
   141be:	007acab3          	xor	s5,s5,t2
   141c2:	006dc333          	xor	t1,s11,t1
   141c6:	8fb1                	xor	a5,a5,a2
   141c8:	8db5                	xor	a1,a1,a3
   141ca:	010e4e33          	xor	t3,t3,a6
   141ce:	00a34333          	xor	t1,t1,a0
   141d2:	01d5c5b3          	xor	a1,a1,t4
   141d6:	01ea4733          	xor	a4,s4,t5
   141da:	0057c7b3          	xor	a5,a5,t0
   141de:	01fbc0b3          	xor	ra,s7,t6
   141e2:	fffacf13          	not	t5,s5
   141e6:	fff44f93          	not	t6,s0
   141ea:	006743b3          	xor	t2,a4,t1
   141ee:	01c0c0b3          	xor	ra,ra,t3
   141f2:	0a57c493          	xori	s1,a5,165
   141f6:	fff2c993          	not	s3,t0
   141fa:	fffec913          	not	s2,t4
   141fe:	fffe4613          	not	a2,t3
   14202:	fff34693          	not	a3,t1
   14206:	f5a7c713          	xori	a4,a5,-166
   1420a:	fff5c893          	not	a7,a1
   1420e:	005fffb3          	and	t6,t6,t0
   14212:	01df7f33          	and	t5,t5,t4
   14216:	001fcfb3          	xor	t6,t6,ra
   1421a:	007f4f33          	xor	t5,t5,t2
   1421e:	0099f9b3          	and	s3,s3,s1
   14222:	00b97933          	and	s2,s2,a1
   14226:	fff0c813          	not	a6,ra
   1422a:	00167633          	and	a2,a2,ra
   1422e:	0076f6b3          	and	a3,a3,t2
   14232:	01c77733          	and	a4,a4,t3
   14236:	0068f8b3          	and	a7,a7,t1
   1423a:	0089ccb3          	xor	s9,s3,s0
   1423e:	01594d33          	xor	s10,s2,s5
   14242:	8e25                	xor	a2,a2,s1
   14244:	8ead                	xor	a3,a3,a1
   14246:	007fd493          	srli	s1,t6,0x7
   1424a:	017f1593          	slli	a1,t5,0x17
   1424e:	017f9793          	slli	a5,t6,0x17
   14252:	00887833          	and	a6,a6,s0
   14256:	00574733          	xor	a4,a4,t0
   1425a:	007f5413          	srli	s0,t5,0x7
   1425e:	01d8c8b3          	xor	a7,a7,t4
   14262:	019f1a13          	slli	s4,t5,0x19
   14266:	019f9293          	slli	t0,t6,0x19
   1426a:	009fde93          	srli	t4,t6,0x9
   1426e:	009f5993          	srli	s3,t5,0x9
   14272:	01974733          	xor	a4,a4,s9
   14276:	01a8c8b3          	xor	a7,a7,s10
   1427a:	009a6a33          	or	s4,s4,s1
   1427e:	0082e2b3          	or	t0,t0,s0
   14282:	00beeeb3          	or	t4,t4,a1
   14286:	00f9e9b3          	or	s3,s3,a5
   1428a:	013a49b3          	xor	s3,s4,s3
   1428e:	fff3c513          	not	a0,t2
   14292:	01d2ca33          	xor	s4,t0,t4
   14296:	00389293          	slli	t0,a7,0x3
   1429a:	01d75e93          	srli	t4,a4,0x1d
   1429e:	ce4e                	sw	s3,28(sp)
   142a0:	01989b93          	slli	s7,a7,0x19
   142a4:	005eeeb3          	or	t4,t4,t0
   142a8:	00371993          	slli	s3,a4,0x3
   142ac:	01557533          	and	a0,a0,s5
   142b0:	01d8d293          	srli	t0,a7,0x1d
   142b4:	01c84833          	xor	a6,a6,t3
   142b8:	00654533          	xor	a0,a0,t1
   142bc:	0132e2b3          	or	t0,t0,s3
   142c0:	835e                	mv	t1,s7
   142c2:	00775993          	srli	s3,a4,0x7
   142c6:	d076                	sw	t4,32(sp)
   142c8:	00c84833          	xor	a6,a6,a2
   142cc:	8d35                	xor	a0,a0,a3
   142ce:	0069e9b3          	or	s3,s3,t1
   142d2:	01971e93          	slli	t4,a4,0x19
   142d6:	0078d313          	srli	t1,a7,0x7
   142da:	01d36eb3          	or	t4,t1,t4
   142de:	00a85e13          	srli	t3,a6,0xa
   142e2:	01651313          	slli	t1,a0,0x16
   142e6:	00a55d93          	srli	s11,a0,0xa
   142ea:	01c36e33          	or	t3,t1,t3
   142ee:	01681313          	slli	t1,a6,0x16
   142f2:	01b36db3          	or	s11,t1,s11
   142f6:	00f51913          	slli	s2,a0,0xf
   142fa:	01185313          	srli	t1,a6,0x11
   142fe:	fff64613          	not	a2,a2
   14302:	fff6c693          	not	a3,a3
   14306:	01155a93          	srli	s5,a0,0x11
   1430a:	00696933          	or	s2,s2,t1
   1430e:	00f81313          	slli	t1,a6,0xf
   14312:	01fcc0b3          	xor	ra,s9,t6
   14316:	01ed43b3          	xor	t2,s10,t5
   1431a:	01f61b93          	slli	s7,a2,0x1f
   1431e:	0016d413          	srli	s0,a3,0x1
   14322:	01a61593          	slli	a1,a2,0x1a
   14326:	01536333          	or	t1,t1,s5
   1432a:	0066da93          	srli	s5,a3,0x6
   1432e:	008be433          	or	s0,s7,s0
   14332:	0155e5b3          	or	a1,a1,s5
   14336:	00d09b93          	slli	s7,ra,0xd
   1433a:	0133da93          	srli	s5,t2,0x13
   1433e:	01d2c2b3          	xor	t0,t0,t4
   14342:	015beab3          	or	s5,s7,s5
   14346:	5e82                	lw	t4,32(sp)
   14348:	4bf2                	lw	s7,28(sp)
   1434a:	01f69c13          	slli	s8,a3,0x1f
   1434e:	01a69b13          	slli	s6,a3,0x1a
   14352:	00165493          	srli	s1,a2,0x1
   14356:	00665793          	srli	a5,a2,0x6
   1435a:	009c64b3          	or	s1,s8,s1
   1435e:	00fb67b3          	or	a5,s6,a5
   14362:	00d39c13          	slli	s8,t2,0xd
   14366:	0130db13          	srli	s6,ra,0x13
   1436a:	016c6b33          	or	s6,s8,s6
   1436e:	013eceb3          	xor	t4,t4,s3
   14372:	012e4e33          	xor	t3,t3,s2
   14376:	01aa49b3          	xor	s3,s4,s10
   1437a:	00439913          	slli	s2,t2,0x4
   1437e:	8fa5                	xor	a5,a5,s1
   14380:	8da1                	xor	a1,a1,s0
   14382:	01c0d493          	srli	s1,ra,0x1c
   14386:	019bc433          	xor	s0,s7,s9
   1438a:	0092                	slli	ra,ra,0x4
   1438c:	01c3d393          	srli	t2,t2,0x1c
   14390:	009964b3          	or	s1,s2,s1
   14394:	0070e3b3          	or	t2,ra,t2
   14398:	008b4433          	xor	s0,s6,s0
   1439c:	013acab3          	xor	s5,s5,s3
   143a0:	00e2c2b3          	xor	t0,t0,a4
   143a4:	011eceb3          	xor	t4,t4,a7
   143a8:	8c25                	xor	s0,s0,s1
   143aa:	007acab3          	xor	s5,s5,t2
   143ae:	006dc333          	xor	t1,s11,t1
   143b2:	8fb1                	xor	a5,a5,a2
   143b4:	8db5                	xor	a1,a1,a3
   143b6:	010e4e33          	xor	t3,t3,a6
   143ba:	00a34333          	xor	t1,t1,a0
   143be:	01d5c5b3          	xor	a1,a1,t4
   143c2:	01ea4733          	xor	a4,s4,t5
   143c6:	0057c7b3          	xor	a5,a5,t0
   143ca:	01fbc0b3          	xor	ra,s7,t6
   143ce:	fffacf13          	not	t5,s5
   143d2:	fff44f93          	not	t6,s0
   143d6:	006743b3          	xor	t2,a4,t1
   143da:	01c0c0b3          	xor	ra,ra,t3
   143de:	0967c493          	xori	s1,a5,150
   143e2:	fff2c993          	not	s3,t0
   143e6:	fffec913          	not	s2,t4
   143ea:	fffe4613          	not	a2,t3
   143ee:	fff34693          	not	a3,t1
   143f2:	f697c713          	xori	a4,a5,-151
   143f6:	fff5c893          	not	a7,a1
   143fa:	005fffb3          	and	t6,t6,t0
   143fe:	01df7f33          	and	t5,t5,t4
   14402:	001fcfb3          	xor	t6,t6,ra
   14406:	007f4f33          	xor	t5,t5,t2
   1440a:	0099f9b3          	and	s3,s3,s1
   1440e:	00b97933          	and	s2,s2,a1
   14412:	fff0c813          	not	a6,ra
   14416:	00167633          	and	a2,a2,ra
   1441a:	0076f6b3          	and	a3,a3,t2
   1441e:	01c77733          	and	a4,a4,t3
   14422:	0068f8b3          	and	a7,a7,t1
   14426:	0089ccb3          	xor	s9,s3,s0
   1442a:	01594d33          	xor	s10,s2,s5
   1442e:	8e25                	xor	a2,a2,s1
   14430:	8ead                	xor	a3,a3,a1
   14432:	007fd493          	srli	s1,t6,0x7
   14436:	017f1593          	slli	a1,t5,0x17
   1443a:	017f9793          	slli	a5,t6,0x17
   1443e:	00887833          	and	a6,a6,s0
   14442:	00574733          	xor	a4,a4,t0
   14446:	007f5413          	srli	s0,t5,0x7
   1444a:	01d8c8b3          	xor	a7,a7,t4
   1444e:	019f1a13          	slli	s4,t5,0x19
   14452:	019f9293          	slli	t0,t6,0x19
   14456:	009fde93          	srli	t4,t6,0x9
   1445a:	009f5993          	srli	s3,t5,0x9
   1445e:	01974733          	xor	a4,a4,s9
   14462:	01a8c8b3          	xor	a7,a7,s10
   14466:	009a6a33          	or	s4,s4,s1
   1446a:	0082e2b3          	or	t0,t0,s0
   1446e:	00beeeb3          	or	t4,t4,a1
   14472:	00f9e9b3          	or	s3,s3,a5
   14476:	013a49b3          	xor	s3,s4,s3
   1447a:	fff3c513          	not	a0,t2
   1447e:	01d2ca33          	xor	s4,t0,t4
   14482:	00389293          	slli	t0,a7,0x3
   14486:	01d75e93          	srli	t4,a4,0x1d
   1448a:	ce4e                	sw	s3,28(sp)
   1448c:	01989b93          	slli	s7,a7,0x19
   14490:	005eeeb3          	or	t4,t4,t0
   14494:	00371993          	slli	s3,a4,0x3
   14498:	01557533          	and	a0,a0,s5
   1449c:	01d8d293          	srli	t0,a7,0x1d
   144a0:	01c84833          	xor	a6,a6,t3
   144a4:	00654533          	xor	a0,a0,t1
   144a8:	0132e2b3          	or	t0,t0,s3
   144ac:	835e                	mv	t1,s7
   144ae:	00775993          	srli	s3,a4,0x7
   144b2:	d076                	sw	t4,32(sp)
   144b4:	00c84833          	xor	a6,a6,a2
   144b8:	8d35                	xor	a0,a0,a3
   144ba:	0069e9b3          	or	s3,s3,t1
   144be:	01971e93          	slli	t4,a4,0x19
   144c2:	0078d313          	srli	t1,a7,0x7
   144c6:	01d36eb3          	or	t4,t1,t4
   144ca:	00a85e13          	srli	t3,a6,0xa
   144ce:	01651313          	slli	t1,a0,0x16
   144d2:	00a55d93          	srli	s11,a0,0xa
   144d6:	01c36e33          	or	t3,t1,t3
   144da:	01681313          	slli	t1,a6,0x16
   144de:	01b36db3          	or	s11,t1,s11
   144e2:	00f51913          	slli	s2,a0,0xf
   144e6:	01185313          	srli	t1,a6,0x11
   144ea:	fff64613          	not	a2,a2
   144ee:	fff6c693          	not	a3,a3
   144f2:	01155a93          	srli	s5,a0,0x11
   144f6:	00696933          	or	s2,s2,t1
   144fa:	00f81313          	slli	t1,a6,0xf
   144fe:	01fcc0b3          	xor	ra,s9,t6
   14502:	01ed43b3          	xor	t2,s10,t5
   14506:	01f61b93          	slli	s7,a2,0x1f
   1450a:	0016d413          	srli	s0,a3,0x1
   1450e:	01a61593          	slli	a1,a2,0x1a
   14512:	01536333          	or	t1,t1,s5
   14516:	0066da93          	srli	s5,a3,0x6
   1451a:	008be433          	or	s0,s7,s0
   1451e:	0155e5b3          	or	a1,a1,s5
   14522:	00d09b93          	slli	s7,ra,0xd
   14526:	0133da93          	srli	s5,t2,0x13
   1452a:	01d2c2b3          	xor	t0,t0,t4
   1452e:	015beab3          	or	s5,s7,s5
   14532:	5e82                	lw	t4,32(sp)
   14534:	4bf2                	lw	s7,28(sp)
   14536:	01f69c13          	slli	s8,a3,0x1f
   1453a:	01a69b13          	slli	s6,a3,0x1a
   1453e:	00165493          	srli	s1,a2,0x1
   14542:	00665793          	srli	a5,a2,0x6
   14546:	009c64b3          	or	s1,s8,s1
   1454a:	00fb67b3          	or	a5,s6,a5
   1454e:	00d39c13          	slli	s8,t2,0xd
   14552:	0130db13          	srli	s6,ra,0x13
   14556:	016c6b33          	or	s6,s8,s6
   1455a:	013eceb3          	xor	t4,t4,s3
   1455e:	012e4e33          	xor	t3,t3,s2
   14562:	01aa49b3          	xor	s3,s4,s10
   14566:	00439913          	slli	s2,t2,0x4
   1456a:	8fa5                	xor	a5,a5,s1
   1456c:	8da1                	xor	a1,a1,s0
   1456e:	01c0d493          	srli	s1,ra,0x1c
   14572:	019bc433          	xor	s0,s7,s9
   14576:	0092                	slli	ra,ra,0x4
   14578:	01c3d393          	srli	t2,t2,0x1c
   1457c:	009964b3          	or	s1,s2,s1
   14580:	0070e3b3          	or	t2,ra,t2
   14584:	008b4433          	xor	s0,s6,s0
   14588:	013acab3          	xor	s5,s5,s3
   1458c:	00e2c2b3          	xor	t0,t0,a4
   14590:	011eceb3          	xor	t4,t4,a7
   14594:	8c25                	xor	s0,s0,s1
   14596:	007acab3          	xor	s5,s5,t2
   1459a:	006dc333          	xor	t1,s11,t1
   1459e:	8fb1                	xor	a5,a5,a2
   145a0:	8db5                	xor	a1,a1,a3
   145a2:	010e4e33          	xor	t3,t3,a6
   145a6:	00a34333          	xor	t1,t1,a0
   145aa:	01d5c5b3          	xor	a1,a1,t4
   145ae:	01ea4733          	xor	a4,s4,t5
   145b2:	0057c7b3          	xor	a5,a5,t0
   145b6:	01fbc0b3          	xor	ra,s7,t6
   145ba:	fffacf13          	not	t5,s5
   145be:	fff44f93          	not	t6,s0
   145c2:	006743b3          	xor	t2,a4,t1
   145c6:	01c0c0b3          	xor	ra,ra,t3
   145ca:	0877c493          	xori	s1,a5,135
   145ce:	fff2c993          	not	s3,t0
   145d2:	fffec913          	not	s2,t4
   145d6:	fffe4613          	not	a2,t3
   145da:	fff34693          	not	a3,t1
   145de:	f787c713          	xori	a4,a5,-136
   145e2:	fff5c893          	not	a7,a1
   145e6:	005fffb3          	and	t6,t6,t0
   145ea:	01df7f33          	and	t5,t5,t4
   145ee:	001fcfb3          	xor	t6,t6,ra
   145f2:	007f4f33          	xor	t5,t5,t2
   145f6:	0099f9b3          	and	s3,s3,s1
   145fa:	00b97933          	and	s2,s2,a1
   145fe:	fff0c813          	not	a6,ra
   14602:	00167633          	and	a2,a2,ra
   14606:	0076f6b3          	and	a3,a3,t2
   1460a:	01c77733          	and	a4,a4,t3
   1460e:	0068f8b3          	and	a7,a7,t1
   14612:	0089ccb3          	xor	s9,s3,s0
   14616:	01594d33          	xor	s10,s2,s5
   1461a:	8e25                	xor	a2,a2,s1
   1461c:	8ead                	xor	a3,a3,a1
   1461e:	007fd493          	srli	s1,t6,0x7
   14622:	017f1593          	slli	a1,t5,0x17
   14626:	017f9793          	slli	a5,t6,0x17
   1462a:	00887833          	and	a6,a6,s0
   1462e:	00574733          	xor	a4,a4,t0
   14632:	007f5413          	srli	s0,t5,0x7
   14636:	01d8c8b3          	xor	a7,a7,t4
   1463a:	019f1a13          	slli	s4,t5,0x19
   1463e:	019f9293          	slli	t0,t6,0x19
   14642:	009fde93          	srli	t4,t6,0x9
   14646:	009f5993          	srli	s3,t5,0x9
   1464a:	01974733          	xor	a4,a4,s9
   1464e:	01a8c8b3          	xor	a7,a7,s10
   14652:	009a6a33          	or	s4,s4,s1
   14656:	0082e2b3          	or	t0,t0,s0
   1465a:	00beeeb3          	or	t4,t4,a1
   1465e:	00f9e9b3          	or	s3,s3,a5
   14662:	013a49b3          	xor	s3,s4,s3
   14666:	fff3c513          	not	a0,t2
   1466a:	01d2ca33          	xor	s4,t0,t4
   1466e:	00389293          	slli	t0,a7,0x3
   14672:	01d75e93          	srli	t4,a4,0x1d
   14676:	ce4e                	sw	s3,28(sp)
   14678:	01989b93          	slli	s7,a7,0x19
   1467c:	005eeeb3          	or	t4,t4,t0
   14680:	00371993          	slli	s3,a4,0x3
   14684:	01557533          	and	a0,a0,s5
   14688:	01d8d293          	srli	t0,a7,0x1d
   1468c:	01c84833          	xor	a6,a6,t3
   14690:	00654533          	xor	a0,a0,t1
   14694:	0132e2b3          	or	t0,t0,s3
   14698:	835e                	mv	t1,s7
   1469a:	00775993          	srli	s3,a4,0x7
   1469e:	d076                	sw	t4,32(sp)
   146a0:	00c84833          	xor	a6,a6,a2
   146a4:	8d35                	xor	a0,a0,a3
   146a6:	0069e9b3          	or	s3,s3,t1
   146aa:	01971e93          	slli	t4,a4,0x19
   146ae:	0078d313          	srli	t1,a7,0x7
   146b2:	01d36eb3          	or	t4,t1,t4
   146b6:	00a85e13          	srli	t3,a6,0xa
   146ba:	01651313          	slli	t1,a0,0x16
   146be:	00a55d93          	srli	s11,a0,0xa
   146c2:	01c36e33          	or	t3,t1,t3
   146c6:	01681313          	slli	t1,a6,0x16
   146ca:	01b36db3          	or	s11,t1,s11
   146ce:	00f51913          	slli	s2,a0,0xf
   146d2:	01185313          	srli	t1,a6,0x11
   146d6:	fff64613          	not	a2,a2
   146da:	fff6c693          	not	a3,a3
   146de:	01155a93          	srli	s5,a0,0x11
   146e2:	00696933          	or	s2,s2,t1
   146e6:	00f81313          	slli	t1,a6,0xf
   146ea:	01fcc0b3          	xor	ra,s9,t6
   146ee:	01ed43b3          	xor	t2,s10,t5
   146f2:	01f61b93          	slli	s7,a2,0x1f
   146f6:	0016d413          	srli	s0,a3,0x1
   146fa:	01a61593          	slli	a1,a2,0x1a
   146fe:	01536333          	or	t1,t1,s5
   14702:	0066da93          	srli	s5,a3,0x6
   14706:	008be433          	or	s0,s7,s0
   1470a:	0155e5b3          	or	a1,a1,s5
   1470e:	00d09b93          	slli	s7,ra,0xd
   14712:	0133da93          	srli	s5,t2,0x13
   14716:	01d2c2b3          	xor	t0,t0,t4
   1471a:	015beab3          	or	s5,s7,s5
   1471e:	5e82                	lw	t4,32(sp)
   14720:	4bf2                	lw	s7,28(sp)
   14722:	01f69c13          	slli	s8,a3,0x1f
   14726:	01a69b13          	slli	s6,a3,0x1a
   1472a:	00165493          	srli	s1,a2,0x1
   1472e:	00665793          	srli	a5,a2,0x6
   14732:	009c64b3          	or	s1,s8,s1
   14736:	00fb67b3          	or	a5,s6,a5
   1473a:	00d39c13          	slli	s8,t2,0xd
   1473e:	0130db13          	srli	s6,ra,0x13
   14742:	016c6b33          	or	s6,s8,s6
   14746:	013eceb3          	xor	t4,t4,s3
   1474a:	012e4e33          	xor	t3,t3,s2
   1474e:	01aa49b3          	xor	s3,s4,s10
   14752:	00439913          	slli	s2,t2,0x4
   14756:	8fa5                	xor	a5,a5,s1
   14758:	8da1                	xor	a1,a1,s0
   1475a:	01c0d493          	srli	s1,ra,0x1c
   1475e:	019bc433          	xor	s0,s7,s9
   14762:	0092                	slli	ra,ra,0x4
   14764:	01c3d393          	srli	t2,t2,0x1c
   14768:	009964b3          	or	s1,s2,s1
   1476c:	0070e3b3          	or	t2,ra,t2
   14770:	008b4433          	xor	s0,s6,s0
   14774:	013acab3          	xor	s5,s5,s3
   14778:	00e2c2b3          	xor	t0,t0,a4
   1477c:	011eceb3          	xor	t4,t4,a7
   14780:	8c25                	xor	s0,s0,s1
   14782:	007acab3          	xor	s5,s5,t2
   14786:	006dc333          	xor	t1,s11,t1
   1478a:	8fb1                	xor	a5,a5,a2
   1478c:	8db5                	xor	a1,a1,a3
   1478e:	010e4e33          	xor	t3,t3,a6
   14792:	00a34333          	xor	t1,t1,a0
   14796:	01d5c5b3          	xor	a1,a1,t4
   1479a:	01ea4733          	xor	a4,s4,t5
   1479e:	0057c7b3          	xor	a5,a5,t0
   147a2:	01fbc0b3          	xor	ra,s7,t6
   147a6:	fffacf13          	not	t5,s5
   147aa:	fff44f93          	not	t6,s0
   147ae:	006743b3          	xor	t2,a4,t1
   147b2:	01c0c0b3          	xor	ra,ra,t3
   147b6:	0787c493          	xori	s1,a5,120
   147ba:	fff2c993          	not	s3,t0
   147be:	fffec913          	not	s2,t4
   147c2:	fffe4613          	not	a2,t3
   147c6:	fff34693          	not	a3,t1
   147ca:	f877c713          	xori	a4,a5,-121
   147ce:	fff5c893          	not	a7,a1
   147d2:	005fffb3          	and	t6,t6,t0
   147d6:	01df7f33          	and	t5,t5,t4
   147da:	001fcfb3          	xor	t6,t6,ra
   147de:	007f4f33          	xor	t5,t5,t2
   147e2:	0099f9b3          	and	s3,s3,s1
   147e6:	00b97933          	and	s2,s2,a1
   147ea:	fff0c813          	not	a6,ra
   147ee:	00167633          	and	a2,a2,ra
   147f2:	0076f6b3          	and	a3,a3,t2
   147f6:	01c77733          	and	a4,a4,t3
   147fa:	0068f8b3          	and	a7,a7,t1
   147fe:	0089ccb3          	xor	s9,s3,s0
   14802:	01594d33          	xor	s10,s2,s5
   14806:	8e25                	xor	a2,a2,s1
   14808:	8ead                	xor	a3,a3,a1
   1480a:	007fd493          	srli	s1,t6,0x7
   1480e:	017f1593          	slli	a1,t5,0x17
   14812:	017f9793          	slli	a5,t6,0x17
   14816:	00887833          	and	a6,a6,s0
   1481a:	00574733          	xor	a4,a4,t0
   1481e:	007f5413          	srli	s0,t5,0x7
   14822:	01d8c8b3          	xor	a7,a7,t4
   14826:	019f1a13          	slli	s4,t5,0x19
   1482a:	019f9293          	slli	t0,t6,0x19
   1482e:	009fde93          	srli	t4,t6,0x9
   14832:	009f5993          	srli	s3,t5,0x9
   14836:	01974733          	xor	a4,a4,s9
   1483a:	01a8c8b3          	xor	a7,a7,s10
   1483e:	009a6a33          	or	s4,s4,s1
   14842:	0082e2b3          	or	t0,t0,s0
   14846:	00beeeb3          	or	t4,t4,a1
   1484a:	00f9e9b3          	or	s3,s3,a5
   1484e:	013a49b3          	xor	s3,s4,s3
   14852:	fff3c513          	not	a0,t2
   14856:	01d2ca33          	xor	s4,t0,t4
   1485a:	00389293          	slli	t0,a7,0x3
   1485e:	01d75e93          	srli	t4,a4,0x1d
   14862:	ce4e                	sw	s3,28(sp)
   14864:	01989b93          	slli	s7,a7,0x19
   14868:	005eeeb3          	or	t4,t4,t0
   1486c:	00371993          	slli	s3,a4,0x3
   14870:	01557533          	and	a0,a0,s5
   14874:	01d8d293          	srli	t0,a7,0x1d
   14878:	01c84833          	xor	a6,a6,t3
   1487c:	00654533          	xor	a0,a0,t1
   14880:	0132e2b3          	or	t0,t0,s3
   14884:	835e                	mv	t1,s7
   14886:	00775993          	srli	s3,a4,0x7
   1488a:	d076                	sw	t4,32(sp)
   1488c:	00c84833          	xor	a6,a6,a2
   14890:	8d35                	xor	a0,a0,a3
   14892:	0069e9b3          	or	s3,s3,t1
   14896:	01971e93          	slli	t4,a4,0x19
   1489a:	0078d313          	srli	t1,a7,0x7
   1489e:	01d36eb3          	or	t4,t1,t4
   148a2:	00a85e13          	srli	t3,a6,0xa
   148a6:	01651313          	slli	t1,a0,0x16
   148aa:	00a55d93          	srli	s11,a0,0xa
   148ae:	01c36e33          	or	t3,t1,t3
   148b2:	01681313          	slli	t1,a6,0x16
   148b6:	01b36db3          	or	s11,t1,s11
   148ba:	00f51913          	slli	s2,a0,0xf
   148be:	01185313          	srli	t1,a6,0x11
   148c2:	fff64613          	not	a2,a2
   148c6:	fff6c693          	not	a3,a3
   148ca:	01155a93          	srli	s5,a0,0x11
   148ce:	00696933          	or	s2,s2,t1
   148d2:	00f81313          	slli	t1,a6,0xf
   148d6:	01fcc0b3          	xor	ra,s9,t6
   148da:	01ed43b3          	xor	t2,s10,t5
   148de:	01f61b93          	slli	s7,a2,0x1f
   148e2:	0016d413          	srli	s0,a3,0x1
   148e6:	01a61593          	slli	a1,a2,0x1a
   148ea:	01536333          	or	t1,t1,s5
   148ee:	0066da93          	srli	s5,a3,0x6
   148f2:	008be433          	or	s0,s7,s0
   148f6:	0155e5b3          	or	a1,a1,s5
   148fa:	00d09b93          	slli	s7,ra,0xd
   148fe:	0133da93          	srli	s5,t2,0x13
   14902:	01d2c2b3          	xor	t0,t0,t4
   14906:	015beab3          	or	s5,s7,s5
   1490a:	5e82                	lw	t4,32(sp)
   1490c:	4bf2                	lw	s7,28(sp)
   1490e:	01f69c13          	slli	s8,a3,0x1f
   14912:	01a69b13          	slli	s6,a3,0x1a
   14916:	00165493          	srli	s1,a2,0x1
   1491a:	00665793          	srli	a5,a2,0x6
   1491e:	009c64b3          	or	s1,s8,s1
   14922:	00fb67b3          	or	a5,s6,a5
   14926:	00d39c13          	slli	s8,t2,0xd
   1492a:	0130db13          	srli	s6,ra,0x13
   1492e:	016c6b33          	or	s6,s8,s6
   14932:	013eceb3          	xor	t4,t4,s3
   14936:	012e4e33          	xor	t3,t3,s2
   1493a:	01aa49b3          	xor	s3,s4,s10
   1493e:	00439913          	slli	s2,t2,0x4
   14942:	8fa5                	xor	a5,a5,s1
   14944:	8da1                	xor	a1,a1,s0
   14946:	01c0d493          	srli	s1,ra,0x1c
   1494a:	019bc433          	xor	s0,s7,s9
   1494e:	0092                	slli	ra,ra,0x4
   14950:	01c3d393          	srli	t2,t2,0x1c
   14954:	00e2c2b3          	xor	t0,t0,a4
   14958:	010e4e33          	xor	t3,t3,a6
   1495c:	01fbc733          	xor	a4,s7,t6
   14960:	009964b3          	or	s1,s2,s1
   14964:	0070e3b3          	or	t2,ra,t2
   14968:	006dc333          	xor	t1,s11,t1
   1496c:	8fb1                	xor	a5,a5,a2
   1496e:	008b4433          	xor	s0,s6,s0
   14972:	013acab3          	xor	s5,s5,s3
   14976:	011eceb3          	xor	t4,t4,a7
   1497a:	00a34333          	xor	t1,t1,a0
   1497e:	8c25                	xor	s0,s0,s1
   14980:	007acab3          	xor	s5,s5,t2
   14984:	0057c7b3          	xor	a5,a5,t0
   14988:	01ea4833          	xor	a6,s4,t5
   1498c:	8db5                	xor	a1,a1,a3
   1498e:	01c74f33          	xor	t5,a4,t3
   14992:	00684833          	xor	a6,a6,t1
   14996:	01d5c5b3          	xor	a1,a1,t4
   1499a:	0697c093          	xori	ra,a5,105
   1499e:	fffe4513          	not	a0,t3
   149a2:	fff44613          	not	a2,s0
   149a6:	fffac693          	not	a3,s5
   149aa:	f967c713          	xori	a4,a5,-106
   149ae:	ffff4793          	not	a5,t5
   149b2:	fff2c913          	not	s2,t0
   149b6:	fffec493          	not	s1,t4
   149ba:	fff34f93          	not	t6,t1
   149be:	fff5c393          	not	t2,a1
   149c2:	fff84893          	not	a7,a6
   149c6:	01e57533          	and	a0,a0,t5
   149ca:	00567633          	and	a2,a2,t0
   149ce:	01d6f6b3          	and	a3,a3,t4
   149d2:	8fe1                	and	a5,a5,s0
   149d4:	01e64633          	xor	a2,a2,t5
   149d8:	0106c6b3          	xor	a3,a3,a6
   149dc:	00197933          	and	s2,s2,ra
   149e0:	8ced                	and	s1,s1,a1
   149e2:	010fffb3          	and	t6,t6,a6
   149e6:	00154533          	xor	a0,a0,ra
   149ea:	01c7c7b3          	xor	a5,a5,t3
   149ee:	01c77733          	and	a4,a4,t3
   149f2:	0063f3b3          	and	t2,t2,t1
   149f6:	0158f8b3          	and	a7,a7,s5
   149fa:	00894cb3          	xor	s9,s2,s0
   149fe:	0154cd33          	xor	s10,s1,s5
   14a02:	00bfc5b3          	xor	a1,t6,a1
   14a06:	01d3c3b3          	xor	t2,t2,t4
   14a0a:	00765493          	srli	s1,a2,0x7
   14a0e:	0076d413          	srli	s0,a3,0x7
   14a12:	01769813          	slli	a6,a3,0x17
   14a16:	00574733          	xor	a4,a4,t0
   14a1a:	0068c8b3          	xor	a7,a7,t1
   14a1e:	01969a13          	slli	s4,a3,0x19
   14a22:	00a7c333          	xor	t1,a5,a0
   14a26:	01961293          	slli	t0,a2,0x19
   14a2a:	01761793          	slli	a5,a2,0x17
   14a2e:	00965f93          	srli	t6,a2,0x9
   14a32:	0096d993          	srli	s3,a3,0x9
   14a36:	01a3ce33          	xor	t3,t2,s10
   14a3a:	01974733          	xor	a4,a4,s9
   14a3e:	009a6a33          	or	s4,s4,s1
   14a42:	0082e2b3          	or	t0,t0,s0
   14a46:	010fefb3          	or	t6,t6,a6
   14a4a:	00f9e9b3          	or	s3,s3,a5
   14a4e:	013a49b3          	xor	s3,s4,s3
   14a52:	01f2ca33          	xor	s4,t0,t6
   14a56:	003e1293          	slli	t0,t3,0x3
   14a5a:	01d75f93          	srli	t6,a4,0x1d
   14a5e:	ce4e                	sw	s3,28(sp)
   14a60:	019e1b93          	slli	s7,t3,0x19
   14a64:	005fefb3          	or	t6,t6,t0
   14a68:	00371993          	slli	s3,a4,0x3
   14a6c:	01de5293          	srli	t0,t3,0x1d
   14a70:	8ede                	mv	t4,s7
   14a72:	0132e2b3          	or	t0,t0,s3
   14a76:	00775993          	srli	s3,a4,0x7
   14a7a:	00b8c8b3          	xor	a7,a7,a1
   14a7e:	d07e                	sw	t6,32(sp)
   14a80:	01d9e9b3          	or	s3,s3,t4
   14a84:	01971f93          	slli	t6,a4,0x19
   14a88:	007e5e93          	srli	t4,t3,0x7
   14a8c:	01feefb3          	or	t6,t4,t6
   14a90:	00a35f13          	srli	t5,t1,0xa
   14a94:	01689e93          	slli	t4,a7,0x16
   14a98:	00a8dd93          	srli	s11,a7,0xa
   14a9c:	01eeef33          	or	t5,t4,t5
   14aa0:	01631e93          	slli	t4,t1,0x16
   14aa4:	01beedb3          	or	s11,t4,s11
   14aa8:	00f89913          	slli	s2,a7,0xf
   14aac:	01135e93          	srli	t4,t1,0x11
   14ab0:	fff54513          	not	a0,a0
   14ab4:	fff5c593          	not	a1,a1
   14ab8:	0118da93          	srli	s5,a7,0x11
   14abc:	01d96933          	or	s2,s2,t4
   14ac0:	00f31e93          	slli	t4,t1,0xf
   14ac4:	00ccc0b3          	xor	ra,s9,a2
   14ac8:	00dd43b3          	xor	t2,s10,a3
   14acc:	01f51b93          	slli	s7,a0,0x1f
   14ad0:	0015d413          	srli	s0,a1,0x1
   14ad4:	01a51813          	slli	a6,a0,0x1a
   14ad8:	015eeeb3          	or	t4,t4,s5
   14adc:	0065da93          	srli	s5,a1,0x6
   14ae0:	008be433          	or	s0,s7,s0
   14ae4:	01586833          	or	a6,a6,s5
   14ae8:	00d09b93          	slli	s7,ra,0xd
   14aec:	0133da93          	srli	s5,t2,0x13
   14af0:	01f2c2b3          	xor	t0,t0,t6
   14af4:	015beab3          	or	s5,s7,s5
   14af8:	5f82                	lw	t6,32(sp)
   14afa:	4bf2                	lw	s7,28(sp)
   14afc:	01f59c13          	slli	s8,a1,0x1f
   14b00:	01a59b13          	slli	s6,a1,0x1a
   14b04:	00155493          	srli	s1,a0,0x1
   14b08:	00655793          	srli	a5,a0,0x6
   14b0c:	009c64b3          	or	s1,s8,s1
   14b10:	00fb67b3          	or	a5,s6,a5
   14b14:	00d39c13          	slli	s8,t2,0xd
   14b18:	0130db13          	srli	s6,ra,0x13
   14b1c:	016c6b33          	or	s6,s8,s6
   14b20:	013fcfb3          	xor	t6,t6,s3
   14b24:	012f4f33          	xor	t5,t5,s2
   14b28:	014d49b3          	xor	s3,s10,s4
   14b2c:	00439913          	slli	s2,t2,0x4
   14b30:	8fa5                	xor	a5,a5,s1
   14b32:	01044833          	xor	a6,s0,a6
   14b36:	01c0d493          	srli	s1,ra,0x1c
   14b3a:	017cc433          	xor	s0,s9,s7
   14b3e:	0092                	slli	ra,ra,0x4
   14b40:	01c3d393          	srli	t2,t2,0x1c
   14b44:	009964b3          	or	s1,s2,s1
   14b48:	0070e3b3          	or	t2,ra,t2
   14b4c:	01ddceb3          	xor	t4,s11,t4
   14b50:	008b4433          	xor	s0,s6,s0
   14b54:	013acab3          	xor	s5,s5,s3
   14b58:	00e2c2b3          	xor	t0,t0,a4
   14b5c:	01cfcfb3          	xor	t6,t6,t3
   14b60:	006f4f33          	xor	t5,t5,t1
   14b64:	011eceb3          	xor	t4,t4,a7
   14b68:	8c25                	xor	s0,s0,s1
   14b6a:	007acab3          	xor	s5,s5,t2
   14b6e:	01764633          	xor	a2,a2,s7
   14b72:	0146c6b3          	xor	a3,a3,s4
   14b76:	8fa9                	xor	a5,a5,a0
   14b78:	00b84833          	xor	a6,a6,a1
   14b7c:	01e643b3          	xor	t2,a2,t5
   14b80:	01d6c733          	xor	a4,a3,t4
   14b84:	01f84833          	xor	a6,a6,t6
   14b88:	0057c7b3          	xor	a5,a5,t0
   14b8c:	fff44613          	not	a2,s0
   14b90:	fffac693          	not	a3,s5
   14b94:	05a7c093          	xori	ra,a5,90
   14b98:	fff2c913          	not	s2,t0
   14b9c:	ffffc493          	not	s1,t6
   14ba0:	ffff4513          	not	a0,t5
   14ba4:	fffec593          	not	a1,t4
   14ba8:	fff84e13          	not	t3,a6
   14bac:	fff3c313          	not	t1,t2
   14bb0:	00567633          	and	a2,a2,t0
   14bb4:	01f6f6b3          	and	a3,a3,t6
   14bb8:	fa57c793          	xori	a5,a5,-91
   14bbc:	8eb9                	xor	a3,a3,a4
   14bbe:	00764633          	xor	a2,a2,t2
   14bc2:	00197933          	and	s2,s2,ra
   14bc6:	0104f4b3          	and	s1,s1,a6
   14bca:	00757533          	and	a0,a0,t2
   14bce:	8df9                	and	a1,a1,a4
   14bd0:	01e7f7b3          	and	a5,a5,t5
   14bd4:	01de7e33          	and	t3,t3,t4
   14bd8:	00837333          	and	t1,t1,s0
   14bdc:	00894d33          	xor	s10,s2,s0
   14be0:	0154ccb3          	xor	s9,s1,s5
   14be4:	00154533          	xor	a0,a0,ra
   14be8:	0105c5b3          	xor	a1,a1,a6
   14bec:	00765413          	srli	s0,a2,0x7
   14bf0:	0076d093          	srli	ra,a3,0x7
   14bf4:	01769813          	slli	a6,a3,0x17
   14bf8:	fff74893          	not	a7,a4
   14bfc:	0057c7b3          	xor	a5,a5,t0
   14c00:	01761713          	slli	a4,a2,0x17
   14c04:	01fe4e33          	xor	t3,t3,t6
   14c08:	01e34333          	xor	t1,t1,t5
   14c0c:	01969a13          	slli	s4,a3,0x19
   14c10:	01961f93          	slli	t6,a2,0x19
   14c14:	00965f13          	srli	t5,a2,0x9
   14c18:	0096d993          	srli	s3,a3,0x9
   14c1c:	01a7c7b3          	xor	a5,a5,s10
   14c20:	019e4e33          	xor	t3,t3,s9
   14c24:	001fefb3          	or	t6,t6,ra
   14c28:	010f6f33          	or	t5,t5,a6
   14c2c:	00e9e9b3          	or	s3,s3,a4
   14c30:	008a6a33          	or	s4,s4,s0
   14c34:	013a4a33          	xor	s4,s4,s3
   14c38:	01efc9b3          	xor	s3,t6,t5
   14c3c:	01d7df13          	srli	t5,a5,0x1d
   14c40:	003e1f93          	slli	t6,t3,0x3
   14c44:	01ff6fb3          	or	t6,t5,t6
   14c48:	ce7e                	sw	t6,28(sp)
   14c4a:	00379f13          	slli	t5,a5,0x3
   14c4e:	01de5f93          	srli	t6,t3,0x1d
   14c52:	0158f8b3          	and	a7,a7,s5
   14c56:	019e1b93          	slli	s7,t3,0x19
   14c5a:	01efefb3          	or	t6,t6,t5
   14c5e:	0077df13          	srli	t5,a5,0x7
   14c62:	017f6bb3          	or	s7,t5,s7
   14c66:	01d8c8b3          	xor	a7,a7,t4
   14c6a:	00a34333          	xor	t1,t1,a0
   14c6e:	00b8c8b3          	xor	a7,a7,a1
   14c72:	d05e                	sw	s7,32(sp)
   14c74:	007e5f13          	srli	t5,t3,0x7
   14c78:	01979b93          	slli	s7,a5,0x19
   14c7c:	017f6bb3          	or	s7,t5,s7
   14c80:	00a35e93          	srli	t4,t1,0xa
   14c84:	01689f13          	slli	t5,a7,0x16
   14c88:	00a8dd93          	srli	s11,a7,0xa
   14c8c:	01df6eb3          	or	t4,t5,t4
   14c90:	01631f13          	slli	t5,t1,0x16
   14c94:	fff54513          	not	a0,a0
   14c98:	fff5c593          	not	a1,a1
   14c9c:	00f89913          	slli	s2,a7,0xf
   14ca0:	01bf6db3          	or	s11,t5,s11
   14ca4:	01135f13          	srli	t5,t1,0x11
   14ca8:	01f59c13          	slli	s8,a1,0x1f
   14cac:	01a59b13          	slli	s6,a1,0x1a
   14cb0:	01e96933          	or	s2,s2,t5
   14cb4:	0118d493          	srli	s1,a7,0x11
   14cb8:	00f31f13          	slli	t5,t1,0xf
   14cbc:	00155413          	srli	s0,a0,0x1
   14cc0:	00655713          	srli	a4,a0,0x6
   14cc4:	00cd43b3          	xor	t2,s10,a2
   14cc8:	00dcc2b3          	xor	t0,s9,a3
   14ccc:	0065da93          	srli	s5,a1,0x6
   14cd0:	009f64b3          	or	s1,t5,s1
   14cd4:	008c6433          	or	s0,s8,s0
   14cd8:	01f51f13          	slli	t5,a0,0x1f
   14cdc:	0015d093          	srli	ra,a1,0x1
   14ce0:	01a51813          	slli	a6,a0,0x1a
   14ce4:	00eb6733          	or	a4,s6,a4
   14ce8:	001f60b3          	or	ra,t5,ra
   14cec:	00d29c13          	slli	s8,t0,0xd
   14cf0:	5f02                	lw	t5,32(sp)
   14cf2:	01586833          	or	a6,a6,s5
   14cf6:	0133db13          	srli	s6,t2,0x13
   14cfa:	0132da93          	srli	s5,t0,0x13
   14cfe:	017fcfb3          	xor	t6,t6,s7
   14d02:	8f21                	xor	a4,a4,s0
   14d04:	4bf2                	lw	s7,28(sp)
   14d06:	00d39413          	slli	s0,t2,0xd
   14d0a:	016c6b33          	or	s6,s8,s6
   14d0e:	009dcdb3          	xor	s11,s11,s1
   14d12:	0100c833          	xor	a6,ra,a6
   14d16:	00429493          	slli	s1,t0,0x4
   14d1a:	014d40b3          	xor	ra,s10,s4
   14d1e:	01546ab3          	or	s5,s0,s5
   14d22:	01c3d413          	srli	s0,t2,0x1c
   14d26:	011dcdb3          	xor	s11,s11,a7
   14d2a:	8c45                	or	s0,s0,s1
   14d2c:	012eceb3          	xor	t4,t4,s2
   14d30:	0392                	slli	t2,t2,0x4
   14d32:	013cc933          	xor	s2,s9,s3
   14d36:	001b40b3          	xor	ra,s6,ra
   14d3a:	0136c6b3          	xor	a3,a3,s3
   14d3e:	01c2d293          	srli	t0,t0,0x1c
   14d42:	0080c0b3          	xor	ra,ra,s0
   14d46:	01b6c6b3          	xor	a3,a3,s11
   14d4a:	0053e2b3          	or	t0,t2,t0
   14d4e:	01ebcf33          	xor	t5,s7,t5
   14d52:	012acab3          	xor	s5,s5,s2
   14d56:	00ffcfb3          	xor	t6,t6,a5
   14d5a:	01cf4f33          	xor	t5,t5,t3
   14d5e:	006eceb3          	xor	t4,t4,t1
   14d62:	005acab3          	xor	s5,s5,t0
   14d66:	00b84833          	xor	a6,a6,a1
   14d6a:	01464633          	xor	a2,a2,s4
   14d6e:	fffdc293          	not	t0,s11
   14d72:	fff0c893          	not	a7,ra
   14d76:	fff6c313          	not	t1,a3
   14d7a:	01e843b3          	xor	t2,a6,t5
   14d7e:	01d647b3          	xor	a5,a2,t4
   14d82:	00d2f2b3          	and	t0,t0,a3
   14d86:	8f29                	xor	a4,a4,a0
   14d88:	fffec413          	not	s0,t4
   14d8c:	01f8f8b3          	and	a7,a7,t6
   14d90:	01537333          	and	t1,t1,s5
   14d94:	00f8c8b3          	xor	a7,a7,a5
   14d98:	01f74733          	xor	a4,a4,t6
   14d9c:	8c7d                	and	s0,s0,a5
   14d9e:	fff3c613          	not	a2,t2
   14da2:	fff7ce13          	not	t3,a5
   14da6:	01b34333          	xor	t1,t1,s11
   14daa:	0072c7b3          	xor	a5,t0,t2
   14dae:	fff7cc13          	not	s8,a5
   14db2:	04b74493          	xori	s1,a4,75
   14db6:	ffffc513          	not	a0,t6
   14dba:	ffff4593          	not	a1,t5
   14dbe:	fffac813          	not	a6,s5
   14dc2:	01b67633          	and	a2,a2,s11
   14dc6:	fb474713          	xori	a4,a4,-76
   14dca:	00f34db3          	xor	s11,t1,a5
   14dce:	47d2                	lw	a5,20(sp)
   14dd0:	8d65                	and	a0,a0,s1
   14dd2:	0075f5b3          	and	a1,a1,t2
   14dd6:	01e87833          	and	a6,a6,t5
   14dda:	01d77733          	and	a4,a4,t4
   14dde:	00d84833          	xor	a6,a6,a3
   14de2:	00154533          	xor	a0,a0,ra
   14de6:	0155c5b3          	xor	a1,a1,s5
   14dea:	01f74733          	xor	a4,a4,t6
   14dee:	01e64633          	xor	a2,a2,t5
   14df2:	8f29                	xor	a4,a4,a0
   14df4:	8e2d                	xor	a2,a2,a1
   14df6:	009446b3          	xor	a3,s0,s1
   14dfa:	01154533          	xor	a0,a0,a7
   14dfe:	0105c5b3          	xor	a1,a1,a6
   14e02:	ff078413          	addi	s0,a5,-16
   14e06:	00f43fb3          	sltu	t6,s0,a5
   14e0a:	01355393          	srli	t2,a0,0x13
   14e0e:	00d59793          	slli	a5,a1,0xd
   14e12:	001e7e33          	and	t3,t3,ra
   14e16:	0077e3b3          	or	t2,a5,t2
   14e1a:	00d51093          	slli	ra,a0,0xd
   14e1e:	0135d793          	srli	a5,a1,0x13
   14e22:	00f0e0b3          	or	ra,ra,a5
   14e26:	01c55b13          	srli	s6,a0,0x1c
   14e2a:	00459793          	slli	a5,a1,0x4
   14e2e:	0167eb33          	or	s6,a5,s6
   14e32:	01c5da13          	srli	s4,a1,0x1c
   14e36:	00451793          	slli	a5,a0,0x4
   14e3a:	01de4e33          	xor	t3,t3,t4
   14e3e:	0147ea33          	or	s4,a5,s4
   14e42:	00361293          	slli	t0,a2,0x3
   14e46:	01d75793          	srli	a5,a4,0x1d
   14e4a:	00de4ab3          	xor	s5,t3,a3
   14e4e:	fff6cc93          	not	s9,a3
   14e52:	0057e2b3          	or	t0,a5,t0
   14e56:	00371693          	slli	a3,a4,0x3
   14e5a:	01d65793          	srli	a5,a2,0x1d
   14e5e:	d422                	sw	s0,40(sp)
   14e60:	8edd                	or	a3,a3,a5
   14e62:	01961413          	slli	s0,a2,0x19
   14e66:	00775793          	srli	a5,a4,0x7
   14e6a:	8fc1                	or	a5,a5,s0
   14e6c:	d03e                	sw	a5,32(sp)
   14e6e:	01971413          	slli	s0,a4,0x19
   14e72:	00765793          	srli	a5,a2,0x7
   14e76:	8fc1                	or	a5,a5,s0
   14e78:	ca7e                	sw	t6,20(sp)
   14e7a:	01fc9413          	slli	s0,s9,0x1f
   14e7e:	001c5313          	srli	t1,s8,0x1
   14e82:	ce3e                	sw	a5,28(sp)
   14e84:	001cdf93          	srli	t6,s9,0x1
   14e88:	00646333          	or	t1,s0,t1
   14e8c:	01ac1b93          	slli	s7,s8,0x1a
   14e90:	006cd413          	srli	s0,s9,0x6
   14e94:	01fc1793          	slli	a5,s8,0x1f
   14e98:	008bebb3          	or	s7,s7,s0
   14e9c:	01f7e7b3          	or	a5,a5,t6
   14ea0:	01ac9413          	slli	s0,s9,0x1a
   14ea4:	006c5f93          	srli	t6,s8,0x6
   14ea8:	01f46433          	or	s0,s0,t6
   14eac:	00aade13          	srli	t3,s5,0xa
   14eb0:	016d9f93          	slli	t6,s11,0x16
   14eb4:	01cfee33          	or	t3,t6,t3
   14eb8:	0163c3b3          	xor	t2,t2,s6
   14ebc:	016a9f93          	slli	t6,s5,0x16
   14ec0:	4b72                	lw	s6,28(sp)
   14ec2:	00adde93          	srli	t4,s11,0xa
   14ec6:	01dfeeb3          	or	t4,t6,t4
   14eca:	00fd9993          	slli	s3,s11,0xf
   14ece:	011adf93          	srli	t6,s5,0x11
   14ed2:	01f9e9b3          	or	s3,s3,t6
   14ed6:	011dd913          	srli	s2,s11,0x11
   14eda:	00fa9f93          	slli	t6,s5,0xf
   14ede:	d222                	sw	s0,36(sp)
   14ee0:	012fe933          	or	s2,t6,s2
   14ee4:	0078d413          	srli	s0,a7,0x7
   14ee8:	0166c6b3          	xor	a3,a3,s6
   14eec:	01981f93          	slli	t6,a6,0x19
   14ef0:	008fefb3          	or	t6,t6,s0
   14ef4:	00785f13          	srli	t5,a6,0x7
   14ef8:	01989413          	slli	s0,a7,0x19
   14efc:	8eb9                	xor	a3,a3,a4
   14efe:	4732                	lw	a4,12(sp)
   14f00:	01781493          	slli	s1,a6,0x17
   14f04:	01e46f33          	or	t5,s0,t5
   14f08:	0098d413          	srli	s0,a7,0x9
   14f0c:	8c45                	or	s0,s0,s1
   14f0e:	0140c0b3          	xor	ra,ra,s4
   14f12:	01789d13          	slli	s10,a7,0x17
   14f16:	5a02                	lw	s4,32(sp)
   14f18:	00985493          	srli	s1,a6,0x9
   14f1c:	01a4e4b3          	or	s1,s1,s10
   14f20:	0741                	addi	a4,a4,16
   14f22:	4d62                	lw	s10,24(sp)
   14f24:	009fcfb3          	xor	t6,t6,s1
   14f28:	c63a                	sw	a4,12(sp)
   14f2a:	44d2                	lw	s1,20(sp)
   14f2c:	4742                	lw	a4,16(sp)
   14f2e:	0142c2b3          	xor	t0,t0,s4
   14f32:	008f4f33          	xor	t5,t5,s0
   14f36:	5a12                	lw	s4,36(sp)
   14f38:	5422                	lw	s0,40(sp)
   14f3a:	1d7d                	addi	s10,s10,-1
   14f3c:	94ea                	add	s1,s1,s10
   14f3e:	0741                	addi	a4,a4,16
   14f40:	0177c7b3          	xor	a5,a5,s7
   14f44:	01434333          	xor	t1,t1,s4
   14f48:	013e4e33          	xor	t3,t3,s3
   14f4c:	012eceb3          	xor	t4,t4,s2
   14f50:	cc26                	sw	s1,24(sp)
   14f52:	c83a                	sw	a4,16(sp)
   14f54:	ca22                	sw	s0,20(sp)
   14f56:	00b0ca33          	xor	s4,ra,a1
   14f5a:	00c2c633          	xor	a2,t0,a2
   14f5e:	015e49b3          	xor	s3,t3,s5
   14f62:	00a3cb33          	xor	s6,t2,a0
   14f66:	0197c7b3          	xor	a5,a5,s9
   14f6a:	018340b3          	xor	ra,t1,s8
   14f6e:	01becbb3          	xor	s7,t4,s11
   14f72:	011fce33          	xor	t3,t6,a7
   14f76:	010f42b3          	xor	t0,t5,a6
   14f7a:	c099                	beqz	s1,14f80 <crypto_aead_encrypt+0x2482>
   14f7c:	f4bfe06f          	j	13ec6 <crypto_aead_encrypt+0x13c8>
   14f80:	45bd                	li	a1,15
   14f82:	0085f463          	bgeu	a1,s0,14f8a <crypto_aead_encrypt+0x248c>
   14f86:	f41fe06f          	j	13ec6 <crypto_aead_encrypt+0x13c8>
   14f8a:	54d2                	lw	s1,52(sp)
   14f8c:	5cb2                	lw	s9,44(sp)
   14f8e:	5c42                	lw	s8,48(sp)
   14f90:	ff048713          	addi	a4,s1,-16
   14f94:	9b41                	andi	a4,a4,-16
   14f96:	5462                	lw	s0,56(sp)
   14f98:	5af2                	lw	s5,60(sp)
   14f9a:	4d06                	lw	s10,64(sp)
   14f9c:	4d96                	lw	s11,68(sp)
   14f9e:	0741                	addi	a4,a4,16
   14fa0:	9c3a                	add	s8,s8,a4
   14fa2:	9cba                	add	s9,s9,a4
   14fa4:	88bd                	andi	s1,s1,15
   14fa6:	d0b6                	sw	a3,96(sp)
   14fa8:	d2b2                	sw	a2,100(sp)
   14faa:	dcf2                	sw	t3,120(sp)
   14fac:	de96                	sw	t0,124(sp)
   14fae:	471d                	li	a4,7
   14fb0:	0a976e63          	bltu	a4,s1,1506c <crypto_aead_encrypt+0x256e>
   14fb4:	8966                	mv	s2,s9
   14fb6:	c8c1                	beqz	s1,15046 <crypto_aead_encrypt+0x2548>
   14fb8:	009c0e33          	add	t3,s8,s1
   14fbc:	03800713          	li	a4,56
   14fc0:	4601                	li	a2,0
   14fc2:	4581                	li	a1,0
   14fc4:	437d                	li	t1,31
   14fc6:	a819                	j	14fdc <crypto_aead_encrypt+0x24de>
   14fc8:	4801                	li	a6,0
   14fca:	00a696b3          	sll	a3,a3,a0
   14fce:	0c05                	addi	s8,s8,1
   14fd0:	01066633          	or	a2,a2,a6
   14fd4:	8dd5                	or	a1,a1,a3
   14fd6:	1761                	addi	a4,a4,-8
   14fd8:	038e0763          	beq	t3,s8,15006 <crypto_aead_encrypt+0x2508>
   14fdc:	fe070513          	addi	a0,a4,-32
   14fe0:	000c4683          	lbu	a3,0(s8)
   14fe4:	40e308b3          	sub	a7,t1,a4
   14fe8:	fe0550e3          	bgez	a0,14fc8 <crypto_aead_encrypt+0x24ca>
   14fec:	0016d513          	srli	a0,a3,0x1
   14ff0:	00e69833          	sll	a6,a3,a4
   14ff4:	0c05                	addi	s8,s8,1
   14ff6:	011556b3          	srl	a3,a0,a7
   14ffa:	01066633          	or	a2,a2,a6
   14ffe:	8dd5                	or	a1,a1,a3
   15000:	1761                	addi	a4,a4,-8
   15002:	fd8e1de3          	bne	t3,s8,14fdc <crypto_aead_encrypt+0x24de>
   15006:	00ba4533          	xor	a0,s4,a1
   1500a:	00cb4633          	xor	a2,s6,a2
   1500e:	8a2a                	mv	s4,a0
   15010:	8b32                	mv	s6,a2
   15012:	009c8933          	add	s2,s9,s1
   15016:	03800693          	li	a3,56
   1501a:	00151313          	slli	t1,a0,0x1
   1501e:	48fd                	li	a7,31
   15020:	40d88733          	sub	a4,a7,a3
   15024:	00d655b3          	srl	a1,a2,a3
   15028:	00e31733          	sll	a4,t1,a4
   1502c:	fe068813          	addi	a6,a3,-32
   15030:	8dd9                	or	a1,a1,a4
   15032:	00084463          	bltz	a6,1503a <crypto_aead_encrypt+0x253c>
   15036:	010555b3          	srl	a1,a0,a6
   1503a:	00bc8023          	sb	a1,0(s9)
   1503e:	0c85                	addi	s9,s9,1
   15040:	16e1                	addi	a3,a3,-8
   15042:	fd991fe3          	bne	s2,s9,15020 <crypto_aead_encrypt+0x2522>
   15046:	471d                	li	a4,7
   15048:	8f05                	sub	a4,a4,s1
   1504a:	070e                	slli	a4,a4,0x3
   1504c:	fe070693          	addi	a3,a4,-32
   15050:	2e06ce63          	bltz	a3,1534c <crypto_aead_encrypt+0x284e>
   15054:	08000713          	li	a4,128
   15058:	00d716b3          	sll	a3,a4,a3
   1505c:	4601                	li	a2,0
   1505e:	01664633          	xor	a2,a2,s6
   15062:	0146c733          	xor	a4,a3,s4
   15066:	ccb2                	sw	a2,88(sp)
   15068:	ceba                	sw	a4,92(sp)
   1506a:	aaa9                	j	151c4 <crypto_aead_encrypt+0x26c6>
   1506c:	8662                	mv	a2,s8
   1506e:	03800713          	li	a4,56
   15072:	4581                	li	a1,0
   15074:	4501                	li	a0,0
   15076:	4efd                	li	t4,31
   15078:	5e61                	li	t3,-8
   1507a:	a819                	j	15090 <crypto_aead_encrypt+0x2592>
   1507c:	4881                	li	a7,0
   1507e:	010696b3          	sll	a3,a3,a6
   15082:	1761                	addi	a4,a4,-8
   15084:	0115e5b3          	or	a1,a1,a7
   15088:	8d55                	or	a0,a0,a3
   1508a:	0605                	addi	a2,a2,1
   1508c:	03c70763          	beq	a4,t3,150ba <crypto_aead_encrypt+0x25bc>
   15090:	fe070813          	addi	a6,a4,-32
   15094:	00064683          	lbu	a3,0(a2)
   15098:	40ee8333          	sub	t1,t4,a4
   1509c:	fe0850e3          	bgez	a6,1507c <crypto_aead_encrypt+0x257e>
   150a0:	0016d813          	srli	a6,a3,0x1
   150a4:	00e698b3          	sll	a7,a3,a4
   150a8:	006856b3          	srl	a3,a6,t1
   150ac:	1761                	addi	a4,a4,-8
   150ae:	0115e5b3          	or	a1,a1,a7
   150b2:	8d55                	or	a0,a0,a3
   150b4:	0605                	addi	a2,a2,1
   150b6:	fdc71de3          	bne	a4,t3,15090 <crypto_aead_encrypt+0x2592>
   150ba:	0165c5b3          	xor	a1,a1,s6
   150be:	01454533          	xor	a0,a0,s4
   150c2:	ccae                	sw	a1,88(sp)
   150c4:	ceaa                	sw	a0,92(sp)
   150c6:	ff848313          	addi	t1,s1,-8
   150ca:	2e030563          	beqz	t1,153b4 <crypto_aead_encrypt+0x28b6>
   150ce:	008c0613          	addi	a2,s8,8
   150d2:	009c02b3          	add	t0,s8,s1
   150d6:	03800713          	li	a4,56
   150da:	4e01                	li	t3,0
   150dc:	4e81                	li	t4,0
   150de:	4ffd                	li	t6,31
   150e0:	a821                	j	150f8 <crypto_aead_encrypt+0x25fa>
   150e2:	4881                	li	a7,0
   150e4:	010696b3          	sll	a3,a3,a6
   150e8:	0605                	addi	a2,a2,1
   150ea:	011e6e33          	or	t3,t3,a7
   150ee:	00deeeb3          	or	t4,t4,a3
   150f2:	1761                	addi	a4,a4,-8
   150f4:	02c28863          	beq	t0,a2,15124 <crypto_aead_encrypt+0x2626>
   150f8:	fe070813          	addi	a6,a4,-32
   150fc:	00064683          	lbu	a3,0(a2)
   15100:	40ef8f33          	sub	t5,t6,a4
   15104:	fc085fe3          	bgez	a6,150e2 <crypto_aead_encrypt+0x25e4>
   15108:	0016d813          	srli	a6,a3,0x1
   1510c:	00e698b3          	sll	a7,a3,a4
   15110:	0605                	addi	a2,a2,1
   15112:	01e856b3          	srl	a3,a6,t5
   15116:	011e6e33          	or	t3,t3,a7
   1511a:	00deeeb3          	or	t4,t4,a3
   1511e:	1761                	addi	a4,a4,-8
   15120:	fcc29ce3          	bne	t0,a2,150f8 <crypto_aead_encrypt+0x25fa>
   15124:	5886                	lw	a7,96(sp)
   15126:	8866                	mv	a6,s9
   15128:	03800713          	li	a4,56
   1512c:	01c8c8b3          	xor	a7,a7,t3
   15130:	5e16                	lw	t3,100(sp)
   15132:	00151293          	slli	t0,a0,0x1
   15136:	4ffd                	li	t6,31
   15138:	01de4e33          	xor	t3,t3,t4
   1513c:	5f61                	li	t5,-8
   1513e:	40ef86b3          	sub	a3,t6,a4
   15142:	00e5d633          	srl	a2,a1,a4
   15146:	00d296b3          	sll	a3,t0,a3
   1514a:	fe070e93          	addi	t4,a4,-32
   1514e:	8e55                	or	a2,a2,a3
   15150:	000ec463          	bltz	t4,15158 <crypto_aead_encrypt+0x265a>
   15154:	01d55633          	srl	a2,a0,t4
   15158:	00c80023          	sb	a2,0(a6)
   1515c:	1761                	addi	a4,a4,-8
   1515e:	0805                	addi	a6,a6,1
   15160:	fde71fe3          	bne	a4,t5,1513e <crypto_aead_encrypt+0x2640>
   15164:	008c8613          	addi	a2,s9,8
   15168:	009c8933          	add	s2,s9,s1
   1516c:	03800693          	li	a3,56
   15170:	001e1e93          	slli	t4,t3,0x1
   15174:	487d                	li	a6,31
   15176:	02030563          	beqz	t1,151a0 <crypto_aead_encrypt+0x26a2>
   1517a:	40d80733          	sub	a4,a6,a3
   1517e:	00d8d5b3          	srl	a1,a7,a3
   15182:	00ee9733          	sll	a4,t4,a4
   15186:	fe068513          	addi	a0,a3,-32
   1518a:	8dd9                	or	a1,a1,a4
   1518c:	00054463          	bltz	a0,15194 <crypto_aead_encrypt+0x2696>
   15190:	00ae55b3          	srl	a1,t3,a0
   15194:	00b60023          	sb	a1,0(a2)
   15198:	0605                	addi	a2,a2,1
   1519a:	16e1                	addi	a3,a3,-8
   1519c:	fcc91fe3          	bne	s2,a2,1517a <crypto_aead_encrypt+0x267c>
   151a0:	473d                	li	a4,15
   151a2:	8f05                	sub	a4,a4,s1
   151a4:	070e                	slli	a4,a4,0x3
   151a6:	fe070693          	addi	a3,a4,-32
   151aa:	1a06cc63          	bltz	a3,15362 <crypto_aead_encrypt+0x2864>
   151ae:	08000713          	li	a4,128
   151b2:	00d716b3          	sll	a3,a4,a3
   151b6:	4601                	li	a2,0
   151b8:	01164633          	xor	a2,a2,a7
   151bc:	01c6c733          	xor	a4,a3,t3
