
sim_O3/my_program:     file format elf32-littleriscv


Disassembly of section .text:

00010094 <exit>:
   10094:	1141                	addi	sp,sp,-16
   10096:	4581                	li	a1,0
   10098:	c422                	sw	s0,8(sp)
   1009a:	c606                	sw	ra,12(sp)
   1009c:	842a                	mv	s0,a0
   1009e:	2fa040ef          	jal	14398 <__call_exitprocs>
   100a2:	f201a783          	lw	a5,-224(gp) # 1f8c0 <__stdio_exit_handler>
   100a6:	c391                	beqz	a5,100aa <exit+0x16>
   100a8:	9782                	jalr	a5
   100aa:	8522                	mv	a0,s0
   100ac:	1aa0b0ef          	jal	1b256 <_exit>

000100b0 <main>:
   100b0:	67f9                	lui	a5,0x1e
   100b2:	92c78793          	addi	a5,a5,-1748 # 1d92c <__clzsi2+0x74>
   100b6:	0007a883          	lw	a7,0(a5)
   100ba:	0047a803          	lw	a6,4(a5)
   100be:	4798                	lw	a4,8(a5)
   100c0:	00c7d783          	lhu	a5,12(a5)
   100c4:	715d                	addi	sp,sp,-80
   100c6:	4635                	li	a2,13
   100c8:	4681                	li	a3,0
   100ca:	858a                	mv	a1,sp
   100cc:	0808                	addi	a0,sp,16
   100ce:	c686                	sw	ra,76(sp)
   100d0:	de4e                	sw	s3,60(sp)
   100d2:	c046                	sw	a7,0(sp)
   100d4:	c242                	sw	a6,4(sp)
   100d6:	c43a                	sw	a4,8(sp)
   100d8:	00f11623          	sh	a5,12(sp)
   100dc:	2211                	jal	101e0 <crypto_hash>
   100de:	e921                	bnez	a0,1012e <main+0x7e>
   100e0:	89aa                	mv	s3,a0
   100e2:	6579                	lui	a0,0x1e
   100e4:	858a                	mv	a1,sp
   100e6:	91050513          	addi	a0,a0,-1776 # 1d910 <__clzsi2+0x58>
   100ea:	c4a2                	sw	s0,72(sp)
   100ec:	c2a6                	sw	s1,68(sp)
   100ee:	c0ca                	sw	s2,64(sp)
   100f0:	711030ef          	jal	14000 <printf>
   100f4:	6579                	lui	a0,0x1e
   100f6:	91c50513          	addi	a0,a0,-1764 # 1d91c <__clzsi2+0x64>
   100fa:	707030ef          	jal	14000 <printf>
   100fe:	0800                	addi	s0,sp,16
   10100:	03010913          	addi	s2,sp,48
   10104:	64f9                	lui	s1,0x1e
   10106:	00044583          	lbu	a1,0(s0)
   1010a:	92448513          	addi	a0,s1,-1756 # 1d924 <__clzsi2+0x6c>
   1010e:	0405                	addi	s0,s0,1
   10110:	6f1030ef          	jal	14000 <printf>
   10114:	ff2419e3          	bne	s0,s2,10106 <main+0x56>
   10118:	4529                	li	a0,10
   1011a:	719030ef          	jal	14032 <putchar>
   1011e:	4426                	lw	s0,72(sp)
   10120:	4496                	lw	s1,68(sp)
   10122:	4906                	lw	s2,64(sp)
   10124:	40b6                	lw	ra,76(sp)
   10126:	854e                	mv	a0,s3
   10128:	59f2                	lw	s3,60(sp)
   1012a:	6161                	addi	sp,sp,80
   1012c:	8082                	ret
   1012e:	f141a783          	lw	a5,-236(gp) # 1f8b4 <_impure_ptr>
   10132:	6579                	lui	a0,0x1e
   10134:	4655                	li	a2,21
   10136:	47d4                	lw	a3,12(a5)
   10138:	4585                	li	a1,1
   1013a:	8f850513          	addi	a0,a0,-1800 # 1d8f8 <__clzsi2+0x40>
   1013e:	609030ef          	jal	13f46 <fwrite>
   10142:	4985                	li	s3,1
   10144:	b7c5                	j	10124 <main+0x74>

00010146 <register_fini>:
   10146:	00000793          	li	a5,0
   1014a:	c791                	beqz	a5,10156 <register_fini+0x10>
   1014c:	655d                	lui	a0,0x17
   1014e:	37650513          	addi	a0,a0,886 # 17376 <__libc_fini_array>
   10152:	3140406f          	j	14466 <atexit>
   10156:	8082                	ret

00010158 <_start>:
   10158:	00010197          	auipc	gp,0x10
   1015c:	84818193          	addi	gp,gp,-1976 # 1f9a0 <__global_pointer$>
   10160:	f2018513          	addi	a0,gp,-224 # 1f8c0 <__stdio_exit_handler>
   10164:	24c18613          	addi	a2,gp,588 # 1fbec <__BSS_END__>
   10168:	8e09                	sub	a2,a2,a0
   1016a:	4581                	li	a1,0
   1016c:	184040ef          	jal	142f0 <memset>
   10170:	00004517          	auipc	a0,0x4
   10174:	2f650513          	addi	a0,a0,758 # 14466 <atexit>
   10178:	c519                	beqz	a0,10186 <_start+0x2e>
   1017a:	00007517          	auipc	a0,0x7
   1017e:	1fc50513          	addi	a0,a0,508 # 17376 <__libc_fini_array>
   10182:	2e4040ef          	jal	14466 <atexit>
   10186:	0f8040ef          	jal	1427e <__libc_init_array>
   1018a:	4502                	lw	a0,0(sp)
   1018c:	004c                	addi	a1,sp,4
   1018e:	4601                	li	a2,0
   10190:	3705                	jal	100b0 <main>
   10192:	b709                	j	10094 <exit>

00010194 <__do_global_dtors_aux>:
   10194:	1141                	addi	sp,sp,-16
   10196:	c422                	sw	s0,8(sp)
   10198:	f401c783          	lbu	a5,-192(gp) # 1f8e0 <completed.1>
   1019c:	c606                	sw	ra,12(sp)
   1019e:	ef99                	bnez	a5,101bc <__do_global_dtors_aux+0x28>
   101a0:	00000793          	li	a5,0
   101a4:	cb89                	beqz	a5,101b6 <__do_global_dtors_aux+0x22>
   101a6:	0001f537          	lui	a0,0x1f
   101aa:	19050513          	addi	a0,a0,400 # 1f190 <__EH_FRAME_BEGIN__>
   101ae:	00000097          	auipc	ra,0x0
   101b2:	000000e7          	jalr	zero # 0 <exit-0x10094>
   101b6:	4785                	li	a5,1
   101b8:	f4f18023          	sb	a5,-192(gp) # 1f8e0 <completed.1>
   101bc:	40b2                	lw	ra,12(sp)
   101be:	4422                	lw	s0,8(sp)
   101c0:	0141                	addi	sp,sp,16
   101c2:	8082                	ret

000101c4 <frame_dummy>:
   101c4:	00000793          	li	a5,0
   101c8:	cb99                	beqz	a5,101de <frame_dummy+0x1a>
   101ca:	0001f537          	lui	a0,0x1f
   101ce:	f4418593          	addi	a1,gp,-188 # 1f8e4 <object.0>
   101d2:	19050513          	addi	a0,a0,400 # 1f190 <__EH_FRAME_BEGIN__>
   101d6:	00000317          	auipc	t1,0x0
   101da:	00000067          	jr	zero # 0 <exit-0x10094>
   101de:	8082                	ret

000101e0 <crypto_hash>:
   101e0:	7159                	addi	sp,sp,-112
   101e2:	d6a2                	sw	s0,108(sp)
   101e4:	d4a6                	sw	s1,104(sp)
   101e6:	d2ca                	sw	s2,100(sp)
   101e8:	d0ce                	sw	s3,96(sp)
   101ea:	ced2                	sw	s4,92(sp)
   101ec:	ccd6                	sw	s5,88(sp)
   101ee:	cada                	sw	s6,84(sp)
   101f0:	c8de                	sw	s7,80(sp)
   101f2:	c6e2                	sw	s8,76(sp)
   101f4:	c4e6                	sw	s9,72(sp)
   101f6:	c2ea                	sw	s10,68(sp)
   101f8:	c0ee                	sw	s11,64(sp)
   101fa:	de2a                	sw	a0,60(sp)
   101fc:	d62e                	sw	a1,44(sp)
   101fe:	d432                	sw	a2,40(sp)
   10200:	8836                	mv	a6,a3
   10202:	e299                	bnez	a3,10208 <crypto_hash+0x28>
   10204:	1110306f          	j	13b14 <crypto_hash+0x3934>
   10208:	5b22                	lw	s6,40(sp)
   1020a:	5bb2                	lw	s7,44(sp)
   1020c:	23be9937          	lui	s2,0x23be9
   10210:	a13c49b7          	lui	s3,0xa13c4
   10214:	7f5233b7          	lui	t2,0x7f523
   10218:	d6f6a437          	lui	s0,0xd6f6a
   1021c:	6c764fb7          	lui	t6,0x6c764
   10220:	2ec8e4b7          	lui	s1,0x2ec8e
   10224:	c0ae0f37          	lui	t5,0xc0ae0
   10228:	738ec7b7          	lui	a5,0x738ec
   1022c:	fc6536b7          	lui	a3,0xfc653
   10230:	01470737          	lui	a4,0x1470
   10234:	c442                	sw	a6,8(sp)
   10236:	d8790913          	addi	s2,s2,-633 # 23be8d87 <__BSS_END__+0x23bc919b>
   1023a:	2a298993          	addi	s3,s3,674 # a13c42a2 <__BSS_END__+0xa13a46b6>
   1023e:	77d38393          	addi	t2,t2,1917 # 7f52377d <__BSS_END__+0x7f503b91>
   10242:	54d40413          	addi	s0,s0,1357 # d6f6a54d <__BSS_END__+0xd6f4a961>
   10246:	84cf8f93          	addi	t6,t6,-1972 # 6c76384c <__BSS_END__+0x6c743c60>
   1024a:	32948493          	addi	s1,s1,809 # 2ec8e329 <__BSS_END__+0x2ec6e73d>
   1024e:	fa7f0f13          	addi	t5,t5,-89 # c0adffa7 <__BSS_END__+0xc0ac03bb>
   10252:	38a78793          	addi	a5,a5,906 # 738ec38a <__BSS_END__+0x738cc79e>
   10256:	8a668693          	addi	a3,a3,-1882 # fc6528a6 <__BSS_END__+0xfc632cba>
   1025a:	19470713          	addi	a4,a4,404 # 1470194 <__BSS_END__+0x14505a8>
   1025e:	c05e                	sw	s7,0(sp)
   10260:	c25a                	sw	s6,4(sp)
   10262:	4302                	lw	t1,0(sp)
   10264:	00034603          	lbu	a2,0(t1) # 101d6 <frame_dummy+0x12>
   10268:	00134e83          	lbu	t4,1(t1)
   1026c:	00434e03          	lbu	t3,4(t1)
   10270:	00234883          	lbu	a7,2(t1)
   10274:	00734583          	lbu	a1,7(t1)
   10278:	00534803          	lbu	a6,5(t1)
   1027c:	00634503          	lbu	a0,6(t1)
   10280:	0ec2                	slli	t4,t4,0x10
   10282:	00334303          	lbu	t1,3(t1)
   10286:	0662                	slli	a2,a2,0x18
   10288:	0e62                	slli	t3,t3,0x18
   1028a:	01d66633          	or	a2,a2,t4
   1028e:	08a2                	slli	a7,a7,0x8
   10290:	01c5e5b3          	or	a1,a1,t3
   10294:	0842                	slli	a6,a6,0x10
   10296:	01166633          	or	a2,a2,a7
   1029a:	0105e5b3          	or	a1,a1,a6
   1029e:	00666633          	or	a2,a2,t1
   102a2:	0522                	slli	a0,a0,0x8
   102a4:	8d4d                	or	a0,a0,a1
   102a6:	01364633          	xor	a2,a2,s3
   102aa:	0097c333          	xor	t1,a5,s1
   102ae:	013449b3          	xor	s3,s0,s3
   102b2:	8e39                	xor	a2,a2,a4
   102b4:	01ff45b3          	xor	a1,t5,t6
   102b8:	01254533          	xor	a0,a0,s2
   102bc:	fff44713          	not	a4,s0
   102c0:	0123c8b3          	xor	a7,t2,s2
   102c4:	00d54833          	xor	a6,a0,a3
   102c8:	0b45c913          	xori	s2,a1,180
   102cc:	01377733          	and	a4,a4,s3
   102d0:	f4b5cf93          	xori	t6,a1,-181
   102d4:	fff3c513          	not	a0,t2
   102d8:	ffff4e93          	not	t4,t5
   102dc:	fff7c693          	not	a3,a5
   102e0:	fff34e13          	not	t3,t1
   102e4:	006745b3          	xor	a1,a4,t1
   102e8:	01157533          	and	a0,a0,a7
   102ec:	007ff733          	and	a4,t6,t2
   102f0:	fff84493          	not	s1,a6
   102f4:	008e7e33          	and	t3,t3,s0
   102f8:	012efeb3          	and	t4,t4,s2
   102fc:	0066f6b3          	and	a3,a3,t1
   10300:	010eceb3          	xor	t4,t4,a6
   10304:	8eb1                	xor	a3,a3,a2
   10306:	01254533          	xor	a0,a0,s2
   1030a:	fff9cf93          	not	t6,s3
   1030e:	fff64293          	not	t0,a2
   10312:	01e4f4b3          	and	s1,s1,t5
   10316:	fff8c913          	not	s2,a7
   1031a:	01e74733          	xor	a4,a4,t5
   1031e:	00fe4e33          	xor	t3,t3,a5
   10322:	0114c4b3          	xor	s1,s1,a7
   10326:	01d74733          	xor	a4,a4,t4
   1032a:	00de4e33          	xor	t3,t3,a3
   1032e:	00a3c8b3          	xor	a7,t2,a0
   10332:	00b44333          	xor	t1,s0,a1
   10336:	00f2f2b3          	and	t0,t0,a5
   1033a:	01097933          	and	s2,s2,a6
   1033e:	00cff7b3          	and	a5,t6,a2
   10342:	0067c3b3          	xor	t2,a5,t1
   10346:	01194933          	xor	s2,s2,a7
   1034a:	003e1793          	slli	a5,t3,0x3
   1034e:	01d75893          	srli	a7,a4,0x1d
   10352:	00f8e8b3          	or	a7,a7,a5
   10356:	01de5d93          	srli	s11,t3,0x1d
   1035a:	00371793          	slli	a5,a4,0x3
   1035e:	00fdedb3          	or	s11,s11,a5
   10362:	00775d13          	srli	s10,a4,0x7
   10366:	019e1793          	slli	a5,t3,0x19
   1036a:	007e5f93          	srli	t6,t3,0x7
   1036e:	00fd6d33          	or	s10,s10,a5
   10372:	01971793          	slli	a5,a4,0x19
   10376:	00a95f13          	srli	t5,s2,0xa
   1037a:	00ffefb3          	or	t6,t6,a5
   1037e:	01639793          	slli	a5,t2,0x16
   10382:	009ecab3          	xor	s5,t4,s1
   10386:	01e7ef33          	or	t5,a5,t5
   1038a:	00a3de93          	srli	t4,t2,0xa
   1038e:	01691793          	slli	a5,s2,0x16
   10392:	01195c93          	srli	s9,s2,0x11
   10396:	01d7eeb3          	or	t4,a5,t4
   1039a:	00f39793          	slli	a5,t2,0xf
   1039e:	0132c2b3          	xor	t0,t0,s3
   103a2:	0197ecb3          	or	s9,a5,s9
   103a6:	0113dc13          	srli	s8,t2,0x11
   103aa:	00f91793          	slli	a5,s2,0xf
   103ae:	0187ec33          	or	s8,a5,s8
   103b2:	0074d613          	srli	a2,s1,0x7
   103b6:	01929793          	slli	a5,t0,0x19
   103ba:	0072db13          	srli	s6,t0,0x7
   103be:	8e5d                	or	a2,a2,a5
   103c0:	01949793          	slli	a5,s1,0x19
   103c4:	0056ca33          	xor	s4,a3,t0
   103c8:	0167eb33          	or	s6,a5,s6
   103cc:	01729693          	slli	a3,t0,0x17
   103d0:	0094d793          	srli	a5,s1,0x9
   103d4:	fff54513          	not	a0,a0
   103d8:	fff5c593          	not	a1,a1
   103dc:	01749b93          	slli	s7,s1,0x17
   103e0:	8edd                	or	a3,a3,a5
   103e2:	0092d793          	srli	a5,t0,0x9
   103e6:	c646                	sw	a7,12(sp)
   103e8:	0177ebb3          	or	s7,a5,s7
   103ec:	00155893          	srli	a7,a0,0x1
   103f0:	01f59793          	slli	a5,a1,0x1f
   103f4:	0117e7b3          	or	a5,a5,a7
   103f8:	c83e                	sw	a5,16(sp)
   103fa:	0015d893          	srli	a7,a1,0x1
   103fe:	01f51793          	slli	a5,a0,0x1f
   10402:	0117e7b3          	or	a5,a5,a7
   10406:	ca3e                	sw	a5,20(sp)
   10408:	00655893          	srli	a7,a0,0x6
   1040c:	01a59793          	slli	a5,a1,0x1a
   10410:	0117e7b3          	or	a5,a5,a7
   10414:	0065d813          	srli	a6,a1,0x6
   10418:	01a51893          	slli	a7,a0,0x1a
   1041c:	013ad993          	srli	s3,s5,0x13
   10420:	0108e833          	or	a6,a7,a6
   10424:	00da1893          	slli	a7,s4,0xd
   10428:	0138e9b3          	or	s3,a7,s3
   1042c:	013a5413          	srli	s0,s4,0x13
   10430:	00da9893          	slli	a7,s5,0xd
   10434:	0088e433          	or	s0,a7,s0
   10438:	01cad313          	srli	t1,s5,0x1c
   1043c:	004a1893          	slli	a7,s4,0x4
   10440:	cc3e                	sw	a5,24(sp)
   10442:	0068e333          	or	t1,a7,t1
   10446:	01ca5793          	srli	a5,s4,0x1c
   1044a:	004a9893          	slli	a7,s5,0x4
   1044e:	00f8e8b3          	or	a7,a7,a5
   10452:	00db46b3          	xor	a3,s6,a3
   10456:	47e2                	lw	a5,24(sp)
   10458:	4b42                	lw	s6,16(sp)
   1045a:	01fdcfb3          	xor	t6,s11,t6
   1045e:	4db2                	lw	s11,12(sp)
   10460:	00fb47b3          	xor	a5,s6,a5
   10464:	4b52                	lw	s6,20(sp)
   10466:	01adcd33          	xor	s10,s11,s10
   1046a:	01764633          	xor	a2,a2,s7
   1046e:	010b4833          	xor	a6,s6,a6
   10472:	0069c333          	xor	t1,s3,t1
   10476:	00efcfb3          	xor	t6,t6,a4
   1047a:	01cd4d33          	xor	s10,s10,t3
   1047e:	8e25                	xor	a2,a2,s1
   10480:	019f4f33          	xor	t5,t5,s9
   10484:	018eceb3          	xor	t4,t4,s8
   10488:	011448b3          	xor	a7,s0,a7
   1048c:	8fa9                	xor	a5,a5,a0
   1048e:	00b84833          	xor	a6,a6,a1
   10492:	01534333          	xor	t1,t1,s5
   10496:	012f4f33          	xor	t5,t5,s2
   1049a:	007eceb3          	xor	t4,t4,t2
   1049e:	01a84833          	xor	a6,a6,s10
   104a2:	00c34333          	xor	t1,t1,a2
   104a6:	0056c6b3          	xor	a3,a3,t0
   104aa:	01f7c7b3          	xor	a5,a5,t6
   104ae:	0148c8b3          	xor	a7,a7,s4
   104b2:	00cf4633          	xor	a2,t5,a2
   104b6:	00d8c8b3          	xor	a7,a7,a3
   104ba:	0a57c993          	xori	s3,a5,165
   104be:	00dec6b3          	xor	a3,t4,a3
   104c2:	ffffc913          	not	s2,t6
   104c6:	fffd4713          	not	a4,s10
   104ca:	fff34493          	not	s1,t1
   104ce:	fff84393          	not	t2,a6
   104d2:	f5a7c793          	xori	a5,a5,-166
   104d6:	01397933          	and	s2,s2,s3
   104da:	01077733          	and	a4,a4,a6
   104de:	01e7f7b3          	and	a5,a5,t5
   104e2:	01d3f3b3          	and	t2,t2,t4
   104e6:	ffff4513          	not	a0,t5
   104ea:	fff8c413          	not	s0,a7
   104ee:	fff64293          	not	t0,a2
   104f2:	fff6ce13          	not	t3,a3
   104f6:	01f4f4b3          	and	s1,s1,t6
   104fa:	8cb1                	xor	s1,s1,a2
   104fc:	0062f2b3          	and	t0,t0,t1
   10500:	fffec593          	not	a1,t4
   10504:	00694333          	xor	t1,s2,t1
   10508:	8d71                	and	a0,a0,a2
   1050a:	01a47433          	and	s0,s0,s10
   1050e:	01a3c633          	xor	a2,t2,s10
   10512:	011e7e33          	and	t3,t3,a7
   10516:	011748b3          	xor	a7,a4,a7
   1051a:	01f7c733          	xor	a4,a5,t6
   1051e:	8c35                	xor	s0,s0,a3
   10520:	00674733          	xor	a4,a4,t1
   10524:	8df5                	and	a1,a1,a3
   10526:	01e2c6b3          	xor	a3,t0,t5
   1052a:	01164f33          	xor	t5,a2,a7
   1052e:	0088ca33          	xor	s4,a7,s0
   10532:	003f1793          	slli	a5,t5,0x3
   10536:	01d75893          	srli	a7,a4,0x1d
   1053a:	00f8e8b3          	or	a7,a7,a5
   1053e:	01df5d93          	srli	s11,t5,0x1d
   10542:	00371793          	slli	a5,a4,0x3
   10546:	01354533          	xor	a0,a0,s3
   1054a:	0105c5b3          	xor	a1,a1,a6
   1054e:	00fdedb3          	or	s11,s11,a5
   10552:	01de4e33          	xor	t3,t3,t4
   10556:	019f1793          	slli	a5,t5,0x19
   1055a:	00775d13          	srli	s10,a4,0x7
   1055e:	00a6ceb3          	xor	t4,a3,a0
   10562:	00be4e33          	xor	t3,t3,a1
   10566:	007f5393          	srli	t2,t5,0x7
   1056a:	00fd6d33          	or	s10,s10,a5
   1056e:	01971793          	slli	a5,a4,0x19
   10572:	00aed293          	srli	t0,t4,0xa
   10576:	00f3e3b3          	or	t2,t2,a5
   1057a:	016e1793          	slli	a5,t3,0x16
   1057e:	00ae5f93          	srli	t6,t3,0xa
   10582:	0057e2b3          	or	t0,a5,t0
   10586:	016e9793          	slli	a5,t4,0x16
   1058a:	011edc93          	srli	s9,t4,0x11
   1058e:	01f7efb3          	or	t6,a5,t6
   10592:	00fe1793          	slli	a5,t3,0xf
   10596:	0197ecb3          	or	s9,a5,s9
   1059a:	011e5c13          	srli	s8,t3,0x11
   1059e:	00fe9793          	slli	a5,t4,0xf
   105a2:	0187ec33          	or	s8,a5,s8
   105a6:	0074d613          	srli	a2,s1,0x7
   105aa:	01941793          	slli	a5,s0,0x19
   105ae:	00745b13          	srli	s6,s0,0x7
   105b2:	8e5d                	or	a2,a2,a5
   105b4:	01949793          	slli	a5,s1,0x19
   105b8:	0167eb33          	or	s6,a5,s6
   105bc:	01741693          	slli	a3,s0,0x17
   105c0:	0094d793          	srli	a5,s1,0x9
   105c4:	fff54513          	not	a0,a0
   105c8:	fff5c593          	not	a1,a1
   105cc:	01749b93          	slli	s7,s1,0x17
   105d0:	8edd                	or	a3,a3,a5
   105d2:	00945793          	srli	a5,s0,0x9
   105d6:	c646                	sw	a7,12(sp)
   105d8:	0177ebb3          	or	s7,a5,s7
   105dc:	00155893          	srli	a7,a0,0x1
   105e0:	01f59793          	slli	a5,a1,0x1f
   105e4:	0117e7b3          	or	a5,a5,a7
   105e8:	c83e                	sw	a5,16(sp)
   105ea:	0015d893          	srli	a7,a1,0x1
   105ee:	01f51793          	slli	a5,a0,0x1f
   105f2:	0117e7b3          	or	a5,a5,a7
   105f6:	ca3e                	sw	a5,20(sp)
   105f8:	00655893          	srli	a7,a0,0x6
   105fc:	01a59793          	slli	a5,a1,0x1a
   10600:	00934ab3          	xor	s5,t1,s1
   10604:	0117e7b3          	or	a5,a5,a7
   10608:	0065d813          	srli	a6,a1,0x6
   1060c:	01a51893          	slli	a7,a0,0x1a
   10610:	013ad993          	srli	s3,s5,0x13
   10614:	0108e833          	or	a6,a7,a6
   10618:	00da1893          	slli	a7,s4,0xd
   1061c:	0138e9b3          	or	s3,a7,s3
   10620:	013a5913          	srli	s2,s4,0x13
   10624:	00da9893          	slli	a7,s5,0xd
   10628:	0128e933          	or	s2,a7,s2
   1062c:	01cad313          	srli	t1,s5,0x1c
   10630:	004a1893          	slli	a7,s4,0x4
   10634:	cc3e                	sw	a5,24(sp)
   10636:	0068e333          	or	t1,a7,t1
   1063a:	01ca5793          	srli	a5,s4,0x1c
   1063e:	004a9893          	slli	a7,s5,0x4
   10642:	00f8e8b3          	or	a7,a7,a5
   10646:	00db46b3          	xor	a3,s6,a3
   1064a:	47e2                	lw	a5,24(sp)
   1064c:	4b42                	lw	s6,16(sp)
   1064e:	007dc3b3          	xor	t2,s11,t2
   10652:	4db2                	lw	s11,12(sp)
   10654:	00fb47b3          	xor	a5,s6,a5
   10658:	4b52                	lw	s6,20(sp)
   1065a:	01adcd33          	xor	s10,s11,s10
   1065e:	01764633          	xor	a2,a2,s7
   10662:	010b4833          	xor	a6,s6,a6
   10666:	0069c333          	xor	t1,s3,t1
   1066a:	011948b3          	xor	a7,s2,a7
   1066e:	00e3c3b3          	xor	t2,t2,a4
   10672:	01ed4d33          	xor	s10,s10,t5
   10676:	8e25                	xor	a2,a2,s1
   10678:	8ea1                	xor	a3,a3,s0
   1067a:	00b84833          	xor	a6,a6,a1
   1067e:	0192c2b3          	xor	t0,t0,s9
   10682:	018fcfb3          	xor	t6,t6,s8
   10686:	8fa9                	xor	a5,a5,a0
   10688:	01534333          	xor	t1,t1,s5
   1068c:	0148c8b3          	xor	a7,a7,s4
   10690:	01d2c2b3          	xor	t0,t0,t4
   10694:	01cfcfb3          	xor	t6,t6,t3
   10698:	01a84733          	xor	a4,a6,s10
   1069c:	00c34333          	xor	t1,t1,a2
   106a0:	00d8c8b3          	xor	a7,a7,a3
   106a4:	0077c7b3          	xor	a5,a5,t2
   106a8:	00c2c533          	xor	a0,t0,a2
   106ac:	00dfc6b3          	xor	a3,t6,a3
   106b0:	0967c993          	xori	s3,a5,150
   106b4:	fff3c913          	not	s2,t2
   106b8:	fffd4493          	not	s1,s10
   106bc:	fff34f13          	not	t5,t1
   106c0:	fff8ce93          	not	t4,a7
   106c4:	fff74413          	not	s0,a4
   106c8:	01397933          	and	s2,s2,s3
   106cc:	8cf9                	and	s1,s1,a4
   106ce:	01f47433          	and	s0,s0,t6
   106d2:	ffffc613          	not	a2,t6
   106d6:	fff54e13          	not	t3,a0
   106da:	fff6c813          	not	a6,a3
   106de:	007f7f33          	and	t5,t5,t2
   106e2:	01aefeb3          	and	t4,t4,s10
   106e6:	f697c793          	xori	a5,a5,-151
   106ea:	00af4f33          	xor	t5,t5,a0
   106ee:	00deceb3          	xor	t4,t4,a3
   106f2:	00694b33          	xor	s6,s2,t1
   106f6:	0057f7b3          	and	a5,a5,t0
   106fa:	006e7e33          	and	t3,t3,t1
   106fe:	fff2c593          	not	a1,t0
   10702:	01a44333          	xor	t1,s0,s10
   10706:	8e75                	and	a2,a2,a3
   10708:	01187833          	and	a6,a6,a7
   1070c:	0114c6b3          	xor	a3,s1,a7
   10710:	00d34333          	xor	t1,t1,a3
   10714:	8e39                	xor	a2,a2,a4
   10716:	005e48b3          	xor	a7,t3,t0
   1071a:	0077c733          	xor	a4,a5,t2
   1071e:	8e36                	mv	t3,a3
   10720:	007f5293          	srli	t0,t5,0x7
   10724:	017f1793          	slli	a5,t5,0x17
   10728:	8de9                	and	a1,a1,a0
   1072a:	01f84833          	xor	a6,a6,t6
   1072e:	017e9513          	slli	a0,t4,0x17
   10732:	007edf93          	srli	t6,t4,0x7
   10736:	019e9693          	slli	a3,t4,0x19
   1073a:	019f1413          	slli	s0,t5,0x19
   1073e:	009f5393          	srli	t2,t5,0x9
   10742:	009ed493          	srli	s1,t4,0x9
   10746:	01674733          	xor	a4,a4,s6
   1074a:	00a3e3b3          	or	t2,t2,a0
   1074e:	8cdd                	or	s1,s1,a5
   10750:	0056e6b3          	or	a3,a3,t0
   10754:	01f46433          	or	s0,s0,t6
   10758:	8ea5                	xor	a3,a3,s1
   1075a:	00744433          	xor	s0,s0,t2
   1075e:	01d75493          	srli	s1,a4,0x1d
   10762:	00331393          	slli	t2,t1,0x3
   10766:	c622                	sw	s0,12(sp)
   10768:	0135c5b3          	xor	a1,a1,s3
   1076c:	0074e433          	or	s0,s1,t2
   10770:	00371393          	slli	t2,a4,0x3
   10774:	01d35493          	srli	s1,t1,0x1d
   10778:	00b8c8b3          	xor	a7,a7,a1
   1077c:	01931c93          	slli	s9,t1,0x19
   10780:	0074e4b3          	or	s1,s1,t2
   10784:	00775393          	srli	t2,a4,0x7
   10788:	00c84833          	xor	a6,a6,a2
   1078c:	00a8da93          	srli	s5,a7,0xa
   10790:	0193ecb3          	or	s9,t2,s9
   10794:	00735d13          	srli	s10,t1,0x7
   10798:	01971393          	slli	t2,a4,0x19
   1079c:	8dd6                	mv	s11,s5
   1079e:	007d6d33          	or	s10,s10,t2
   107a2:	01681393          	slli	t2,a6,0x16
   107a6:	00a85b93          	srli	s7,a6,0xa
   107aa:	01b3e3b3          	or	t2,t2,s11
   107ae:	01689d93          	slli	s11,a7,0x16
   107b2:	017debb3          	or	s7,s11,s7
   107b6:	0118dc13          	srli	s8,a7,0x11
   107ba:	00f81d93          	slli	s11,a6,0xf
   107be:	fff5c593          	not	a1,a1
   107c2:	fff64613          	not	a2,a2
   107c6:	01de49b3          	xor	s3,t3,t4
   107ca:	c872                	sw	t3,16(sp)
   107cc:	018dec33          	or	s8,s11,s8
   107d0:	01185e13          	srli	t3,a6,0x11
   107d4:	00f89d93          	slli	s11,a7,0xf
   107d8:	01f61a93          	slli	s5,a2,0x1f
   107dc:	01cdee33          	or	t3,s11,t3
   107e0:	0015dd93          	srli	s11,a1,0x1
   107e4:	00665f93          	srli	t6,a2,0x6
   107e8:	01baeab3          	or	s5,s5,s11
   107ec:	01f59a13          	slli	s4,a1,0x1f
   107f0:	00165d93          	srli	s11,a2,0x1
   107f4:	01a59513          	slli	a0,a1,0x1a
   107f8:	01ba6a33          	or	s4,s4,s11
   107fc:	01f56533          	or	a0,a0,t6
   10800:	0065d293          	srli	t0,a1,0x6
   10804:	01a61793          	slli	a5,a2,0x1a
   10808:	0183c3b3          	xor	t2,t2,s8
   1080c:	00aa4533          	xor	a0,s4,a0
   10810:	4c32                	lw	s8,12(sp)
   10812:	4a42                	lw	s4,16(sp)
   10814:	01eb4933          	xor	s2,s6,t5
   10818:	0057e7b3          	or	a5,a5,t0
   1081c:	00d99d93          	slli	s11,s3,0xd
   10820:	01395293          	srli	t0,s2,0x13
   10824:	0139df93          	srli	t6,s3,0x13
   10828:	00fac7b3          	xor	a5,s5,a5
   1082c:	00d91a93          	slli	s5,s2,0xd
   10830:	0166cb33          	xor	s6,a3,s6
   10834:	01944433          	xor	s0,s0,s9
   10838:	01cbce33          	xor	t3,s7,t3
   1083c:	005de2b3          	or	t0,s11,t0
   10840:	014c4bb3          	xor	s7,s8,s4
   10844:	01faefb3          	or	t6,s5,t6
   10848:	00499a13          	slli	s4,s3,0x4
   1084c:	01c95a93          	srli	s5,s2,0x1c
   10850:	01c9d993          	srli	s3,s3,0x1c
   10854:	0912                	slli	s2,s2,0x4
   10856:	00644433          	xor	s0,s0,t1
   1085a:	015a6a33          	or	s4,s4,s5
   1085e:	01396933          	or	s2,s2,s3
   10862:	01a4c4b3          	xor	s1,s1,s10
   10866:	8d31                	xor	a0,a0,a2
   10868:	0162c2b3          	xor	t0,t0,s6
   1086c:	017fcfb3          	xor	t6,t6,s7
   10870:	8cb9                	xor	s1,s1,a4
   10872:	0113c3b3          	xor	t2,t2,a7
   10876:	010e4e33          	xor	t3,t3,a6
   1087a:	8d21                	xor	a0,a0,s0
   1087c:	0142c2b3          	xor	t0,t0,s4
   10880:	012fcfb3          	xor	t6,t6,s2
   10884:	01dc4733          	xor	a4,s8,t4
   10888:	8fad                	xor	a5,a5,a1
   1088a:	01e6c6b3          	xor	a3,a3,t5
   1088e:	01c74933          	xor	s2,a4,t3
   10892:	0076c6b3          	xor	a3,a3,t2
   10896:	8fa5                	xor	a5,a5,s1
   10898:	fff44713          	not	a4,s0
   1089c:	fff2cf13          	not	t5,t0
   108a0:	ffffce93          	not	t4,t6
   108a4:	fff54313          	not	t1,a0
   108a8:	0877ca13          	xori	s4,a5,135
   108ac:	8f69                	and	a4,a4,a0
   108ae:	fff4c993          	not	s3,s1
   108b2:	fff3c593          	not	a1,t2
   108b6:	fffe4613          	not	a2,t3
   108ba:	fff6c893          	not	a7,a3
   108be:	fff94813          	not	a6,s2
   108c2:	009f7f33          	and	t5,t5,s1
   108c6:	008efeb3          	and	t4,t4,s0
   108ca:	01c37333          	and	t1,t1,t3
   108ce:	f787c793          	xori	a5,a5,-136
   108d2:	00df4f33          	xor	t5,t5,a3
   108d6:	012eceb3          	xor	t4,t4,s2
   108da:	0149f9b3          	and	s3,s3,s4
   108de:	0077f7b3          	and	a5,a5,t2
   108e2:	8df5                	and	a1,a1,a3
   108e4:	01267633          	and	a2,a2,s2
   108e8:	01f746b3          	xor	a3,a4,t6
   108ec:	0058f8b3          	and	a7,a7,t0
   108f0:	01f87833          	and	a6,a6,t6
   108f4:	00834333          	xor	t1,t1,s0
   108f8:	00d34333          	xor	t1,t1,a3
   108fc:	0059cb33          	xor	s6,s3,t0
   10900:	8e29                	xor	a2,a2,a0
   10902:	0097c733          	xor	a4,a5,s1
   10906:	007f5293          	srli	t0,t5,0x7
   1090a:	007edf93          	srli	t6,t4,0x7
   1090e:	017e9513          	slli	a0,t4,0x17
   10912:	017f1793          	slli	a5,t5,0x17
   10916:	0078c8b3          	xor	a7,a7,t2
   1091a:	01c84833          	xor	a6,a6,t3
   1091e:	019f1413          	slli	s0,t5,0x19
   10922:	8e36                	mv	t3,a3
   10924:	009f5393          	srli	t2,t5,0x9
   10928:	019e9693          	slli	a3,t4,0x19
   1092c:	009ed493          	srli	s1,t4,0x9
   10930:	01674733          	xor	a4,a4,s6
   10934:	00a3e3b3          	or	t2,t2,a0
   10938:	8cdd                	or	s1,s1,a5
   1093a:	0056e6b3          	or	a3,a3,t0
   1093e:	01f46433          	or	s0,s0,t6
   10942:	8ea5                	xor	a3,a3,s1
   10944:	00744433          	xor	s0,s0,t2
   10948:	01d75493          	srli	s1,a4,0x1d
   1094c:	00331393          	slli	t2,t1,0x3
   10950:	0145c5b3          	xor	a1,a1,s4
   10954:	c622                	sw	s0,12(sp)
   10956:	0074e433          	or	s0,s1,t2
   1095a:	00371393          	slli	t2,a4,0x3
   1095e:	01d35493          	srli	s1,t1,0x1d
   10962:	00b8c8b3          	xor	a7,a7,a1
   10966:	01931c93          	slli	s9,t1,0x19
   1096a:	0074e4b3          	or	s1,s1,t2
   1096e:	00775393          	srli	t2,a4,0x7
   10972:	00c84833          	xor	a6,a6,a2
   10976:	00a8da93          	srli	s5,a7,0xa
   1097a:	0193ecb3          	or	s9,t2,s9
   1097e:	00735d13          	srli	s10,t1,0x7
   10982:	01971393          	slli	t2,a4,0x19
   10986:	8dd6                	mv	s11,s5
   10988:	007d6d33          	or	s10,s10,t2
   1098c:	01681393          	slli	t2,a6,0x16
   10990:	00a85b93          	srli	s7,a6,0xa
   10994:	01b3e3b3          	or	t2,t2,s11
   10998:	01689d93          	slli	s11,a7,0x16
   1099c:	017debb3          	or	s7,s11,s7
   109a0:	0118dc13          	srli	s8,a7,0x11
   109a4:	00f81d93          	slli	s11,a6,0xf
   109a8:	fff5c593          	not	a1,a1
   109ac:	fff64613          	not	a2,a2
   109b0:	01de49b3          	xor	s3,t3,t4
   109b4:	018dec33          	or	s8,s11,s8
   109b8:	c872                	sw	t3,16(sp)
   109ba:	00f89d93          	slli	s11,a7,0xf
   109be:	01185e13          	srli	t3,a6,0x11
   109c2:	01f61a93          	slli	s5,a2,0x1f
   109c6:	01cdee33          	or	t3,s11,t3
   109ca:	0015dd93          	srli	s11,a1,0x1
   109ce:	00665f93          	srli	t6,a2,0x6
   109d2:	01baeab3          	or	s5,s5,s11
   109d6:	01f59a13          	slli	s4,a1,0x1f
   109da:	00165d93          	srli	s11,a2,0x1
   109de:	01a59513          	slli	a0,a1,0x1a
   109e2:	01ba6a33          	or	s4,s4,s11
   109e6:	01f56533          	or	a0,a0,t6
   109ea:	0065d293          	srli	t0,a1,0x6
   109ee:	01a61793          	slli	a5,a2,0x1a
   109f2:	0183c3b3          	xor	t2,t2,s8
   109f6:	00aa4533          	xor	a0,s4,a0
   109fa:	4c32                	lw	s8,12(sp)
   109fc:	4a42                	lw	s4,16(sp)
   109fe:	01eb4933          	xor	s2,s6,t5
   10a02:	0057e7b3          	or	a5,a5,t0
   10a06:	00d99d93          	slli	s11,s3,0xd
   10a0a:	01395293          	srli	t0,s2,0x13
   10a0e:	0139df93          	srli	t6,s3,0x13
   10a12:	00fac7b3          	xor	a5,s5,a5
   10a16:	00d91a93          	slli	s5,s2,0xd
   10a1a:	0166cb33          	xor	s6,a3,s6
   10a1e:	01944433          	xor	s0,s0,s9
   10a22:	01cbce33          	xor	t3,s7,t3
   10a26:	005de2b3          	or	t0,s11,t0
   10a2a:	014c4bb3          	xor	s7,s8,s4
   10a2e:	01faefb3          	or	t6,s5,t6
   10a32:	00499a13          	slli	s4,s3,0x4
   10a36:	01c95a93          	srli	s5,s2,0x1c
   10a3a:	01c9d993          	srli	s3,s3,0x1c
   10a3e:	0912                	slli	s2,s2,0x4
   10a40:	00644433          	xor	s0,s0,t1
   10a44:	8d31                	xor	a0,a0,a2
   10a46:	015a6a33          	or	s4,s4,s5
   10a4a:	01396933          	or	s2,s2,s3
   10a4e:	01a4c4b3          	xor	s1,s1,s10
   10a52:	0162c2b3          	xor	t0,t0,s6
   10a56:	017fcfb3          	xor	t6,t6,s7
   10a5a:	8cb9                	xor	s1,s1,a4
   10a5c:	0113c3b3          	xor	t2,t2,a7
   10a60:	010e4e33          	xor	t3,t3,a6
   10a64:	00854733          	xor	a4,a0,s0
   10a68:	0142c2b3          	xor	t0,t0,s4
   10a6c:	012fcfb3          	xor	t6,t6,s2
   10a70:	01e6c6b3          	xor	a3,a3,t5
   10a74:	01dc4833          	xor	a6,s8,t4
   10a78:	8fad                	xor	a5,a5,a1
   10a7a:	0076ceb3          	xor	t4,a3,t2
   10a7e:	01c84833          	xor	a6,a6,t3
   10a82:	8fa5                	xor	a5,a5,s1
   10a84:	fff44913          	not	s2,s0
   10a88:	fff2c613          	not	a2,t0
   10a8c:	ffffc693          	not	a3,t6
   10a90:	fff74f13          	not	t5,a4
   10a94:	0787ca13          	xori	s4,a5,120
   10a98:	00e97933          	and	s2,s2,a4
   10a9c:	01cf7f33          	and	t5,t5,t3
   10aa0:	fff4c993          	not	s3,s1
   10aa4:	fff3c513          	not	a0,t2
   10aa8:	fffe4593          	not	a1,t3
   10aac:	fffec313          	not	t1,t4
   10ab0:	fff84893          	not	a7,a6
   10ab4:	8e65                	and	a2,a2,s1
   10ab6:	8ee1                	and	a3,a3,s0
   10ab8:	f877c793          	xori	a5,a5,-121
   10abc:	01d64633          	xor	a2,a2,t4
   10ac0:	0106c6b3          	xor	a3,a3,a6
   10ac4:	0149f9b3          	and	s3,s3,s4
   10ac8:	0077f7b3          	and	a5,a5,t2
   10acc:	01d57533          	and	a0,a0,t4
   10ad0:	0105f5b3          	and	a1,a1,a6
   10ad4:	01f94eb3          	xor	t4,s2,t6
   10ad8:	008f4833          	xor	a6,t5,s0
   10adc:	00537333          	and	t1,t1,t0
   10ae0:	01f8f8b3          	and	a7,a7,t6
   10ae4:	0059cb33          	xor	s6,s3,t0
   10ae8:	8db9                	xor	a1,a1,a4
   10aea:	00765f93          	srli	t6,a2,0x7
   10aee:	0097c733          	xor	a4,a5,s1
   10af2:	0076df13          	srli	t5,a3,0x7
   10af6:	01761793          	slli	a5,a2,0x17
   10afa:	00734333          	xor	t1,t1,t2
   10afe:	01c8c8b3          	xor	a7,a7,t3
   10b02:	01969913          	slli	s2,a3,0x19
   10b06:	01d84e33          	xor	t3,a6,t4
   10b0a:	01961393          	slli	t2,a2,0x19
   10b0e:	01769813          	slli	a6,a3,0x17
   10b12:	00965293          	srli	t0,a2,0x9
   10b16:	0096d413          	srli	s0,a3,0x9
   10b1a:	01674733          	xor	a4,a4,s6
   10b1e:	01e3e3b3          	or	t2,t2,t5
   10b22:	0102e2b3          	or	t0,t0,a6
   10b26:	8c5d                	or	s0,s0,a5
   10b28:	01f96933          	or	s2,s2,t6
   10b2c:	00894933          	xor	s2,s2,s0
   10b30:	0053c433          	xor	s0,t2,t0
   10b34:	01d75293          	srli	t0,a4,0x1d
   10b38:	003e1393          	slli	t2,t3,0x3
   10b3c:	c822                	sw	s0,16(sp)
   10b3e:	01454533          	xor	a0,a0,s4
   10b42:	0072e3b3          	or	t2,t0,t2
   10b46:	00371413          	slli	s0,a4,0x3
   10b4a:	01de5293          	srli	t0,t3,0x1d
   10b4e:	00a34333          	xor	t1,t1,a0
   10b52:	019e1c93          	slli	s9,t3,0x19
   10b56:	0082e433          	or	s0,t0,s0
   10b5a:	00775293          	srli	t0,a4,0x7
   10b5e:	00b8c8b3          	xor	a7,a7,a1
   10b62:	00a35a93          	srli	s5,t1,0xa
   10b66:	0192ecb3          	or	s9,t0,s9
   10b6a:	007e5d13          	srli	s10,t3,0x7
   10b6e:	01971293          	slli	t0,a4,0x19
   10b72:	8dd6                	mv	s11,s5
   10b74:	005d6d33          	or	s10,s10,t0
   10b78:	01689293          	slli	t0,a7,0x16
   10b7c:	00a8db93          	srli	s7,a7,0xa
   10b80:	01b2e2b3          	or	t0,t0,s11
   10b84:	01631d93          	slli	s11,t1,0x16
   10b88:	017debb3          	or	s7,s11,s7
   10b8c:	01135c13          	srli	s8,t1,0x11
   10b90:	00f89d93          	slli	s11,a7,0xf
   10b94:	c676                	sw	t4,12(sp)
   10b96:	fff54513          	not	a0,a0
   10b9a:	fff5c593          	not	a1,a1
   10b9e:	00dec9b3          	xor	s3,t4,a3
   10ba2:	018dec33          	or	s8,s11,s8
   10ba6:	0118de93          	srli	t4,a7,0x11
   10baa:	00f31d93          	slli	s11,t1,0xf
   10bae:	01f59a93          	slli	s5,a1,0x1f
   10bb2:	01ddeeb3          	or	t4,s11,t4
   10bb6:	00155d93          	srli	s11,a0,0x1
   10bba:	0065df13          	srli	t5,a1,0x6
   10bbe:	01baeab3          	or	s5,s5,s11
   10bc2:	01f51a13          	slli	s4,a0,0x1f
   10bc6:	0015dd93          	srli	s11,a1,0x1
   10bca:	01a51813          	slli	a6,a0,0x1a
   10bce:	01ba6a33          	or	s4,s4,s11
   10bd2:	01e86833          	or	a6,a6,t5
   10bd6:	00655f93          	srli	t6,a0,0x6
   10bda:	01a59793          	slli	a5,a1,0x1a
   10bde:	0182c2b3          	xor	t0,t0,s8
   10be2:	010a4833          	xor	a6,s4,a6
   10be6:	4c42                	lw	s8,16(sp)
   10be8:	4a32                	lw	s4,12(sp)
   10bea:	00cb44b3          	xor	s1,s6,a2
   10bee:	01f7e7b3          	or	a5,a5,t6
   10bf2:	00d99d93          	slli	s11,s3,0xd
   10bf6:	0134df93          	srli	t6,s1,0x13
   10bfa:	0139df13          	srli	t5,s3,0x13
   10bfe:	00fac7b3          	xor	a5,s5,a5
   10c02:	00d49a93          	slli	s5,s1,0xd
   10c06:	012b4b33          	xor	s6,s6,s2
   10c0a:	01dbceb3          	xor	t4,s7,t4
   10c0e:	01fdefb3          	or	t6,s11,t6
   10c12:	018a4bb3          	xor	s7,s4,s8
   10c16:	01eaef33          	or	t5,s5,t5
   10c1a:	00499a13          	slli	s4,s3,0x4
   10c1e:	01c4da93          	srli	s5,s1,0x1c
   10c22:	01c9d993          	srli	s3,s3,0x1c
   10c26:	0492                	slli	s1,s1,0x4
   10c28:	015a6a33          	or	s4,s4,s5
   10c2c:	0134e4b3          	or	s1,s1,s3
   10c30:	01a44433          	xor	s0,s0,s10
   10c34:	0193c3b3          	xor	t2,t2,s9
   10c38:	016fcfb3          	xor	t6,t6,s6
   10c3c:	017f4f33          	xor	t5,t5,s7
   10c40:	8c39                	xor	s0,s0,a4
   10c42:	01c3c3b3          	xor	t2,t2,t3
   10c46:	0062c2b3          	xor	t0,t0,t1
   10c4a:	011eceb3          	xor	t4,t4,a7
   10c4e:	014fcfb3          	xor	t6,t6,s4
   10c52:	009f4f33          	xor	t5,t5,s1
   10c56:	0186c6b3          	xor	a3,a3,s8
   10c5a:	8fa9                	xor	a5,a5,a0
   10c5c:	00b84833          	xor	a6,a6,a1
   10c60:	01264633          	xor	a2,a2,s2
   10c64:	00564933          	xor	s2,a2,t0
   10c68:	01d6c4b3          	xor	s1,a3,t4
   10c6c:	00784833          	xor	a6,a6,t2
   10c70:	8fa1                	xor	a5,a5,s0
   10c72:	ffffc613          	not	a2,t6
   10c76:	ffff4693          	not	a3,t5
   10c7a:	0697ca13          	xori	s4,a5,105
   10c7e:	fff44993          	not	s3,s0
   10c82:	fff3c713          	not	a4,t2
   10c86:	fffec593          	not	a1,t4
   10c8a:	fff84e13          	not	t3,a6
   10c8e:	fff94313          	not	t1,s2
   10c92:	8e61                	and	a2,a2,s0
   10c94:	0076f6b3          	and	a3,a3,t2
   10c98:	f967c793          	xori	a5,a5,-106
   10c9c:	01264633          	xor	a2,a2,s2
   10ca0:	8ea5                	xor	a3,a3,s1
   10ca2:	0149f9b3          	and	s3,s3,s4
   10ca6:	01077733          	and	a4,a4,a6
   10caa:	0057f7b3          	and	a5,a5,t0
   10cae:	fff2c513          	not	a0,t0
   10cb2:	fff4c893          	not	a7,s1
   10cb6:	8de5                	and	a1,a1,s1
   10cb8:	01de7e33          	and	t3,t3,t4
   10cbc:	01f37333          	and	t1,t1,t6
   10cc0:	01f9cb33          	xor	s6,s3,t6
   10cc4:	01e744b3          	xor	s1,a4,t5
   10cc8:	0105c5b3          	xor	a1,a1,a6
   10ccc:	0087c733          	xor	a4,a5,s0
   10cd0:	00765f93          	srli	t6,a2,0x7
   10cd4:	01769813          	slli	a6,a3,0x17
   10cd8:	01761793          	slli	a5,a2,0x17
   10cdc:	01257533          	and	a0,a0,s2
   10ce0:	01e8f8b3          	and	a7,a7,t5
   10ce4:	007e4e33          	xor	t3,t3,t2
   10ce8:	0076df13          	srli	t5,a3,0x7
   10cec:	00534333          	xor	t1,t1,t0
   10cf0:	01969913          	slli	s2,a3,0x19
   10cf4:	01961393          	slli	t2,a2,0x19
   10cf8:	00965293          	srli	t0,a2,0x9
   10cfc:	0096d413          	srli	s0,a3,0x9
   10d00:	01674733          	xor	a4,a4,s6
   10d04:	009e4e33          	xor	t3,t3,s1
   10d08:	01e3e3b3          	or	t2,t2,t5
   10d0c:	0102e2b3          	or	t0,t0,a6
   10d10:	8c5d                	or	s0,s0,a5
   10d12:	01f96933          	or	s2,s2,t6
   10d16:	00894933          	xor	s2,s2,s0
   10d1a:	0053c433          	xor	s0,t2,t0
   10d1e:	01d75293          	srli	t0,a4,0x1d
   10d22:	003e1393          	slli	t2,t3,0x3
   10d26:	c822                	sw	s0,16(sp)
   10d28:	01454533          	xor	a0,a0,s4
   10d2c:	0072e3b3          	or	t2,t0,t2
   10d30:	00371413          	slli	s0,a4,0x3
   10d34:	01de5293          	srli	t0,t3,0x1d
   10d38:	00a34333          	xor	t1,t1,a0
   10d3c:	01d8c8b3          	xor	a7,a7,t4
   10d40:	019e1c93          	slli	s9,t3,0x19
   10d44:	0082e433          	or	s0,t0,s0
   10d48:	00775293          	srli	t0,a4,0x7
   10d4c:	00b8c8b3          	xor	a7,a7,a1
   10d50:	00a35a93          	srli	s5,t1,0xa
   10d54:	0192ecb3          	or	s9,t0,s9
   10d58:	007e5d13          	srli	s10,t3,0x7
   10d5c:	01971293          	slli	t0,a4,0x19
   10d60:	8dd6                	mv	s11,s5
   10d62:	005d6d33          	or	s10,s10,t0
   10d66:	01689293          	slli	t0,a7,0x16
   10d6a:	00a8db93          	srli	s7,a7,0xa
   10d6e:	01b2e2b3          	or	t0,t0,s11
   10d72:	01631d93          	slli	s11,t1,0x16
   10d76:	8ea6                	mv	t4,s1
   10d78:	017debb3          	or	s7,s11,s7
   10d7c:	01135c13          	srli	s8,t1,0x11
   10d80:	00f89d93          	slli	s11,a7,0xf
   10d84:	c676                	sw	t4,12(sp)
   10d86:	fff54513          	not	a0,a0
   10d8a:	fff5c593          	not	a1,a1
   10d8e:	00dec9b3          	xor	s3,t4,a3
   10d92:	018dec33          	or	s8,s11,s8
   10d96:	0118de93          	srli	t4,a7,0x11
   10d9a:	00f31d93          	slli	s11,t1,0xf
   10d9e:	01f59a93          	slli	s5,a1,0x1f
   10da2:	01ddeeb3          	or	t4,s11,t4
   10da6:	00155d93          	srli	s11,a0,0x1
   10daa:	0065df13          	srli	t5,a1,0x6
   10dae:	01baeab3          	or	s5,s5,s11
   10db2:	01f51a13          	slli	s4,a0,0x1f
   10db6:	0015dd93          	srli	s11,a1,0x1
   10dba:	01a51813          	slli	a6,a0,0x1a
   10dbe:	01ba6a33          	or	s4,s4,s11
   10dc2:	01e86833          	or	a6,a6,t5
   10dc6:	00655f93          	srli	t6,a0,0x6
   10dca:	01a59793          	slli	a5,a1,0x1a
   10dce:	0182c2b3          	xor	t0,t0,s8
   10dd2:	010a4833          	xor	a6,s4,a6
   10dd6:	4c42                	lw	s8,16(sp)
   10dd8:	4a32                	lw	s4,12(sp)
   10dda:	00cb44b3          	xor	s1,s6,a2
   10dde:	01f7e7b3          	or	a5,a5,t6
   10de2:	00d99d93          	slli	s11,s3,0xd
   10de6:	0134df93          	srli	t6,s1,0x13
   10dea:	0139df13          	srli	t5,s3,0x13
   10dee:	00fac7b3          	xor	a5,s5,a5
   10df2:	00d49a93          	slli	s5,s1,0xd
   10df6:	012b4b33          	xor	s6,s6,s2
   10dfa:	01a44433          	xor	s0,s0,s10
   10dfe:	01dbceb3          	xor	t4,s7,t4
   10e02:	01fdefb3          	or	t6,s11,t6
   10e06:	018a4bb3          	xor	s7,s4,s8
   10e0a:	01eaef33          	or	t5,s5,t5
   10e0e:	00499a13          	slli	s4,s3,0x4
   10e12:	01c4da93          	srli	s5,s1,0x1c
   10e16:	01c9d993          	srli	s3,s3,0x1c
   10e1a:	0492                	slli	s1,s1,0x4
   10e1c:	8c39                	xor	s0,s0,a4
   10e1e:	015a6a33          	or	s4,s4,s5
   10e22:	0134e4b3          	or	s1,s1,s3
   10e26:	0193c3b3          	xor	t2,t2,s9
   10e2a:	8fa9                	xor	a5,a5,a0
   10e2c:	016fcfb3          	xor	t6,t6,s6
   10e30:	017f4f33          	xor	t5,t5,s7
   10e34:	01c3c3b3          	xor	t2,t2,t3
   10e38:	0062c2b3          	xor	t0,t0,t1
   10e3c:	011eceb3          	xor	t4,t4,a7
   10e40:	014fcfb3          	xor	t6,t6,s4
   10e44:	009f4f33          	xor	t5,t5,s1
   10e48:	01264633          	xor	a2,a2,s2
   10e4c:	0186c6b3          	xor	a3,a3,s8
   10e50:	8fa1                	xor	a5,a5,s0
   10e52:	00b84833          	xor	a6,a6,a1
   10e56:	005644b3          	xor	s1,a2,t0
   10e5a:	01d6c733          	xor	a4,a3,t4
   10e5e:	00784833          	xor	a6,a6,t2
   10e62:	05a7ca13          	xori	s4,a5,90
   10e66:	fff44993          	not	s3,s0
   10e6a:	ffffc613          	not	a2,t6
   10e6e:	ffff4693          	not	a3,t5
   10e72:	fa57c793          	xori	a5,a5,-91
   10e76:	0149f9b3          	and	s3,s3,s4
   10e7a:	fff3c913          	not	s2,t2
   10e7e:	fffec593          	not	a1,t4
   10e82:	fff84e13          	not	t3,a6
   10e86:	fff4c313          	not	t1,s1
   10e8a:	fff74893          	not	a7,a4
   10e8e:	8e61                	and	a2,a2,s0
   10e90:	0076f6b3          	and	a3,a3,t2
   10e94:	0057f7b3          	and	a5,a5,t0
   10e98:	8e25                	xor	a2,a2,s1
   10e9a:	8eb9                	xor	a3,a3,a4
   10e9c:	01097933          	and	s2,s2,a6
   10ea0:	fff2c513          	not	a0,t0
   10ea4:	8df9                	and	a1,a1,a4
   10ea6:	01de7e33          	and	t3,t3,t4
   10eaa:	01f9c733          	xor	a4,s3,t6
   10eae:	01f37333          	and	t1,t1,t6
   10eb2:	01e8f8b3          	and	a7,a7,t5
   10eb6:	8fa1                	xor	a5,a5,s0
   10eb8:	8fb9                	xor	a5,a5,a4
   10eba:	01e94bb3          	xor	s7,s2,t5
   10ebe:	0105c5b3          	xor	a1,a1,a6
   10ec2:	00765f13          	srli	t5,a2,0x7
   10ec6:	01769813          	slli	a6,a3,0x17
   10eca:	8d65                	and	a0,a0,s1
   10ecc:	007e4e33          	xor	t3,t3,t2
   10ed0:	84ba                	mv	s1,a4
   10ed2:	00534333          	xor	t1,t1,t0
   10ed6:	01761713          	slli	a4,a2,0x17
   10eda:	01d8c8b3          	xor	a7,a7,t4
   10ede:	01969913          	slli	s2,a3,0x19
   10ee2:	0076de93          	srli	t4,a3,0x7
   10ee6:	01961393          	slli	t2,a2,0x19
   10eea:	00965293          	srli	t0,a2,0x9
   10eee:	0096d413          	srli	s0,a3,0x9
   10ef2:	017e4e33          	xor	t3,t3,s7
   10ef6:	01d3e3b3          	or	t2,t2,t4
   10efa:	0102e2b3          	or	t0,t0,a6
   10efe:	8c59                	or	s0,s0,a4
   10f00:	01e96933          	or	s2,s2,t5
   10f04:	00894933          	xor	s2,s2,s0
   10f08:	0053c433          	xor	s0,t2,t0
   10f0c:	01d7d293          	srli	t0,a5,0x1d
   10f10:	003e1393          	slli	t2,t3,0x3
   10f14:	c822                	sw	s0,16(sp)
   10f16:	01454533          	xor	a0,a0,s4
   10f1a:	0072e3b3          	or	t2,t0,t2
   10f1e:	00379413          	slli	s0,a5,0x3
   10f22:	01de5293          	srli	t0,t3,0x1d
   10f26:	00a34333          	xor	t1,t1,a0
   10f2a:	019e1c93          	slli	s9,t3,0x19
   10f2e:	0082e433          	or	s0,t0,s0
   10f32:	0077d293          	srli	t0,a5,0x7
   10f36:	00b8c8b3          	xor	a7,a7,a1
   10f3a:	00a35a13          	srli	s4,t1,0xa
   10f3e:	0192ecb3          	or	s9,t0,s9
   10f42:	007e5d13          	srli	s10,t3,0x7
   10f46:	01979293          	slli	t0,a5,0x19
   10f4a:	8ad2                	mv	s5,s4
   10f4c:	005d6d33          	or	s10,s10,t0
   10f50:	01689293          	slli	t0,a7,0x16
   10f54:	00a8df93          	srli	t6,a7,0xa
   10f58:	0152e2b3          	or	t0,t0,s5
   10f5c:	01631a93          	slli	s5,t1,0x16
   10f60:	01135c13          	srli	s8,t1,0x11
   10f64:	01faefb3          	or	t6,s5,t6
   10f68:	00f89a93          	slli	s5,a7,0xf
   10f6c:	fff54513          	not	a0,a0
   10f70:	fff5c593          	not	a1,a1
   10f74:	018aec33          	or	s8,s5,s8
   10f78:	0118db13          	srli	s6,a7,0x11
   10f7c:	00f31a93          	slli	s5,t1,0xf
   10f80:	00155d93          	srli	s11,a0,0x1
   10f84:	016aeb33          	or	s6,s5,s6
   10f88:	01f59a93          	slli	s5,a1,0x1f
   10f8c:	0065de93          	srli	t4,a1,0x6
   10f90:	01baeab3          	or	s5,s5,s11
   10f94:	01f51a13          	slli	s4,a0,0x1f
   10f98:	0015dd93          	srli	s11,a1,0x1
   10f9c:	01a51813          	slli	a6,a0,0x1a
   10fa0:	c626                	sw	s1,12(sp)
   10fa2:	01ba6a33          	or	s4,s4,s11
   10fa6:	01d86833          	or	a6,a6,t4
   10faa:	00655f13          	srli	t5,a0,0x6
   10fae:	0182c2b3          	xor	t0,t0,s8
   10fb2:	01a59713          	slli	a4,a1,0x1a
   10fb6:	4c42                	lw	s8,16(sp)
   10fb8:	010a4833          	xor	a6,s4,a6
   10fbc:	4a32                	lw	s4,12(sp)
   10fbe:	00dbc9b3          	xor	s3,s7,a3
   10fc2:	8cb1                	xor	s1,s1,a2
   10fc4:	01e76733          	or	a4,a4,t5
   10fc8:	0139de93          	srli	t4,s3,0x13
   10fcc:	00eac733          	xor	a4,s5,a4
   10fd0:	00d49a93          	slli	s5,s1,0xd
   10fd4:	00d99d93          	slli	s11,s3,0xd
   10fd8:	018bcbb3          	xor	s7,s7,s8
   10fdc:	0134df13          	srli	t5,s1,0x13
   10fe0:	016fcfb3          	xor	t6,t6,s6
   10fe4:	01daeeb3          	or	t4,s5,t4
   10fe8:	012a4b33          	xor	s6,s4,s2
   10fec:	01c4da93          	srli	s5,s1,0x1c
   10ff0:	00499a13          	slli	s4,s3,0x4
   10ff4:	0492                	slli	s1,s1,0x4
   10ff6:	01c9d993          	srli	s3,s3,0x1c
   10ffa:	011fcfb3          	xor	t6,t6,a7
   10ffe:	0134e4b3          	or	s1,s1,s3
   11002:	0186c6b3          	xor	a3,a3,s8
   11006:	017eceb3          	xor	t4,t4,s7
   1100a:	009eceb3          	xor	t4,t4,s1
   1100e:	0193c3b3          	xor	t2,t2,s9
   11012:	00b84833          	xor	a6,a6,a1
   11016:	01f6c5b3          	xor	a1,a3,t6
   1101a:	01c3c3b3          	xor	t2,t2,t3
   1101e:	0062c333          	xor	t1,t0,t1
   11022:	8f29                	xor	a4,a4,a0
   11024:	fffec293          	not	t0,t4
   11028:	ffffc513          	not	a0,t6
   1102c:	fff5c993          	not	s3,a1
   11030:	00784833          	xor	a6,a6,t2
   11034:	01d9f9b3          	and	s3,s3,t4
   11038:	01a44433          	xor	s0,s0,s10
   1103c:	01edef33          	or	t5,s11,t5
   11040:	8d6d                	and	a0,a0,a1
   11042:	0072f2b3          	and	t0,t0,t2
   11046:	00b2c2b3          	xor	t0,t0,a1
   1104a:	8c3d                	xor	s0,s0,a5
   1104c:	01f9c5b3          	xor	a1,s3,t6
   11050:	015a6a33          	or	s4,s4,s5
   11054:	01264633          	xor	a2,a2,s2
   11058:	01054533          	xor	a0,a0,a6
   1105c:	016f4f33          	xor	t5,t5,s6
   11060:	006648b3          	xor	a7,a2,t1
   11064:	00a5cb33          	xor	s6,a1,a0
   11068:	014f4f33          	xor	t5,t5,s4
   1106c:	4592                	lw	a1,4(sp)
   1106e:	8f21                	xor	a4,a4,s0
   11070:	fff3c493          	not	s1,t2
   11074:	fff84793          	not	a5,a6
   11078:	04b74a93          	xori	s5,a4,75
   1107c:	0104f4b3          	and	s1,s1,a6
   11080:	fff44693          	not	a3,s0
   11084:	ffff4913          	not	s2,t5
   11088:	fb474713          	xori	a4,a4,-76
   1108c:	fff8ca13          	not	s4,a7
   11090:	01f7f7b3          	and	a5,a5,t6
   11094:	00677633          	and	a2,a4,t1
   11098:	01ea7a33          	and	s4,s4,t5
   1109c:	01d4c733          	xor	a4,s1,t4
   110a0:	0077c7b3          	xor	a5,a5,t2
   110a4:	fff34e13          	not	t3,t1
   110a8:	0156f6b3          	and	a3,a3,s5
   110ac:	00897933          	and	s2,s2,s0
   110b0:	01194933          	xor	s2,s2,a7
   110b4:	01e6c6b3          	xor	a3,a3,t5
   110b8:	011e7e33          	and	t3,t3,a7
   110bc:	8e21                	xor	a2,a2,s0
   110be:	006a48b3          	xor	a7,s4,t1
   110c2:	00e7c333          	xor	t1,a5,a4
   110c6:	ff858793          	addi	a5,a1,-8
   110ca:	8e35                	xor	a2,a2,a3
   110cc:	00574733          	xor	a4,a4,t0
   110d0:	0126c6b3          	xor	a3,a3,s2
   110d4:	00b7b5b3          	sltu	a1,a5,a1
   110d8:	ca2e                	sw	a1,20(sp)
   110da:	d23e                	sw	a5,36(sp)
   110dc:	00d71593          	slli	a1,a4,0xd
   110e0:	0136d793          	srli	a5,a3,0x13
   110e4:	8ddd                	or	a1,a1,a5
   110e6:	ce2e                	sw	a1,28(sp)
   110e8:	01375793          	srli	a5,a4,0x13
   110ec:	00d69593          	slli	a1,a3,0xd
   110f0:	8ddd                	or	a1,a1,a5
   110f2:	d02e                	sw	a1,32(sp)
   110f4:	01c6da13          	srli	s4,a3,0x1c
   110f8:	00471593          	slli	a1,a4,0x4
   110fc:	015e4e33          	xor	t3,t3,s5
   11100:	01d35393          	srli	t2,t1,0x1d
   11104:	01c75a93          	srli	s5,a4,0x1c
   11108:	0145ea33          	or	s4,a1,s4
   1110c:	00469593          	slli	a1,a3,0x4
   11110:	c21e                	sw	t2,4(sp)
   11112:	01931b93          	slli	s7,t1,0x19
   11116:	00331f93          	slli	t6,t1,0x3
   1111a:	0155eab3          	or	s5,a1,s5
   1111e:	01d65593          	srli	a1,a2,0x1d
   11122:	c65e                	sw	s7,12(sp)
   11124:	01f5efb3          	or	t6,a1,t6
   11128:	4592                	lw	a1,4(sp)
   1112a:	47b2                	lw	a5,12(sp)
   1112c:	00361f13          	slli	t5,a2,0x3
   11130:	00735c13          	srli	s8,t1,0x7
   11134:	01e5ef33          	or	t5,a1,t5
   11138:	00765593          	srli	a1,a2,0x7
   1113c:	c862                	sw	s8,16(sp)
   1113e:	8ddd                	or	a1,a1,a5
   11140:	c22e                	sw	a1,4(sp)
   11142:	45c2                	lw	a1,16(sp)
   11144:	fffe4813          	not	a6,t3
   11148:	fff54513          	not	a0,a0
   1114c:	01961d93          	slli	s11,a2,0x19
   11150:	01b5edb3          	or	s11,a1,s11
   11154:	00185793          	srli	a5,a6,0x1
   11158:	01f51593          	slli	a1,a0,0x1f
   1115c:	8ddd                	or	a1,a1,a5
   1115e:	00155393          	srli	t2,a0,0x1
   11162:	01f81793          	slli	a5,a6,0x1f
   11166:	0077e3b3          	or	t2,a5,t2
   1116a:	01a51c93          	slli	s9,a0,0x1a
   1116e:	00685793          	srli	a5,a6,0x6
   11172:	01c8cd33          	xor	s10,a7,t3
   11176:	00fcecb3          	or	s9,s9,a5
   1117a:	00655493          	srli	s1,a0,0x6
   1117e:	01a81793          	slli	a5,a6,0x1a
   11182:	8cdd                	or	s1,s1,a5
   11184:	00ad5893          	srli	a7,s10,0xa
   11188:	016b1793          	slli	a5,s6,0x16
   1118c:	0117e8b3          	or	a7,a5,a7
   11190:	00ab5413          	srli	s0,s6,0xa
   11194:	016d1793          	slli	a5,s10,0x16
   11198:	8c5d                	or	s0,s0,a5
   1119a:	00fb1c13          	slli	s8,s6,0xf
   1119e:	011d5793          	srli	a5,s10,0x11
   111a2:	cc1a                	sw	t1,24(sp)
   111a4:	00fc6c33          	or	s8,s8,a5
   111a8:	011b5313          	srli	t1,s6,0x11
   111ac:	00fd1793          	slli	a5,s10,0xf
   111b0:	00795b93          	srli	s7,s2,0x7
   111b4:	0067e333          	or	t1,a5,t1
   111b8:	01929793          	slli	a5,t0,0x19
   111bc:	0177ebb3          	or	s7,a5,s7
   111c0:	0072d993          	srli	s3,t0,0x7
   111c4:	01991793          	slli	a5,s2,0x19
   111c8:	0137e9b3          	or	s3,a5,s3
   111cc:	01729e93          	slli	t4,t0,0x17
   111d0:	00995793          	srli	a5,s2,0x9
   111d4:	01791e13          	slli	t3,s2,0x17
   111d8:	01d7eeb3          	or	t4,a5,t4
   111dc:	0092d793          	srli	a5,t0,0x9
   111e0:	01c7ee33          	or	t3,a5,t3
   111e4:	47a2                	lw	a5,8(sp)
   111e6:	0093c3b3          	xor	t2,t2,s1
   111ea:	00644333          	xor	t1,s0,t1
   111ee:	17fd                	addi	a5,a5,-1
   111f0:	c43e                	sw	a5,8(sp)
   111f2:	47f2                	lw	a5,28(sp)
   111f4:	4452                	lw	s0,20(sp)
   111f6:	01bf4f33          	xor	t5,t5,s11
   111fa:	0147ca33          	xor	s4,a5,s4
   111fe:	4d92                	lw	s11,4(sp)
   11200:	5782                	lw	a5,32(sp)
   11202:	44a2                	lw	s1,8(sp)
   11204:	01cbce33          	xor	t3,s7,t3
   11208:	0157cab3          	xor	s5,a5,s5
   1120c:	00940bb3          	add	s7,s0,s1
   11210:	47e2                	lw	a5,24(sp)
   11212:	01634433          	xor	s0,t1,s6
   11216:	4302                	lw	t1,0(sp)
   11218:	00cf4f33          	xor	t5,t5,a2
   1121c:	5612                	lw	a2,36(sp)
   1121e:	01bfcfb3          	xor	t6,t6,s11
   11222:	0195c5b3          	xor	a1,a1,s9
   11226:	00ffc7b3          	xor	a5,t6,a5
   1122a:	0105cfb3          	xor	t6,a1,a6
   1122e:	00830593          	addi	a1,t1,8
   11232:	0188c8b3          	xor	a7,a7,s8
   11236:	01d9ceb3          	xor	t4,s3,t4
   1123a:	c45e                	sw	s7,8(sp)
   1123c:	c02e                	sw	a1,0(sp)
   1123e:	c232                	sw	a2,4(sp)
   11240:	00a3c4b3          	xor	s1,t2,a0
   11244:	00da46b3          	xor	a3,s4,a3
   11248:	00eac733          	xor	a4,s5,a4
   1124c:	01a8c3b3          	xor	t2,a7,s10
   11250:	012e4933          	xor	s2,t3,s2
   11254:	005ec9b3          	xor	s3,t4,t0
   11258:	800b9563          	bnez	s7,10262 <crypto_hash+0x82>
   1125c:	459d                	li	a1,7
   1125e:	80c5e263          	bltu	a1,a2,10262 <crypto_hash+0x82>
   11262:	01ff4633          	xor	a2,t5,t6
   11266:	0123cab3          	xor	s5,t2,s2
   1126a:	fff3ce13          	not	t3,t2
   1126e:	0097c8b3          	xor	a7,a5,s1
   11272:	01344a33          	xor	s4,s0,s3
   11276:	0f064493          	xori	s1,a2,240
   1127a:	fff44f93          	not	t6,s0
   1127e:	015e7e33          	and	t3,t3,s5
   11282:	55a2                	lw	a1,40(sp)
   11284:	009e4e33          	xor	t3,t3,s1
   11288:	014fffb3          	and	t6,t6,s4
   1128c:	fffe4b13          	not	s6,t3
   11290:	011fcfb3          	xor	t6,t6,a7
   11294:	ffffc813          	not	a6,t6
   11298:	8bda                	mv	s7,s6
   1129a:	001b5d13          	srli	s10,s6,0x1
   1129e:	c05a                	sw	s6,0(sp)
   112a0:	0b7e                	slli	s6,s6,0x1f
   112a2:	c45a                	sw	s6,8(sp)
   112a4:	ff858293          	addi	t0,a1,-8
   112a8:	00185d93          	srli	s11,a6,0x1
   112ac:	01f81593          	slli	a1,a6,0x1f
   112b0:	01a81c93          	slli	s9,a6,0x1a
   112b4:	00685b13          	srli	s6,a6,0x6
   112b8:	c242                	sw	a6,4(sp)
   112ba:	5832                	lw	a6,44(sp)
   112bc:	ff82f293          	andi	t0,t0,-8
   112c0:	02a1                	addi	t0,t0,8
   112c2:	92c2                	add	t0,t0,a6
   112c4:	f0f64513          	xori	a0,a2,-241
   112c8:	fff7c613          	not	a2,a5
   112cc:	d616                	sw	t0,44(sp)
   112ce:	013749b3          	xor	s3,a4,s3
   112d2:	52a2                	lw	t0,40(sp)
   112d4:	01167733          	and	a4,a2,a7
   112d8:	4622                	lw	a2,8(sp)
   112da:	006bdc13          	srli	s8,s7,0x6
   112de:	fff8ce93          	not	t4,a7
   112e2:	ffff4313          	not	t1,t5
   112e6:	008efeb3          	and	t4,t4,s0
   112ea:	0072f813          	andi	a6,t0,7
   112ee:	00757533          	and	a0,a0,t2
   112f2:	0bea                	slli	s7,s7,0x1a
   112f4:	01b66db3          	or	s11,a2,s11
   112f8:	018ce633          	or	a2,s9,s8
   112fc:	0126c933          	xor	s2,a3,s2
   11300:	d442                	sw	a6,40(sp)
   11302:	009376b3          	and	a3,t1,s1
   11306:	01e54533          	xor	a0,a0,t5
   1130a:	00feceb3          	xor	t4,t4,a5
   1130e:	fffac313          	not	t1,s5
   11312:	fffa4893          	not	a7,s4
   11316:	01a5ed33          	or	s10,a1,s10
   1131a:	c432                	sw	a2,8(sp)
   1131c:	016bec33          	or	s8,s7,s6
   11320:	01c3ce33          	xor	t3,t2,t3
   11324:	01f44433          	xor	s0,s0,t6
   11328:	84c2                	mv	s1,a6
   1132a:	e099                	bnez	s1,11330 <crypto_hash+0x1150>
   1132c:	7e00206f          	j	13b0c <crypto_hash+0x392c>
   11330:	5b32                	lw	s6,44(sp)
   11332:	4605                	li	a2,1
   11334:	4381                	li	t2,0
   11336:	000b4283          	lbu	t0,0(s6)
   1133a:	02e2                	slli	t0,t0,0x18
   1133c:	04c48c63          	beq	s1,a2,11394 <crypto_hash+0x11b4>
   11340:	001b4603          	lbu	a2,1(s6)
   11344:	4f89                	li	t6,2
   11346:	0642                	slli	a2,a2,0x10
   11348:	00c2e2b3          	or	t0,t0,a2
   1134c:	05f48463          	beq	s1,t6,11394 <crypto_hash+0x11b4>
   11350:	002b4603          	lbu	a2,2(s6)
   11354:	4f8d                	li	t6,3
   11356:	0622                	slli	a2,a2,0x8
   11358:	00c2e2b3          	or	t0,t0,a2
   1135c:	03f48c63          	beq	s1,t6,11394 <crypto_hash+0x11b4>
   11360:	003b4f83          	lbu	t6,3(s6)
   11364:	4611                	li	a2,4
   11366:	01f2e2b3          	or	t0,t0,t6
   1136a:	02c48563          	beq	s1,a2,11394 <crypto_hash+0x11b4>
   1136e:	004b4383          	lbu	t2,4(s6)
   11372:	4615                	li	a2,5
   11374:	03e2                	slli	t2,t2,0x18
   11376:	00c48f63          	beq	s1,a2,11394 <crypto_hash+0x11b4>
   1137a:	005b4603          	lbu	a2,5(s6)
   1137e:	4f9d                	li	t6,7
   11380:	0642                	slli	a2,a2,0x10
   11382:	00c3e3b3          	or	t2,t2,a2
   11386:	01f49763          	bne	s1,t6,11394 <crypto_hash+0x11b4>
   1138a:	006b4603          	lbu	a2,6(s6)
   1138e:	0622                	slli	a2,a2,0x8
   11390:	00c3e3b3          	or	t2,t2,a2
   11394:	54a2                	lw	s1,40(sp)
   11396:	461d                	li	a2,7
   11398:	8e05                	sub	a2,a2,s1
   1139a:	060e                	slli	a2,a2,0x3
   1139c:	fe060493          	addi	s1,a2,-32
   113a0:	0004d463          	bgez	s1,113a8 <crypto_hash+0x11c8>
   113a4:	7500206f          	j	13af4 <crypto_hash+0x3914>
   113a8:	08000f93          	li	t6,128
   113ac:	009f9fb3          	sll	t6,t6,s1
   113b0:	4601                	li	a2,0
   113b2:	01264633          	xor	a2,a2,s2
   113b6:	007643b3          	xor	t2,a2,t2
   113ba:	013fcfb3          	xor	t6,t6,s3
   113be:	005fc4b3          	xor	s1,t6,t0
   113c2:	fff3c293          	not	t0,t2
   113c6:	00e4c633          	xor	a2,s1,a4
   113ca:	fff4cf93          	not	t6,s1
   113ce:	01e2f2b3          	and	t0,t0,t5
   113d2:	00d3cf33          	xor	t5,t2,a3
   113d6:	01d64eb3          	xor	t4,a2,t4
   113da:	00ffffb3          	and	t6,t6,a5
   113de:	00af47b3          	xor	a5,t5,a0
   113e2:	014fcfb3          	xor	t6,t6,s4
   113e6:	0152c2b3          	xor	t0,t0,s5
   113ea:	01d7dc93          	srli	s9,a5,0x1d
   113ee:	003e9a13          	slli	s4,t4,0x3
   113f2:	005f4533          	xor	a0,t5,t0
   113f6:	014cea33          	or	s4,s9,s4
   113fa:	01dedf13          	srli	t5,t4,0x1d
   113fe:	00379c93          	slli	s9,a5,0x3
   11402:	0063f6b3          	and	a3,t2,t1
   11406:	0114f733          	and	a4,s1,a7
   1140a:	0077d993          	srli	s3,a5,0x7
   1140e:	019f6f33          	or	t5,t5,s9
   11412:	019e9c93          	slli	s9,t4,0x19
   11416:	01c6c6b3          	xor	a3,a3,t3
   1141a:	8f21                	xor	a4,a4,s0
   1141c:	007edb13          	srli	s6,t4,0x7
   11420:	0199e9b3          	or	s3,s3,s9
   11424:	01979c93          	slli	s9,a5,0x19
   11428:	019b6b33          	or	s6,s6,s9
   1142c:	00a6d413          	srli	s0,a3,0xa
   11430:	01671c93          	slli	s9,a4,0x16
   11434:	00a75593          	srli	a1,a4,0xa
   11438:	008ce433          	or	s0,s9,s0
   1143c:	01669c93          	slli	s9,a3,0x16
   11440:	00bcecb3          	or	s9,s9,a1
   11444:	0116db93          	srli	s7,a3,0x11
   11448:	00f71593          	slli	a1,a4,0xf
   1144c:	0175ebb3          	or	s7,a1,s7
   11450:	01175393          	srli	t2,a4,0x11
   11454:	00f69593          	slli	a1,a3,0xf
   11458:	0072da93          	srli	s5,t0,0x7
   1145c:	0075e3b3          	or	t2,a1,t2
   11460:	019f9593          	slli	a1,t6,0x19
   11464:	c666                	sw	s9,12(sp)
   11466:	0155eab3          	or	s5,a1,s5
   1146a:	007fdc93          	srli	s9,t6,0x7
   1146e:	01929593          	slli	a1,t0,0x19
   11472:	0195ecb3          	or	s9,a1,s9
   11476:	017f9893          	slli	a7,t6,0x17
   1147a:	0092d593          	srli	a1,t0,0x9
   1147e:	01f64633          	xor	a2,a2,t6
   11482:	009fd313          	srli	t1,t6,0x9
   11486:	0115e8b3          	or	a7,a1,a7
   1148a:	01729593          	slli	a1,t0,0x17
   1148e:	00d61913          	slli	s2,a2,0xd
   11492:	00b36333          	or	t1,t1,a1
   11496:	01355593          	srli	a1,a0,0x13
   1149a:	00b96933          	or	s2,s2,a1
   1149e:	00d51493          	slli	s1,a0,0xd
   114a2:	01365593          	srli	a1,a2,0x13
   114a6:	01c65813          	srli	a6,a2,0x1c
   114aa:	c866                	sw	s9,16(sp)
   114ac:	8ccd                	or	s1,s1,a1
   114ae:	01c55c93          	srli	s9,a0,0x1c
   114b2:	00451593          	slli	a1,a0,0x4
   114b6:	00461e13          	slli	t3,a2,0x4
   114ba:	019e6e33          	or	t3,t3,s9
   114be:	0105ecb3          	or	s9,a1,a6
   114c2:	45b2                	lw	a1,12(sp)
   114c4:	4812                	lw	a6,4(sp)
   114c6:	016f4f33          	xor	t5,t5,s6
   114ca:	0075c3b3          	xor	t2,a1,t2
   114ce:	45c2                	lw	a1,16(sp)
   114d0:	00ff4f33          	xor	t5,t5,a5
   114d4:	47a2                	lw	a5,8(sp)
   114d6:	0115c8b3          	xor	a7,a1,a7
   114da:	4582                	lw	a1,0(sp)
   114dc:	013a49b3          	xor	s3,s4,s3
   114e0:	01b84833          	xor	a6,a6,s11
   114e4:	01a5c5b3          	xor	a1,a1,s10
   114e8:	01d9c9b3          	xor	s3,s3,t4
   114ec:	01884833          	xor	a6,a6,s8
   114f0:	8fad                	xor	a5,a5,a1
   114f2:	00e3c3b3          	xor	t2,t2,a4
   114f6:	01744433          	xor	s0,s0,s7
   114fa:	01f8c733          	xor	a4,a7,t6
   114fe:	01e7c7b3          	xor	a5,a5,t5
   11502:	013848b3          	xor	a7,a6,s3
   11506:	006ac333          	xor	t1,s5,t1
   1150a:	01c94e33          	xor	t3,s2,t3
   1150e:	0194ccb3          	xor	s9,s1,s9
   11512:	00d44933          	xor	s2,s0,a3
   11516:	0e17ca13          	xori	s4,a5,225
   1151a:	00534333          	xor	t1,t1,t0
   1151e:	00ae4e33          	xor	t3,t3,a0
   11522:	00ccccb3          	xor	s9,s9,a2
   11526:	fff9c693          	not	a3,s3
   1152a:	ffff4613          	not	a2,t5
   1152e:	fff8ce93          	not	t4,a7
   11532:	f1e7c793          	xori	a5,a5,-226
   11536:	006e42b3          	xor	t0,t3,t1
   1153a:	00eccfb3          	xor	t6,s9,a4
   1153e:	01467633          	and	a2,a2,s4
   11542:	0116f6b3          	and	a3,a3,a7
   11546:	0127f7b3          	and	a5,a5,s2
   1154a:	007efeb3          	and	t4,t4,t2
   1154e:	00564633          	xor	a2,a2,t0
   11552:	01f6c6b3          	xor	a3,a3,t6
   11556:	fff2c493          	not	s1,t0
   1155a:	01e7c7b3          	xor	a5,a5,t5
   1155e:	013eceb3          	xor	t4,t4,s3
   11562:	8fb1                	xor	a5,a5,a2
   11564:	00deceb3          	xor	t4,t4,a3
   11568:	00694833          	xor	a6,s2,t1
   1156c:	00e3c733          	xor	a4,t2,a4
   11570:	fff94513          	not	a0,s2
   11574:	01e4f4b3          	and	s1,s1,t5
   11578:	0104c4b3          	xor	s1,s1,a6
   1157c:	fff3c593          	not	a1,t2
   11580:	fff84e13          	not	t3,a6
   11584:	fff74313          	not	t1,a4
   11588:	01057533          	and	a0,a0,a6
   1158c:	01d7df13          	srli	t5,a5,0x1d
   11590:	003e9813          	slli	a6,t4,0x3
   11594:	ffffc413          	not	s0,t6
   11598:	8df9                	and	a1,a1,a4
   1159a:	005e7e33          	and	t3,t3,t0
   1159e:	01f37333          	and	t1,t1,t6
   115a2:	010f6f33          	or	t5,t5,a6
   115a6:	01dedf93          	srli	t6,t4,0x1d
   115aa:	00379813          	slli	a6,a5,0x3
   115ae:	01454533          	xor	a0,a0,s4
   115b2:	0115c5b3          	xor	a1,a1,a7
   115b6:	01347433          	and	s0,s0,s3
   115ba:	012e4e33          	xor	t3,t3,s2
   115be:	00734333          	xor	t1,t1,t2
   115c2:	0077d993          	srli	s3,a5,0x7
   115c6:	010fefb3          	or	t6,t6,a6
   115ca:	019e9813          	slli	a6,t4,0x19
   115ce:	00ae4e33          	xor	t3,t3,a0
   115d2:	00b34333          	xor	t1,t1,a1
   115d6:	0109e9b3          	or	s3,s3,a6
   115da:	007eda13          	srli	s4,t4,0x7
   115de:	01979813          	slli	a6,a5,0x19
   115e2:	010a6a33          	or	s4,s4,a6
   115e6:	00ae5a93          	srli	s5,t3,0xa
   115ea:	01631813          	slli	a6,t1,0x16
   115ee:	01586ab3          	or	s5,a6,s5
   115f2:	00a35b93          	srli	s7,t1,0xa
   115f6:	016e1813          	slli	a6,t3,0x16
   115fa:	01786bb3          	or	s7,a6,s7
   115fe:	c05e                	sw	s7,0(sp)
   11600:	00f31813          	slli	a6,t1,0xf
   11604:	011e5b93          	srli	s7,t3,0x11
   11608:	01786bb3          	or	s7,a6,s7
   1160c:	c25e                	sw	s7,4(sp)
   1160e:	8c39                	xor	s0,s0,a4
   11610:	00fe1813          	slli	a6,t3,0xf
   11614:	01135b93          	srli	s7,t1,0x11
   11618:	01786bb3          	or	s7,a6,s7
   1161c:	0074dd13          	srli	s10,s1,0x7
   11620:	01941813          	slli	a6,s0,0x19
   11624:	01a86d33          	or	s10,a6,s10
   11628:	00745c93          	srli	s9,s0,0x7
   1162c:	01949813          	slli	a6,s1,0x19
   11630:	01986cb3          	or	s9,a6,s9
   11634:	01741293          	slli	t0,s0,0x17
   11638:	0094d813          	srli	a6,s1,0x9
   1163c:	fff54513          	not	a0,a0
   11640:	fff5c593          	not	a1,a1
   11644:	01749393          	slli	t2,s1,0x17
   11648:	005862b3          	or	t0,a6,t0
   1164c:	00945813          	srli	a6,s0,0x9
   11650:	00155c13          	srli	s8,a0,0x1
   11654:	007863b3          	or	t2,a6,t2
   11658:	01f59813          	slli	a6,a1,0x1f
   1165c:	c45e                	sw	s7,8(sp)
   1165e:	01886c33          	or	s8,a6,s8
   11662:	0015db93          	srli	s7,a1,0x1
   11666:	01f51813          	slli	a6,a0,0x1f
   1166a:	01786bb3          	or	s7,a6,s7
   1166e:	00655713          	srli	a4,a0,0x6
   11672:	01a59813          	slli	a6,a1,0x1a
   11676:	8e25                	xor	a2,a2,s1
   11678:	8ea1                	xor	a3,a3,s0
   1167a:	00e86733          	or	a4,a6,a4
   1167e:	0065d913          	srli	s2,a1,0x6
   11682:	01a51813          	slli	a6,a0,0x1a
   11686:	0136d893          	srli	a7,a3,0x13
   1168a:	01365b13          	srli	s6,a2,0x13
   1168e:	01286933          	or	s2,a6,s2
   11692:	00d69813          	slli	a6,a3,0xd
   11696:	01686b33          	or	s6,a6,s6
   1169a:	8dc6                	mv	s11,a7
   1169c:	00d61813          	slli	a6,a2,0xd
   116a0:	013f4f33          	xor	t5,t5,s3
   116a4:	4992                	lw	s3,4(sp)
   116a6:	01b86db3          	or	s11,a6,s11
   116aa:	01c65893          	srli	a7,a2,0x1c
   116ae:	00469813          	slli	a6,a3,0x4
   116b2:	c63a                	sw	a4,12(sp)
   116b4:	011868b3          	or	a7,a6,a7
   116b8:	00461713          	slli	a4,a2,0x4
   116bc:	01c6d813          	srli	a6,a3,0x1c
   116c0:	01076833          	or	a6,a4,a6
   116c4:	014fcfb3          	xor	t6,t6,s4
   116c8:	4732                	lw	a4,12(sp)
   116ca:	4a02                	lw	s4,0(sp)
   116cc:	013ac9b3          	xor	s3,s5,s3
   116d0:	4aa2                	lw	s5,8(sp)
   116d2:	005cc2b3          	xor	t0,s9,t0
   116d6:	00ec4733          	xor	a4,s8,a4
   116da:	015a4a33          	xor	s4,s4,s5
   116de:	007d43b3          	xor	t2,s10,t2
   116e2:	011b48b3          	xor	a7,s6,a7
   116e6:	010dc833          	xor	a6,s11,a6
   116ea:	00ffcfb3          	xor	t6,t6,a5
   116ee:	006a4a33          	xor	s4,s4,t1
   116f2:	0093c3b3          	xor	t2,t2,s1
   116f6:	0082c333          	xor	t1,t0,s0
   116fa:	00a747b3          	xor	a5,a4,a0
   116fe:	012bc933          	xor	s2,s7,s2
   11702:	00c8c8b3          	xor	a7,a7,a2
   11706:	00d84833          	xor	a6,a6,a3
   1170a:	01df4f33          	xor	t5,t5,t4
   1170e:	0078c8b3          	xor	a7,a7,t2
   11712:	00684833          	xor	a6,a6,t1
   11716:	01f7c7b3          	xor	a5,a5,t6
   1171a:	00b94933          	xor	s2,s2,a1
   1171e:	01c9c9b3          	xor	s3,s3,t3
   11722:	006a4733          	xor	a4,s4,t1
   11726:	01e94933          	xor	s2,s2,t5
   1172a:	0d27c293          	xori	t0,a5,210
   1172e:	ffffc493          	not	s1,t6
   11732:	fff8c613          	not	a2,a7
   11736:	fff84693          	not	a3,a6
   1173a:	f2d7c793          	xori	a5,a5,-211
   1173e:	0079c3b3          	xor	t2,s3,t2
   11742:	0137f7b3          	and	a5,a5,s3
   11746:	ffff4413          	not	s0,t5
   1174a:	fff9c513          	not	a0,s3
   1174e:	fffa4593          	not	a1,s4
   11752:	fff94e13          	not	t3,s2
   11756:	fff74e93          	not	t4,a4
   1175a:	0054f4b3          	and	s1,s1,t0
   1175e:	01f67633          	and	a2,a2,t6
   11762:	01e6f6b3          	and	a3,a3,t5
   11766:	00764633          	xor	a2,a2,t2
   1176a:	8eb9                	xor	a3,a3,a4
   1176c:	0114c4b3          	xor	s1,s1,a7
   11770:	01247433          	and	s0,s0,s2
   11774:	010efeb3          	and	t4,t4,a6
   11778:	fff3c313          	not	t1,t2
   1177c:	00757533          	and	a0,a0,t2
   11780:	8df9                	and	a1,a1,a4
   11782:	014e7e33          	and	t3,t3,s4
   11786:	01f7c733          	xor	a4,a5,t6
   1178a:	8f25                	xor	a4,a4,s1
   1178c:	01044bb3          	xor	s7,s0,a6
   11790:	00554533          	xor	a0,a0,t0
   11794:	0125c5b3          	xor	a1,a1,s2
   11798:	8426                	mv	s0,s1
   1179a:	00765393          	srli	t2,a2,0x7
   1179e:	0076d293          	srli	t0,a3,0x7
   117a2:	01769813          	slli	a6,a3,0x17
   117a6:	01761793          	slli	a5,a2,0x17
   117aa:	01137333          	and	t1,t1,a7
   117ae:	01ee4e33          	xor	t3,t3,t5
   117b2:	014ec8b3          	xor	a7,t4,s4
   117b6:	01969913          	slli	s2,a3,0x19
   117ba:	01961493          	slli	s1,a2,0x19
   117be:	00965e93          	srli	t4,a2,0x9
   117c2:	0096db13          	srli	s6,a3,0x9
   117c6:	017e4e33          	xor	t3,t3,s7
   117ca:	010eeeb3          	or	t4,t4,a6
   117ce:	00fb6b33          	or	s6,s6,a5
   117d2:	00796933          	or	s2,s2,t2
   117d6:	0054e4b3          	or	s1,s1,t0
   117da:	01694933          	xor	s2,s2,s6
   117de:	01d4c4b3          	xor	s1,s1,t4
   117e2:	003e1b13          	slli	s6,t3,0x3
   117e6:	01d75e93          	srli	t4,a4,0x1d
   117ea:	016eeb33          	or	s6,t4,s6
   117ee:	01de5c93          	srli	s9,t3,0x1d
   117f2:	00371e93          	slli	t4,a4,0x3
   117f6:	01dcecb3          	or	s9,s9,t4
   117fa:	01334333          	xor	t1,t1,s3
   117fe:	019e1e93          	slli	t4,t3,0x19
   11802:	00775c13          	srli	s8,a4,0x7
   11806:	00a34333          	xor	t1,t1,a0
   1180a:	00b8c8b3          	xor	a7,a7,a1
   1180e:	01971f93          	slli	t6,a4,0x19
   11812:	01dc6c33          	or	s8,s8,t4
   11816:	007e5e93          	srli	t4,t3,0x7
   1181a:	fff5c593          	not	a1,a1
   1181e:	fff54513          	not	a0,a0
   11822:	00a35f13          	srli	t5,t1,0xa
   11826:	01feefb3          	or	t6,t4,t6
   1182a:	01689e93          	slli	t4,a7,0x16
   1182e:	c25a                	sw	s6,4(sp)
   11830:	0015dd13          	srli	s10,a1,0x1
   11834:	0065d293          	srli	t0,a1,0x6
   11838:	01f51a13          	slli	s4,a0,0x1f
   1183c:	01a51813          	slli	a6,a0,0x1a
   11840:	01eeef33          	or	t5,t4,t5
   11844:	00a8db13          	srli	s6,a7,0xa
   11848:	01631e93          	slli	t4,t1,0x16
   1184c:	c022                	sw	s0,0(sp)
   1184e:	01135d93          	srli	s11,t1,0x11
   11852:	016eeb33          	or	s6,t4,s6
   11856:	01aa6a33          	or	s4,s4,s10
   1185a:	00f89e93          	slli	t4,a7,0xf
   1185e:	00586833          	or	a6,a6,t0
   11862:	01fccfb3          	xor	t6,s9,t6
   11866:	4c92                	lw	s9,4(sp)
   11868:	00155393          	srli	t2,a0,0x1
   1186c:	01beeeb3          	or	t4,t4,s11
   11870:	01f59a93          	slli	s5,a1,0x1f
   11874:	010a4833          	xor	a6,s4,a6
   11878:	4a02                	lw	s4,0(sp)
   1187a:	c476                	sw	t4,8(sp)
   1187c:	00dbc9b3          	xor	s3,s7,a3
   11880:	8c31                	xor	s0,s0,a2
   11882:	0118dd93          	srli	s11,a7,0x11
   11886:	007aeab3          	or	s5,s5,t2
   1188a:	00655793          	srli	a5,a0,0x6
   1188e:	01a59393          	slli	t2,a1,0x1a
   11892:	00f31e93          	slli	t4,t1,0xf
   11896:	00d41d13          	slli	s10,s0,0xd
   1189a:	01beeeb3          	or	t4,t4,s11
   1189e:	00f3e7b3          	or	a5,t2,a5
   118a2:	00d99d93          	slli	s11,s3,0xd
   118a6:	01345393          	srli	t2,s0,0x13
   118aa:	0139d293          	srli	t0,s3,0x13
   118ae:	018ccc33          	xor	s8,s9,s8
   118b2:	4ca2                	lw	s9,8(sp)
   118b4:	00fac7b3          	xor	a5,s5,a5
   118b8:	009bcbb3          	xor	s7,s7,s1
   118bc:	01c45a93          	srli	s5,s0,0x1c
   118c0:	01db4eb3          	xor	t4,s6,t4
   118c4:	007de3b3          	or	t2,s11,t2
   118c8:	012a4b33          	xor	s6,s4,s2
   118cc:	005d62b3          	or	t0,s10,t0
   118d0:	00499a13          	slli	s4,s3,0x4
   118d4:	0412                	slli	s0,s0,0x4
   118d6:	01c9d993          	srli	s3,s3,0x1c
   118da:	00efcfb3          	xor	t6,t6,a4
   118de:	011eceb3          	xor	t4,t4,a7
   118e2:	8d3d                	xor	a0,a0,a5
   118e4:	015a6a33          	or	s4,s4,s5
   118e8:	01346433          	or	s0,s0,s3
   118ec:	8ea5                	xor	a3,a3,s1
   118ee:	0163c3b3          	xor	t2,t2,s6
   118f2:	0172c2b3          	xor	t0,t0,s7
   118f6:	01cc4c33          	xor	s8,s8,t3
   118fa:	01d6c7b3          	xor	a5,a3,t4
   118fe:	0143c3b3          	xor	t2,t2,s4
   11902:	0082c2b3          	xor	t0,t0,s0
   11906:	01f546b3          	xor	a3,a0,t6
   1190a:	00b84833          	xor	a6,a6,a1
   1190e:	019f4f33          	xor	t5,t5,s9
   11912:	006f4f33          	xor	t5,t5,t1
   11916:	018844b3          	xor	s1,a6,s8
   1191a:	01264733          	xor	a4,a2,s2
   1191e:	ffffca13          	not	s4,t6
   11922:	0c36c913          	xori	s2,a3,195
   11926:	fff3c613          	not	a2,t2
   1192a:	fff2c813          	not	a6,t0
   1192e:	f3c6c693          	xori	a3,a3,-196
   11932:	01e74733          	xor	a4,a4,t5
   11936:	01e6f433          	and	s0,a3,t5
   1193a:	012a7a33          	and	s4,s4,s2
   1193e:	01887833          	and	a6,a6,s8
   11942:	fffc4993          	not	s3,s8
   11946:	ffff4513          	not	a0,t5
   1194a:	fffec593          	not	a1,t4
   1194e:	fff4ce13          	not	t3,s1
   11952:	fff7c893          	not	a7,a5
   11956:	01f67633          	and	a2,a2,t6
   1195a:	8e39                	xor	a2,a2,a4
   1195c:	00f846b3          	xor	a3,a6,a5
   11960:	0099f9b3          	and	s3,s3,s1
   11964:	fff74313          	not	t1,a4
   11968:	8d79                	and	a0,a0,a4
   1196a:	8dfd                	and	a1,a1,a5
   1196c:	01f44733          	xor	a4,s0,t6
   11970:	007a47b3          	xor	a5,s4,t2
   11974:	01de7e33          	and	t3,t3,t4
   11978:	0058f8b3          	and	a7,a7,t0
   1197c:	8f3d                	xor	a4,a4,a5
   1197e:	0059cbb3          	xor	s7,s3,t0
   11982:	01254533          	xor	a0,a0,s2
   11986:	8da5                	xor	a1,a1,s1
   11988:	843e                	mv	s0,a5
   1198a:	0076d293          	srli	t0,a3,0x7
   1198e:	01769813          	slli	a6,a3,0x17
   11992:	01761793          	slli	a5,a2,0x17
   11996:	00737333          	and	t1,t1,t2
   1199a:	018e4e33          	xor	t3,t3,s8
   1199e:	00765393          	srli	t2,a2,0x7
   119a2:	01d8c8b3          	xor	a7,a7,t4
   119a6:	01969913          	slli	s2,a3,0x19
   119aa:	01961493          	slli	s1,a2,0x19
   119ae:	00965e93          	srli	t4,a2,0x9
   119b2:	0096db13          	srli	s6,a3,0x9
   119b6:	017e4e33          	xor	t3,t3,s7
   119ba:	010eeeb3          	or	t4,t4,a6
   119be:	00fb6b33          	or	s6,s6,a5
   119c2:	00796933          	or	s2,s2,t2
   119c6:	0054e4b3          	or	s1,s1,t0
   119ca:	01694933          	xor	s2,s2,s6
   119ce:	01d4c4b3          	xor	s1,s1,t4
   119d2:	003e1b13          	slli	s6,t3,0x3
   119d6:	01d75e93          	srli	t4,a4,0x1d
   119da:	016eeb33          	or	s6,t4,s6
   119de:	01de5c93          	srli	s9,t3,0x1d
   119e2:	00371e93          	slli	t4,a4,0x3
   119e6:	01dcecb3          	or	s9,s9,t4
   119ea:	01e34333          	xor	t1,t1,t5
   119ee:	019e1e93          	slli	t4,t3,0x19
   119f2:	00775c13          	srli	s8,a4,0x7
   119f6:	00a34333          	xor	t1,t1,a0
   119fa:	00b8c8b3          	xor	a7,a7,a1
   119fe:	01971f93          	slli	t6,a4,0x19
   11a02:	01dc6c33          	or	s8,s8,t4
   11a06:	007e5e93          	srli	t4,t3,0x7
   11a0a:	fff5c593          	not	a1,a1
   11a0e:	fff54513          	not	a0,a0
   11a12:	00a35f13          	srli	t5,t1,0xa
   11a16:	01feefb3          	or	t6,t4,t6
   11a1a:	01689e93          	slli	t4,a7,0x16
   11a1e:	c25a                	sw	s6,4(sp)
   11a20:	0015dd13          	srli	s10,a1,0x1
   11a24:	0065d293          	srli	t0,a1,0x6
   11a28:	01f51a13          	slli	s4,a0,0x1f
   11a2c:	01a51813          	slli	a6,a0,0x1a
   11a30:	01eeef33          	or	t5,t4,t5
   11a34:	00a8db13          	srli	s6,a7,0xa
   11a38:	01631e93          	slli	t4,t1,0x16
   11a3c:	c022                	sw	s0,0(sp)
   11a3e:	01135d93          	srli	s11,t1,0x11
   11a42:	016eeb33          	or	s6,t4,s6
   11a46:	01aa6a33          	or	s4,s4,s10
   11a4a:	00f89e93          	slli	t4,a7,0xf
   11a4e:	00586833          	or	a6,a6,t0
   11a52:	01fccfb3          	xor	t6,s9,t6
   11a56:	4c92                	lw	s9,4(sp)
   11a58:	00155393          	srli	t2,a0,0x1
   11a5c:	01beeeb3          	or	t4,t4,s11
   11a60:	01f59a93          	slli	s5,a1,0x1f
   11a64:	010a4833          	xor	a6,s4,a6
   11a68:	4a02                	lw	s4,0(sp)
   11a6a:	00dbc9b3          	xor	s3,s7,a3
   11a6e:	8c31                	xor	s0,s0,a2
   11a70:	c476                	sw	t4,8(sp)
   11a72:	0118dd93          	srli	s11,a7,0x11
   11a76:	007aeab3          	or	s5,s5,t2
   11a7a:	00655793          	srli	a5,a0,0x6
   11a7e:	01a59393          	slli	t2,a1,0x1a
   11a82:	00f31e93          	slli	t4,t1,0xf
   11a86:	00d41d13          	slli	s10,s0,0xd
   11a8a:	01beeeb3          	or	t4,t4,s11
   11a8e:	00f3e7b3          	or	a5,t2,a5
   11a92:	00d99d93          	slli	s11,s3,0xd
   11a96:	01345393          	srli	t2,s0,0x13
   11a9a:	0139d293          	srli	t0,s3,0x13
   11a9e:	018ccc33          	xor	s8,s9,s8
   11aa2:	4ca2                	lw	s9,8(sp)
   11aa4:	00fac7b3          	xor	a5,s5,a5
   11aa8:	009bcbb3          	xor	s7,s7,s1
   11aac:	01c45a93          	srli	s5,s0,0x1c
   11ab0:	01db4eb3          	xor	t4,s6,t4
   11ab4:	007de3b3          	or	t2,s11,t2
   11ab8:	012a4b33          	xor	s6,s4,s2
   11abc:	005d62b3          	or	t0,s10,t0
   11ac0:	00499a13          	slli	s4,s3,0x4
   11ac4:	0412                	slli	s0,s0,0x4
   11ac6:	01c9d993          	srli	s3,s3,0x1c
   11aca:	00efcfb3          	xor	t6,t6,a4
   11ace:	011eceb3          	xor	t4,t4,a7
   11ad2:	8d3d                	xor	a0,a0,a5
   11ad4:	015a6a33          	or	s4,s4,s5
   11ad8:	01346433          	or	s0,s0,s3
   11adc:	8ea5                	xor	a3,a3,s1
   11ade:	0163c3b3          	xor	t2,t2,s6
   11ae2:	0172c2b3          	xor	t0,t0,s7
   11ae6:	01cc4c33          	xor	s8,s8,t3
   11aea:	01d6c7b3          	xor	a5,a3,t4
   11aee:	0143c3b3          	xor	t2,t2,s4
   11af2:	0082c2b3          	xor	t0,t0,s0
   11af6:	01f546b3          	xor	a3,a0,t6
   11afa:	00b84833          	xor	a6,a6,a1
   11afe:	019f4f33          	xor	t5,t5,s9
   11b02:	006f4f33          	xor	t5,t5,t1
   11b06:	018844b3          	xor	s1,a6,s8
   11b0a:	01264733          	xor	a4,a2,s2
   11b0e:	ffffca13          	not	s4,t6
   11b12:	0b46c913          	xori	s2,a3,180
   11b16:	fff3c613          	not	a2,t2
   11b1a:	fff2c813          	not	a6,t0
   11b1e:	f4b6c693          	xori	a3,a3,-181
   11b22:	01e74733          	xor	a4,a4,t5
   11b26:	01e6f433          	and	s0,a3,t5
   11b2a:	012a7a33          	and	s4,s4,s2
   11b2e:	01887833          	and	a6,a6,s8
   11b32:	fffc4993          	not	s3,s8
   11b36:	ffff4513          	not	a0,t5
   11b3a:	fffec593          	not	a1,t4
   11b3e:	fff4ce13          	not	t3,s1
   11b42:	fff7c893          	not	a7,a5
   11b46:	01f67633          	and	a2,a2,t6
   11b4a:	8e39                	xor	a2,a2,a4
   11b4c:	00f846b3          	xor	a3,a6,a5
   11b50:	0099f9b3          	and	s3,s3,s1
   11b54:	fff74313          	not	t1,a4
   11b58:	8d79                	and	a0,a0,a4
   11b5a:	8dfd                	and	a1,a1,a5
   11b5c:	01f44733          	xor	a4,s0,t6
   11b60:	007a47b3          	xor	a5,s4,t2
   11b64:	01de7e33          	and	t3,t3,t4
   11b68:	0058f8b3          	and	a7,a7,t0
   11b6c:	8f3d                	xor	a4,a4,a5
   11b6e:	0059cbb3          	xor	s7,s3,t0
   11b72:	01254533          	xor	a0,a0,s2
   11b76:	8da5                	xor	a1,a1,s1
   11b78:	843e                	mv	s0,a5
   11b7a:	0076d293          	srli	t0,a3,0x7
   11b7e:	01769813          	slli	a6,a3,0x17
   11b82:	01761793          	slli	a5,a2,0x17
   11b86:	00737333          	and	t1,t1,t2
   11b8a:	018e4e33          	xor	t3,t3,s8
   11b8e:	00765393          	srli	t2,a2,0x7
   11b92:	01d8c8b3          	xor	a7,a7,t4
   11b96:	01969913          	slli	s2,a3,0x19
   11b9a:	01961493          	slli	s1,a2,0x19
   11b9e:	00965e93          	srli	t4,a2,0x9
   11ba2:	0096db13          	srli	s6,a3,0x9
   11ba6:	017e4e33          	xor	t3,t3,s7
   11baa:	010eeeb3          	or	t4,t4,a6
   11bae:	00fb6b33          	or	s6,s6,a5
   11bb2:	00796933          	or	s2,s2,t2
   11bb6:	0054e4b3          	or	s1,s1,t0
   11bba:	01694933          	xor	s2,s2,s6
   11bbe:	01d4c4b3          	xor	s1,s1,t4
   11bc2:	003e1b13          	slli	s6,t3,0x3
   11bc6:	01d75e93          	srli	t4,a4,0x1d
   11bca:	016eeb33          	or	s6,t4,s6
   11bce:	01de5c93          	srli	s9,t3,0x1d
   11bd2:	00371e93          	slli	t4,a4,0x3
   11bd6:	01dcecb3          	or	s9,s9,t4
   11bda:	01e34333          	xor	t1,t1,t5
   11bde:	019e1e93          	slli	t4,t3,0x19
   11be2:	00775c13          	srli	s8,a4,0x7
   11be6:	00a34333          	xor	t1,t1,a0
   11bea:	00b8c8b3          	xor	a7,a7,a1
   11bee:	01971f93          	slli	t6,a4,0x19
   11bf2:	01dc6c33          	or	s8,s8,t4
   11bf6:	007e5e93          	srli	t4,t3,0x7
   11bfa:	00a35f13          	srli	t5,t1,0xa
   11bfe:	01feefb3          	or	t6,t4,t6
   11c02:	01689e93          	slli	t4,a7,0x16
   11c06:	c25a                	sw	s6,4(sp)
   11c08:	01eeef33          	or	t5,t4,t5
   11c0c:	00a8db13          	srli	s6,a7,0xa
   11c10:	01631e93          	slli	t4,t1,0x16
   11c14:	fff5c593          	not	a1,a1
   11c18:	fff54513          	not	a0,a0
   11c1c:	01135d93          	srli	s11,t1,0x11
   11c20:	016eeb33          	or	s6,t4,s6
   11c24:	01fccfb3          	xor	t6,s9,t6
   11c28:	00f89e93          	slli	t4,a7,0xf
   11c2c:	4c92                	lw	s9,4(sp)
   11c2e:	0015dd13          	srli	s10,a1,0x1
   11c32:	0065d293          	srli	t0,a1,0x6
   11c36:	01beeeb3          	or	t4,t4,s11
   11c3a:	01f51a13          	slli	s4,a0,0x1f
   11c3e:	01a51813          	slli	a6,a0,0x1a
   11c42:	c476                	sw	t4,8(sp)
   11c44:	01aa6a33          	or	s4,s4,s10
   11c48:	c022                	sw	s0,0(sp)
   11c4a:	00586833          	or	a6,a6,t0
   11c4e:	00155393          	srli	t2,a0,0x1
   11c52:	01f59a93          	slli	s5,a1,0x1f
   11c56:	018ccc33          	xor	s8,s9,s8
   11c5a:	010a4833          	xor	a6,s4,a6
   11c5e:	4ca2                	lw	s9,8(sp)
   11c60:	4a02                	lw	s4,0(sp)
   11c62:	00dbc9b3          	xor	s3,s7,a3
   11c66:	8c31                	xor	s0,s0,a2
   11c68:	0118dd93          	srli	s11,a7,0x11
   11c6c:	007aeab3          	or	s5,s5,t2
   11c70:	00655793          	srli	a5,a0,0x6
   11c74:	01a59393          	slli	t2,a1,0x1a
   11c78:	00f31e93          	slli	t4,t1,0xf
   11c7c:	00d41d13          	slli	s10,s0,0xd
   11c80:	01beeeb3          	or	t4,t4,s11
   11c84:	00f3e7b3          	or	a5,t2,a5
   11c88:	00d99d93          	slli	s11,s3,0xd
   11c8c:	01345393          	srli	t2,s0,0x13
   11c90:	0139d293          	srli	t0,s3,0x13
   11c94:	00fac7b3          	xor	a5,s5,a5
   11c98:	009bcbb3          	xor	s7,s7,s1
   11c9c:	01c45a93          	srli	s5,s0,0x1c
   11ca0:	01db4eb3          	xor	t4,s6,t4
   11ca4:	007de3b3          	or	t2,s11,t2
   11ca8:	012a4b33          	xor	s6,s4,s2
   11cac:	005d62b3          	or	t0,s10,t0
   11cb0:	00499a13          	slli	s4,s3,0x4
   11cb4:	0412                	slli	s0,s0,0x4
   11cb6:	01c9d993          	srli	s3,s3,0x1c
   11cba:	00efcfb3          	xor	t6,t6,a4
   11cbe:	011eceb3          	xor	t4,t4,a7
   11cc2:	8d3d                	xor	a0,a0,a5
   11cc4:	015a6a33          	or	s4,s4,s5
   11cc8:	01346433          	or	s0,s0,s3
   11ccc:	8ea5                	xor	a3,a3,s1
   11cce:	0163c3b3          	xor	t2,t2,s6
   11cd2:	0172c2b3          	xor	t0,t0,s7
   11cd6:	01cc4c33          	xor	s8,s8,t3
   11cda:	01d6c7b3          	xor	a5,a3,t4
   11cde:	0143c3b3          	xor	t2,t2,s4
   11ce2:	0082c2b3          	xor	t0,t0,s0
   11ce6:	01f546b3          	xor	a3,a0,t6
   11cea:	00b84833          	xor	a6,a6,a1
   11cee:	019f4f33          	xor	t5,t5,s9
   11cf2:	006f4f33          	xor	t5,t5,t1
   11cf6:	018844b3          	xor	s1,a6,s8
   11cfa:	01264733          	xor	a4,a2,s2
   11cfe:	ffffca13          	not	s4,t6
   11d02:	0a56c913          	xori	s2,a3,165
   11d06:	fff3c613          	not	a2,t2
   11d0a:	fff2c813          	not	a6,t0
   11d0e:	f5a6c693          	xori	a3,a3,-166
   11d12:	01e74733          	xor	a4,a4,t5
   11d16:	01e6f433          	and	s0,a3,t5
   11d1a:	012a7a33          	and	s4,s4,s2
   11d1e:	01887833          	and	a6,a6,s8
   11d22:	fffc4993          	not	s3,s8
   11d26:	ffff4513          	not	a0,t5
   11d2a:	fffec593          	not	a1,t4
   11d2e:	fff4ce13          	not	t3,s1
   11d32:	fff7c893          	not	a7,a5
   11d36:	01f67633          	and	a2,a2,t6
   11d3a:	8e39                	xor	a2,a2,a4
   11d3c:	00f846b3          	xor	a3,a6,a5
   11d40:	0099f9b3          	and	s3,s3,s1
   11d44:	fff74313          	not	t1,a4
   11d48:	8d79                	and	a0,a0,a4
   11d4a:	8dfd                	and	a1,a1,a5
   11d4c:	01f44733          	xor	a4,s0,t6
   11d50:	007a47b3          	xor	a5,s4,t2
   11d54:	01de7e33          	and	t3,t3,t4
   11d58:	0058f8b3          	and	a7,a7,t0
   11d5c:	8f3d                	xor	a4,a4,a5
   11d5e:	0059cbb3          	xor	s7,s3,t0
   11d62:	01254533          	xor	a0,a0,s2
   11d66:	8da5                	xor	a1,a1,s1
   11d68:	843e                	mv	s0,a5
   11d6a:	0076d293          	srli	t0,a3,0x7
   11d6e:	01769813          	slli	a6,a3,0x17
   11d72:	01761793          	slli	a5,a2,0x17
   11d76:	00737333          	and	t1,t1,t2
   11d7a:	018e4e33          	xor	t3,t3,s8
   11d7e:	00765393          	srli	t2,a2,0x7
   11d82:	01d8c8b3          	xor	a7,a7,t4
   11d86:	01969913          	slli	s2,a3,0x19
   11d8a:	01961493          	slli	s1,a2,0x19
   11d8e:	00965e93          	srli	t4,a2,0x9
   11d92:	0096db13          	srli	s6,a3,0x9
   11d96:	017e4e33          	xor	t3,t3,s7
   11d9a:	010eeeb3          	or	t4,t4,a6
   11d9e:	00fb6b33          	or	s6,s6,a5
   11da2:	00796933          	or	s2,s2,t2
   11da6:	0054e4b3          	or	s1,s1,t0
   11daa:	01694933          	xor	s2,s2,s6
   11dae:	01d4c4b3          	xor	s1,s1,t4
   11db2:	003e1b13          	slli	s6,t3,0x3
   11db6:	01d75e93          	srli	t4,a4,0x1d
   11dba:	016eeb33          	or	s6,t4,s6
   11dbe:	01de5c93          	srli	s9,t3,0x1d
   11dc2:	00371e93          	slli	t4,a4,0x3
   11dc6:	01dcecb3          	or	s9,s9,t4
   11dca:	01e34333          	xor	t1,t1,t5
   11dce:	019e1e93          	slli	t4,t3,0x19
   11dd2:	00775c13          	srli	s8,a4,0x7
   11dd6:	00a34333          	xor	t1,t1,a0
   11dda:	00b8c8b3          	xor	a7,a7,a1
   11dde:	01971f93          	slli	t6,a4,0x19
   11de2:	01dc6c33          	or	s8,s8,t4
   11de6:	007e5e93          	srli	t4,t3,0x7
   11dea:	fff5c593          	not	a1,a1
   11dee:	fff54513          	not	a0,a0
   11df2:	00a35f13          	srli	t5,t1,0xa
   11df6:	01feefb3          	or	t6,t4,t6
   11dfa:	01689e93          	slli	t4,a7,0x16
   11dfe:	c25a                	sw	s6,4(sp)
   11e00:	0015dd13          	srli	s10,a1,0x1
   11e04:	0065d293          	srli	t0,a1,0x6
   11e08:	01f51a13          	slli	s4,a0,0x1f
   11e0c:	01a51813          	slli	a6,a0,0x1a
   11e10:	01eeef33          	or	t5,t4,t5
   11e14:	00a8db13          	srli	s6,a7,0xa
   11e18:	01631e93          	slli	t4,t1,0x16
   11e1c:	c022                	sw	s0,0(sp)
   11e1e:	01135d93          	srli	s11,t1,0x11
   11e22:	016eeb33          	or	s6,t4,s6
   11e26:	01aa6a33          	or	s4,s4,s10
   11e2a:	00f89e93          	slli	t4,a7,0xf
   11e2e:	00586833          	or	a6,a6,t0
   11e32:	01fccfb3          	xor	t6,s9,t6
   11e36:	4c92                	lw	s9,4(sp)
   11e38:	00155393          	srli	t2,a0,0x1
   11e3c:	01beeeb3          	or	t4,t4,s11
   11e40:	01f59a93          	slli	s5,a1,0x1f
   11e44:	010a4833          	xor	a6,s4,a6
   11e48:	4a02                	lw	s4,0(sp)
   11e4a:	c476                	sw	t4,8(sp)
   11e4c:	00dbc9b3          	xor	s3,s7,a3
   11e50:	8c31                	xor	s0,s0,a2
   11e52:	0118dd93          	srli	s11,a7,0x11
   11e56:	007aeab3          	or	s5,s5,t2
   11e5a:	00655793          	srli	a5,a0,0x6
   11e5e:	01a59393          	slli	t2,a1,0x1a
   11e62:	00f31e93          	slli	t4,t1,0xf
   11e66:	00d41d13          	slli	s10,s0,0xd
   11e6a:	01beeeb3          	or	t4,t4,s11
   11e6e:	00f3e7b3          	or	a5,t2,a5
   11e72:	00d99d93          	slli	s11,s3,0xd
   11e76:	01345393          	srli	t2,s0,0x13
   11e7a:	0139d293          	srli	t0,s3,0x13
   11e7e:	018ccc33          	xor	s8,s9,s8
   11e82:	4ca2                	lw	s9,8(sp)
   11e84:	00fac7b3          	xor	a5,s5,a5
   11e88:	009bcbb3          	xor	s7,s7,s1
   11e8c:	01c45a93          	srli	s5,s0,0x1c
   11e90:	01db4eb3          	xor	t4,s6,t4
   11e94:	007de3b3          	or	t2,s11,t2
   11e98:	012a4b33          	xor	s6,s4,s2
   11e9c:	005d62b3          	or	t0,s10,t0
   11ea0:	00499a13          	slli	s4,s3,0x4
   11ea4:	0412                	slli	s0,s0,0x4
   11ea6:	01c9d993          	srli	s3,s3,0x1c
   11eaa:	00efcfb3          	xor	t6,t6,a4
   11eae:	011eceb3          	xor	t4,t4,a7
   11eb2:	8d3d                	xor	a0,a0,a5
   11eb4:	015a6a33          	or	s4,s4,s5
   11eb8:	01346433          	or	s0,s0,s3
   11ebc:	8ea5                	xor	a3,a3,s1
   11ebe:	0163c3b3          	xor	t2,t2,s6
   11ec2:	0172c2b3          	xor	t0,t0,s7
   11ec6:	01cc4c33          	xor	s8,s8,t3
   11eca:	01d6c7b3          	xor	a5,a3,t4
   11ece:	0143c3b3          	xor	t2,t2,s4
   11ed2:	0082c2b3          	xor	t0,t0,s0
   11ed6:	01f546b3          	xor	a3,a0,t6
   11eda:	00b84833          	xor	a6,a6,a1
   11ede:	019f4f33          	xor	t5,t5,s9
   11ee2:	006f4f33          	xor	t5,t5,t1
   11ee6:	018844b3          	xor	s1,a6,s8
   11eea:	01264733          	xor	a4,a2,s2
   11eee:	ffffca13          	not	s4,t6
   11ef2:	0966c913          	xori	s2,a3,150
   11ef6:	fff3c613          	not	a2,t2
   11efa:	fff2c813          	not	a6,t0
   11efe:	f696c693          	xori	a3,a3,-151
   11f02:	01e74733          	xor	a4,a4,t5
   11f06:	01e6f433          	and	s0,a3,t5
   11f0a:	012a7a33          	and	s4,s4,s2
   11f0e:	01887833          	and	a6,a6,s8
   11f12:	fffc4993          	not	s3,s8
   11f16:	ffff4513          	not	a0,t5
   11f1a:	fffec593          	not	a1,t4
   11f1e:	fff4ce13          	not	t3,s1
   11f22:	fff7c893          	not	a7,a5
   11f26:	01f67633          	and	a2,a2,t6
   11f2a:	8e39                	xor	a2,a2,a4
   11f2c:	00f846b3          	xor	a3,a6,a5
   11f30:	0099f9b3          	and	s3,s3,s1
   11f34:	fff74313          	not	t1,a4
   11f38:	8d79                	and	a0,a0,a4
   11f3a:	8dfd                	and	a1,a1,a5
   11f3c:	01f44733          	xor	a4,s0,t6
   11f40:	007a47b3          	xor	a5,s4,t2
   11f44:	01de7e33          	and	t3,t3,t4
   11f48:	0058f8b3          	and	a7,a7,t0
   11f4c:	8f3d                	xor	a4,a4,a5
   11f4e:	0059cbb3          	xor	s7,s3,t0
   11f52:	01254533          	xor	a0,a0,s2
   11f56:	8da5                	xor	a1,a1,s1
   11f58:	843e                	mv	s0,a5
   11f5a:	0076d293          	srli	t0,a3,0x7
   11f5e:	01769813          	slli	a6,a3,0x17
   11f62:	01761793          	slli	a5,a2,0x17
   11f66:	00737333          	and	t1,t1,t2
   11f6a:	018e4e33          	xor	t3,t3,s8
   11f6e:	00765393          	srli	t2,a2,0x7
   11f72:	01d8c8b3          	xor	a7,a7,t4
   11f76:	01969913          	slli	s2,a3,0x19
   11f7a:	01961493          	slli	s1,a2,0x19
   11f7e:	00965e93          	srli	t4,a2,0x9
   11f82:	0096db13          	srli	s6,a3,0x9
   11f86:	017e4e33          	xor	t3,t3,s7
   11f8a:	010eeeb3          	or	t4,t4,a6
   11f8e:	00fb6b33          	or	s6,s6,a5
   11f92:	00796933          	or	s2,s2,t2
   11f96:	0054e4b3          	or	s1,s1,t0
   11f9a:	01694933          	xor	s2,s2,s6
   11f9e:	01d4c4b3          	xor	s1,s1,t4
   11fa2:	003e1b13          	slli	s6,t3,0x3
   11fa6:	01d75e93          	srli	t4,a4,0x1d
   11faa:	016eeb33          	or	s6,t4,s6
   11fae:	01de5c93          	srli	s9,t3,0x1d
   11fb2:	00371e93          	slli	t4,a4,0x3
   11fb6:	01dcecb3          	or	s9,s9,t4
   11fba:	01e34333          	xor	t1,t1,t5
   11fbe:	019e1e93          	slli	t4,t3,0x19
   11fc2:	00775c13          	srli	s8,a4,0x7
   11fc6:	00a34333          	xor	t1,t1,a0
   11fca:	00b8c8b3          	xor	a7,a7,a1
   11fce:	01971f93          	slli	t6,a4,0x19
   11fd2:	01dc6c33          	or	s8,s8,t4
   11fd6:	007e5e93          	srli	t4,t3,0x7
   11fda:	fff5c593          	not	a1,a1
   11fde:	fff54513          	not	a0,a0
   11fe2:	00a35f13          	srli	t5,t1,0xa
   11fe6:	01feefb3          	or	t6,t4,t6
   11fea:	01689e93          	slli	t4,a7,0x16
   11fee:	c25a                	sw	s6,4(sp)
   11ff0:	0015dd13          	srli	s10,a1,0x1
   11ff4:	0065d293          	srli	t0,a1,0x6
   11ff8:	01f51a13          	slli	s4,a0,0x1f
   11ffc:	01a51813          	slli	a6,a0,0x1a
   12000:	01eeef33          	or	t5,t4,t5
   12004:	00a8db13          	srli	s6,a7,0xa
   12008:	01631e93          	slli	t4,t1,0x16
   1200c:	c022                	sw	s0,0(sp)
   1200e:	01135d93          	srli	s11,t1,0x11
   12012:	016eeb33          	or	s6,t4,s6
   12016:	01aa6a33          	or	s4,s4,s10
   1201a:	00f89e93          	slli	t4,a7,0xf
   1201e:	00586833          	or	a6,a6,t0
   12022:	01fccfb3          	xor	t6,s9,t6
   12026:	4c92                	lw	s9,4(sp)
   12028:	00155393          	srli	t2,a0,0x1
   1202c:	01beeeb3          	or	t4,t4,s11
   12030:	01f59a93          	slli	s5,a1,0x1f
   12034:	010a4833          	xor	a6,s4,a6
   12038:	4a02                	lw	s4,0(sp)
   1203a:	c476                	sw	t4,8(sp)
   1203c:	00dbc9b3          	xor	s3,s7,a3
   12040:	8c31                	xor	s0,s0,a2
   12042:	0118dd93          	srli	s11,a7,0x11
   12046:	007aeab3          	or	s5,s5,t2
   1204a:	00655793          	srli	a5,a0,0x6
   1204e:	01a59393          	slli	t2,a1,0x1a
   12052:	00f31e93          	slli	t4,t1,0xf
   12056:	00d41d13          	slli	s10,s0,0xd
   1205a:	01beeeb3          	or	t4,t4,s11
   1205e:	00f3e7b3          	or	a5,t2,a5
   12062:	00d99d93          	slli	s11,s3,0xd
   12066:	01345393          	srli	t2,s0,0x13
   1206a:	0139d293          	srli	t0,s3,0x13
   1206e:	018ccc33          	xor	s8,s9,s8
   12072:	4ca2                	lw	s9,8(sp)
   12074:	00fac7b3          	xor	a5,s5,a5
   12078:	009bcbb3          	xor	s7,s7,s1
   1207c:	01c45a93          	srli	s5,s0,0x1c
   12080:	01db4eb3          	xor	t4,s6,t4
   12084:	007de3b3          	or	t2,s11,t2
   12088:	012a4b33          	xor	s6,s4,s2
   1208c:	005d62b3          	or	t0,s10,t0
   12090:	00499a13          	slli	s4,s3,0x4
   12094:	0412                	slli	s0,s0,0x4
   12096:	01c9d993          	srli	s3,s3,0x1c
   1209a:	00efcfb3          	xor	t6,t6,a4
   1209e:	011eceb3          	xor	t4,t4,a7
   120a2:	8d3d                	xor	a0,a0,a5
   120a4:	015a6a33          	or	s4,s4,s5
   120a8:	01346433          	or	s0,s0,s3
   120ac:	8ea5                	xor	a3,a3,s1
   120ae:	0163c3b3          	xor	t2,t2,s6
   120b2:	0172c2b3          	xor	t0,t0,s7
   120b6:	01cc4c33          	xor	s8,s8,t3
   120ba:	01d6c7b3          	xor	a5,a3,t4
   120be:	0143c3b3          	xor	t2,t2,s4
   120c2:	0082c2b3          	xor	t0,t0,s0
   120c6:	01f546b3          	xor	a3,a0,t6
   120ca:	00b84833          	xor	a6,a6,a1
   120ce:	019f4f33          	xor	t5,t5,s9
   120d2:	006f4f33          	xor	t5,t5,t1
   120d6:	018844b3          	xor	s1,a6,s8
   120da:	01264733          	xor	a4,a2,s2
   120de:	ffffca13          	not	s4,t6
   120e2:	0876c913          	xori	s2,a3,135
   120e6:	fff3c613          	not	a2,t2
   120ea:	fff2c813          	not	a6,t0
   120ee:	f786c693          	xori	a3,a3,-136
   120f2:	01e74733          	xor	a4,a4,t5
   120f6:	01e6f433          	and	s0,a3,t5
   120fa:	012a7a33          	and	s4,s4,s2
   120fe:	01887833          	and	a6,a6,s8
   12102:	fffc4993          	not	s3,s8
   12106:	ffff4513          	not	a0,t5
   1210a:	fffec593          	not	a1,t4
   1210e:	fff4ce13          	not	t3,s1
   12112:	fff7c893          	not	a7,a5
   12116:	01f67633          	and	a2,a2,t6
   1211a:	8e39                	xor	a2,a2,a4
   1211c:	00f846b3          	xor	a3,a6,a5
   12120:	0099f9b3          	and	s3,s3,s1
   12124:	fff74313          	not	t1,a4
   12128:	8d79                	and	a0,a0,a4
   1212a:	8dfd                	and	a1,a1,a5
   1212c:	01f44733          	xor	a4,s0,t6
   12130:	007a47b3          	xor	a5,s4,t2
   12134:	01de7e33          	and	t3,t3,t4
   12138:	0058f8b3          	and	a7,a7,t0
   1213c:	8f3d                	xor	a4,a4,a5
   1213e:	0059cbb3          	xor	s7,s3,t0
   12142:	01254533          	xor	a0,a0,s2
   12146:	8da5                	xor	a1,a1,s1
   12148:	843e                	mv	s0,a5
   1214a:	0076d293          	srli	t0,a3,0x7
   1214e:	01769813          	slli	a6,a3,0x17
   12152:	01761793          	slli	a5,a2,0x17
   12156:	00737333          	and	t1,t1,t2
   1215a:	018e4e33          	xor	t3,t3,s8
   1215e:	00765393          	srli	t2,a2,0x7
   12162:	01d8c8b3          	xor	a7,a7,t4
   12166:	01969913          	slli	s2,a3,0x19
   1216a:	01961493          	slli	s1,a2,0x19
   1216e:	00965e93          	srli	t4,a2,0x9
   12172:	0096db13          	srli	s6,a3,0x9
   12176:	017e4e33          	xor	t3,t3,s7
   1217a:	010eeeb3          	or	t4,t4,a6
   1217e:	00fb6b33          	or	s6,s6,a5
   12182:	00796933          	or	s2,s2,t2
   12186:	0054e4b3          	or	s1,s1,t0
   1218a:	01694933          	xor	s2,s2,s6
   1218e:	01d4c4b3          	xor	s1,s1,t4
   12192:	003e1b13          	slli	s6,t3,0x3
   12196:	01d75e93          	srli	t4,a4,0x1d
   1219a:	016eeb33          	or	s6,t4,s6
   1219e:	01de5c93          	srli	s9,t3,0x1d
   121a2:	00371e93          	slli	t4,a4,0x3
   121a6:	01dcecb3          	or	s9,s9,t4
   121aa:	01e34333          	xor	t1,t1,t5
   121ae:	019e1e93          	slli	t4,t3,0x19
   121b2:	00775c13          	srli	s8,a4,0x7
   121b6:	00a34333          	xor	t1,t1,a0
   121ba:	00b8c8b3          	xor	a7,a7,a1
   121be:	01971f93          	slli	t6,a4,0x19
   121c2:	01dc6c33          	or	s8,s8,t4
   121c6:	007e5e93          	srli	t4,t3,0x7
   121ca:	00a35f13          	srli	t5,t1,0xa
   121ce:	01feefb3          	or	t6,t4,t6
   121d2:	01689e93          	slli	t4,a7,0x16
   121d6:	c25a                	sw	s6,4(sp)
   121d8:	fff5c593          	not	a1,a1
   121dc:	fff54513          	not	a0,a0
   121e0:	01eeef33          	or	t5,t4,t5
   121e4:	00a8db13          	srli	s6,a7,0xa
   121e8:	01631e93          	slli	t4,t1,0x16
   121ec:	01135d93          	srli	s11,t1,0x11
   121f0:	0015dd13          	srli	s10,a1,0x1
   121f4:	0065d293          	srli	t0,a1,0x6
   121f8:	016eeb33          	or	s6,t4,s6
   121fc:	01f51a13          	slli	s4,a0,0x1f
   12200:	01a51813          	slli	a6,a0,0x1a
   12204:	00f89e93          	slli	t4,a7,0xf
   12208:	01fccfb3          	xor	t6,s9,t6
   1220c:	4c92                	lw	s9,4(sp)
   1220e:	c022                	sw	s0,0(sp)
   12210:	01beeeb3          	or	t4,t4,s11
   12214:	01aa6a33          	or	s4,s4,s10
   12218:	00586833          	or	a6,a6,t0
   1221c:	c476                	sw	t4,8(sp)
   1221e:	00155393          	srli	t2,a0,0x1
   12222:	01f59a93          	slli	s5,a1,0x1f
   12226:	010a4833          	xor	a6,s4,a6
   1222a:	4a02                	lw	s4,0(sp)
   1222c:	00dbc9b3          	xor	s3,s7,a3
   12230:	8c31                	xor	s0,s0,a2
   12232:	0118dd93          	srli	s11,a7,0x11
   12236:	007aeab3          	or	s5,s5,t2
   1223a:	00655793          	srli	a5,a0,0x6
   1223e:	01a59393          	slli	t2,a1,0x1a
   12242:	00f31e93          	slli	t4,t1,0xf
   12246:	018ccc33          	xor	s8,s9,s8
   1224a:	4ca2                	lw	s9,8(sp)
   1224c:	00d41d13          	slli	s10,s0,0xd
   12250:	01beeeb3          	or	t4,t4,s11
   12254:	00f3e7b3          	or	a5,t2,a5
   12258:	00d99d93          	slli	s11,s3,0xd
   1225c:	01345393          	srli	t2,s0,0x13
   12260:	0139d293          	srli	t0,s3,0x13
   12264:	00fac7b3          	xor	a5,s5,a5
   12268:	009bcbb3          	xor	s7,s7,s1
   1226c:	01c45a93          	srli	s5,s0,0x1c
   12270:	01db4eb3          	xor	t4,s6,t4
   12274:	007de3b3          	or	t2,s11,t2
   12278:	012a4b33          	xor	s6,s4,s2
   1227c:	005d62b3          	or	t0,s10,t0
   12280:	00499a13          	slli	s4,s3,0x4
   12284:	0412                	slli	s0,s0,0x4
   12286:	01c9d993          	srli	s3,s3,0x1c
   1228a:	00efcfb3          	xor	t6,t6,a4
   1228e:	01cc4c33          	xor	s8,s8,t3
   12292:	011eceb3          	xor	t4,t4,a7
   12296:	8d3d                	xor	a0,a0,a5
   12298:	00b84833          	xor	a6,a6,a1
   1229c:	015a6a33          	or	s4,s4,s5
   122a0:	01346433          	or	s0,s0,s3
   122a4:	8ea5                	xor	a3,a3,s1
   122a6:	019f4f33          	xor	t5,t5,s9
   122aa:	0163c3b3          	xor	t2,t2,s6
   122ae:	0172c2b3          	xor	t0,t0,s7
   122b2:	006f4f33          	xor	t5,t5,t1
   122b6:	018844b3          	xor	s1,a6,s8
   122ba:	01d6c7b3          	xor	a5,a3,t4
   122be:	0143c3b3          	xor	t2,t2,s4
   122c2:	0082c2b3          	xor	t0,t0,s0
   122c6:	01f546b3          	xor	a3,a0,t6
   122ca:	01264733          	xor	a4,a2,s2
   122ce:	01e74733          	xor	a4,a4,t5
   122d2:	0786c913          	xori	s2,a3,120
   122d6:	ffffca13          	not	s4,t6
   122da:	fffc4993          	not	s3,s8
   122de:	fffec593          	not	a1,t4
   122e2:	fff3c613          	not	a2,t2
   122e6:	fff2c813          	not	a6,t0
   122ea:	f876c693          	xori	a3,a3,-121
   122ee:	fff4ce13          	not	t3,s1
   122f2:	fff7c893          	not	a7,a5
   122f6:	01e6f433          	and	s0,a3,t5
   122fa:	012a7a33          	and	s4,s4,s2
   122fe:	0099f9b3          	and	s3,s3,s1
   12302:	01887833          	and	a6,a6,s8
   12306:	ffff4513          	not	a0,t5
   1230a:	fff74313          	not	t1,a4
   1230e:	8dfd                	and	a1,a1,a5
   12310:	01f67633          	and	a2,a2,t6
   12314:	01de7e33          	and	t3,t3,t4
   12318:	0058f8b3          	and	a7,a7,t0
   1231c:	8e39                	xor	a2,a2,a4
   1231e:	00f846b3          	xor	a3,a6,a5
   12322:	8da5                	xor	a1,a1,s1
   12324:	007a47b3          	xor	a5,s4,t2
   12328:	0059c833          	xor	a6,s3,t0
   1232c:	8d79                	and	a0,a0,a4
   1232e:	00737333          	and	t1,t1,t2
   12332:	01f44733          	xor	a4,s0,t6
   12336:	018e4e33          	xor	t3,t3,s8
   1233a:	01d8c8b3          	xor	a7,a7,t4
   1233e:	8f3d                	xor	a4,a4,a5
   12340:	010e4e33          	xor	t3,t3,a6
   12344:	00b8c8b3          	xor	a7,a7,a1
   12348:	84be                	mv	s1,a5
   1234a:	01254533          	xor	a0,a0,s2
   1234e:	00765993          	srli	s3,a2,0x7
   12352:	0076d913          	srli	s2,a3,0x7
   12356:	01761793          	slli	a5,a2,0x17
   1235a:	01e34333          	xor	t1,t1,t5
   1235e:	01969413          	slli	s0,a3,0x19
   12362:	8f42                	mv	t5,a6
   12364:	01961393          	slli	t2,a2,0x19
   12368:	01769813          	slli	a6,a3,0x17
   1236c:	00965e93          	srli	t4,a2,0x9
   12370:	0096db13          	srli	s6,a3,0x9
   12374:	00a34333          	xor	t1,t1,a0
   12378:	fff5c593          	not	a1,a1
   1237c:	fff54513          	not	a0,a0
   12380:	0118da93          	srli	s5,a7,0x11
   12384:	010eeeb3          	or	t4,t4,a6
   12388:	00fb6b33          	or	s6,s6,a5
   1238c:	01346433          	or	s0,s0,s3
   12390:	0123e3b3          	or	t2,t2,s2
   12394:	01644433          	xor	s0,s0,s6
   12398:	01d3c3b3          	xor	t2,t2,t4
   1239c:	8d56                	mv	s10,s5
   1239e:	00155993          	srli	s3,a0,0x1
   123a2:	01d75e93          	srli	t4,a4,0x1d
   123a6:	01f59a93          	slli	s5,a1,0x1f
   123aa:	003e1b13          	slli	s6,t3,0x3
   123ae:	0065d913          	srli	s2,a1,0x6
   123b2:	016eeb33          	or	s6,t4,s6
   123b6:	013aeab3          	or	s5,s5,s3
   123ba:	00371e93          	slli	t4,a4,0x3
   123be:	0015d993          	srli	s3,a1,0x1
   123c2:	01de5c93          	srli	s9,t3,0x1d
   123c6:	01f51a13          	slli	s4,a0,0x1f
   123ca:	01a51813          	slli	a6,a0,0x1a
   123ce:	c026                	sw	s1,0(sp)
   123d0:	01dcecb3          	or	s9,s9,t4
   123d4:	013a6a33          	or	s4,s4,s3
   123d8:	019e1e93          	slli	t4,t3,0x19
   123dc:	00775c13          	srli	s8,a4,0x7
   123e0:	01286833          	or	a6,a6,s2
   123e4:	01971f93          	slli	t6,a4,0x19
   123e8:	01dc6c33          	or	s8,s8,t4
   123ec:	010a4833          	xor	a6,s4,a6
   123f0:	007e5e93          	srli	t4,t3,0x7
   123f4:	4a02                	lw	s4,0(sp)
   123f6:	00c4c2b3          	xor	t0,s1,a2
   123fa:	c27a                	sw	t5,4(sp)
   123fc:	00df44b3          	xor	s1,t5,a3
   12400:	01a59d93          	slli	s11,a1,0x1a
   12404:	00a35f13          	srli	t5,t1,0xa
   12408:	00655793          	srli	a5,a0,0x6
   1240c:	01feefb3          	or	t6,t4,t6
   12410:	01689e93          	slli	t4,a7,0x16
   12414:	c45a                	sw	s6,8(sp)
   12416:	01eeef33          	or	t5,t4,t5
   1241a:	00a8db13          	srli	s6,a7,0xa
   1241e:	01631e93          	slli	t4,t1,0x16
   12422:	00fde7b3          	or	a5,s11,a5
   12426:	016eeb33          	or	s6,t4,s6
   1242a:	00fac7b3          	xor	a5,s5,a5
   1242e:	00f89e93          	slli	t4,a7,0xf
   12432:	008a4ab3          	xor	s5,s4,s0
   12436:	01135b93          	srli	s7,t1,0x11
   1243a:	4a12                	lw	s4,4(sp)
   1243c:	017eebb3          	or	s7,t4,s7
   12440:	01fccfb3          	xor	t6,s9,t6
   12444:	00f31e93          	slli	t4,t1,0xf
   12448:	4ca2                	lw	s9,8(sp)
   1244a:	00d49d93          	slli	s11,s1,0xd
   1244e:	01aeeeb3          	or	t4,t4,s10
   12452:	0132d993          	srli	s3,t0,0x13
   12456:	00d29d13          	slli	s10,t0,0xd
   1245a:	0134d913          	srli	s2,s1,0x13
   1245e:	013de9b3          	or	s3,s11,s3
   12462:	012d6933          	or	s2,s10,s2
   12466:	017f4f33          	xor	t5,t5,s7
   1246a:	01db4eb3          	xor	t4,s6,t4
   1246e:	01c2db93          	srli	s7,t0,0x1c
   12472:	007a4a33          	xor	s4,s4,t2
   12476:	00449b13          	slli	s6,s1,0x4
   1247a:	0292                	slli	t0,t0,0x4
   1247c:	80f1                	srli	s1,s1,0x1c
   1247e:	00efcfb3          	xor	t6,t6,a4
   12482:	011eceb3          	xor	t4,t4,a7
   12486:	8d3d                	xor	a0,a0,a5
   12488:	017b6b33          	or	s6,s6,s7
   1248c:	0092e2b3          	or	t0,t0,s1
   12490:	0076c6b3          	xor	a3,a3,t2
   12494:	018ccc33          	xor	s8,s9,s8
   12498:	013acab3          	xor	s5,s5,s3
   1249c:	012a4a33          	xor	s4,s4,s2
   124a0:	01cc4c33          	xor	s8,s8,t3
   124a4:	01d6c7b3          	xor	a5,a3,t4
   124a8:	016acab3          	xor	s5,s5,s6
   124ac:	005a4a33          	xor	s4,s4,t0
   124b0:	01f546b3          	xor	a3,a0,t6
   124b4:	00b84833          	xor	a6,a6,a1
   124b8:	006f4f33          	xor	t5,t5,t1
   124bc:	018843b3          	xor	t2,a6,s8
   124c0:	00864733          	xor	a4,a2,s0
   124c4:	ffffc913          	not	s2,t6
   124c8:	0696c413          	xori	s0,a3,105
   124cc:	fffac613          	not	a2,s5
   124d0:	fffa4813          	not	a6,s4
   124d4:	f966c693          	xori	a3,a3,-106
   124d8:	01e74733          	xor	a4,a4,t5
   124dc:	01e6f2b3          	and	t0,a3,t5
   124e0:	00897933          	and	s2,s2,s0
   124e4:	01887833          	and	a6,a6,s8
   124e8:	fffc4493          	not	s1,s8
   124ec:	ffff4513          	not	a0,t5
   124f0:	fffec593          	not	a1,t4
   124f4:	fff3ce13          	not	t3,t2
   124f8:	fff7c893          	not	a7,a5
   124fc:	01f67633          	and	a2,a2,t6
   12500:	8e39                	xor	a2,a2,a4
   12502:	00f846b3          	xor	a3,a6,a5
   12506:	0074f4b3          	and	s1,s1,t2
   1250a:	fff74313          	not	t1,a4
   1250e:	8d79                	and	a0,a0,a4
   12510:	8dfd                	and	a1,a1,a5
   12512:	01f2c733          	xor	a4,t0,t6
   12516:	015947b3          	xor	a5,s2,s5
   1251a:	01de7e33          	and	t3,t3,t4
   1251e:	0148f8b3          	and	a7,a7,s4
   12522:	8f3d                	xor	a4,a4,a5
   12524:	0144cbb3          	xor	s7,s1,s4
   12528:	8d21                	xor	a0,a0,s0
   1252a:	0075c5b3          	xor	a1,a1,t2
   1252e:	843e                	mv	s0,a5
   12530:	00765393          	srli	t2,a2,0x7
   12534:	0076d293          	srli	t0,a3,0x7
   12538:	01769813          	slli	a6,a3,0x17
   1253c:	01761793          	slli	a5,a2,0x17
   12540:	018e4e33          	xor	t3,t3,s8
   12544:	01d8c8b3          	xor	a7,a7,t4
   12548:	01969913          	slli	s2,a3,0x19
   1254c:	01961493          	slli	s1,a2,0x19
   12550:	00965e93          	srli	t4,a2,0x9
   12554:	0096db13          	srli	s6,a3,0x9
   12558:	017e4e33          	xor	t3,t3,s7
   1255c:	010eeeb3          	or	t4,t4,a6
   12560:	00fb6b33          	or	s6,s6,a5
   12564:	00796933          	or	s2,s2,t2
   12568:	0054e4b3          	or	s1,s1,t0
   1256c:	01694933          	xor	s2,s2,s6
   12570:	01d4c4b3          	xor	s1,s1,t4
   12574:	003e1b13          	slli	s6,t3,0x3
   12578:	01d75e93          	srli	t4,a4,0x1d
   1257c:	016eeb33          	or	s6,t4,s6
   12580:	01537333          	and	t1,t1,s5
   12584:	00371e93          	slli	t4,a4,0x3
   12588:	01de5c93          	srli	s9,t3,0x1d
   1258c:	01dcecb3          	or	s9,s9,t4
   12590:	01e34333          	xor	t1,t1,t5
   12594:	019e1e93          	slli	t4,t3,0x19
   12598:	00775c13          	srli	s8,a4,0x7
   1259c:	00a34333          	xor	t1,t1,a0
   125a0:	00b8c8b3          	xor	a7,a7,a1
   125a4:	01971f93          	slli	t6,a4,0x19
   125a8:	01dc6c33          	or	s8,s8,t4
   125ac:	007e5e93          	srli	t4,t3,0x7
   125b0:	fff5c593          	not	a1,a1
   125b4:	fff54513          	not	a0,a0
   125b8:	00a35f13          	srli	t5,t1,0xa
   125bc:	01feefb3          	or	t6,t4,t6
   125c0:	01689e93          	slli	t4,a7,0x16
   125c4:	0015dd13          	srli	s10,a1,0x1
   125c8:	0065d293          	srli	t0,a1,0x6
   125cc:	c25a                	sw	s6,4(sp)
   125ce:	01f51a13          	slli	s4,a0,0x1f
   125d2:	01a51813          	slli	a6,a0,0x1a
   125d6:	01eeef33          	or	t5,t4,t5
   125da:	00a8db13          	srli	s6,a7,0xa
   125de:	01631e93          	slli	t4,t1,0x16
   125e2:	c022                	sw	s0,0(sp)
   125e4:	01135d93          	srli	s11,t1,0x11
   125e8:	016eeb33          	or	s6,t4,s6
   125ec:	01aa6a33          	or	s4,s4,s10
   125f0:	00f89e93          	slli	t4,a7,0xf
   125f4:	00586833          	or	a6,a6,t0
   125f8:	01fccfb3          	xor	t6,s9,t6
   125fc:	4c92                	lw	s9,4(sp)
   125fe:	00155393          	srli	t2,a0,0x1
   12602:	01beeeb3          	or	t4,t4,s11
   12606:	01f59a93          	slli	s5,a1,0x1f
   1260a:	010a4833          	xor	a6,s4,a6
   1260e:	4a02                	lw	s4,0(sp)
   12610:	00dbc9b3          	xor	s3,s7,a3
   12614:	8c31                	xor	s0,s0,a2
   12616:	c476                	sw	t4,8(sp)
   12618:	0118dd93          	srli	s11,a7,0x11
   1261c:	007aeab3          	or	s5,s5,t2
   12620:	00655793          	srli	a5,a0,0x6
   12624:	01a59393          	slli	t2,a1,0x1a
   12628:	00f31e93          	slli	t4,t1,0xf
   1262c:	00d41d13          	slli	s10,s0,0xd
   12630:	01beeeb3          	or	t4,t4,s11
   12634:	00f3e7b3          	or	a5,t2,a5
   12638:	00d99d93          	slli	s11,s3,0xd
   1263c:	01345393          	srli	t2,s0,0x13
   12640:	0139d293          	srli	t0,s3,0x13
   12644:	018ccc33          	xor	s8,s9,s8
   12648:	4ca2                	lw	s9,8(sp)
   1264a:	00fac7b3          	xor	a5,s5,a5
   1264e:	009bcbb3          	xor	s7,s7,s1
   12652:	01c45a93          	srli	s5,s0,0x1c
   12656:	01db4eb3          	xor	t4,s6,t4
   1265a:	007de3b3          	or	t2,s11,t2
   1265e:	012a4b33          	xor	s6,s4,s2
   12662:	005d62b3          	or	t0,s10,t0
   12666:	00499a13          	slli	s4,s3,0x4
   1266a:	0412                	slli	s0,s0,0x4
   1266c:	01c9d993          	srli	s3,s3,0x1c
   12670:	00efcfb3          	xor	t6,t6,a4
   12674:	011eceb3          	xor	t4,t4,a7
   12678:	8d3d                	xor	a0,a0,a5
   1267a:	015a6a33          	or	s4,s4,s5
   1267e:	01346433          	or	s0,s0,s3
   12682:	8ea5                	xor	a3,a3,s1
   12684:	0163c3b3          	xor	t2,t2,s6
   12688:	0172c2b3          	xor	t0,t0,s7
   1268c:	01cc4c33          	xor	s8,s8,t3
   12690:	01d6c7b3          	xor	a5,a3,t4
   12694:	0143c3b3          	xor	t2,t2,s4
   12698:	0082c2b3          	xor	t0,t0,s0
   1269c:	01f546b3          	xor	a3,a0,t6
   126a0:	00b84833          	xor	a6,a6,a1
   126a4:	019f4f33          	xor	t5,t5,s9
   126a8:	006f4f33          	xor	t5,t5,t1
   126ac:	018844b3          	xor	s1,a6,s8
   126b0:	01264733          	xor	a4,a2,s2
   126b4:	ffffca13          	not	s4,t6
   126b8:	05a6c913          	xori	s2,a3,90
   126bc:	fff3c613          	not	a2,t2
   126c0:	fff2c813          	not	a6,t0
   126c4:	fa56c693          	xori	a3,a3,-91
   126c8:	01e74733          	xor	a4,a4,t5
   126cc:	01e6f433          	and	s0,a3,t5
   126d0:	012a7a33          	and	s4,s4,s2
   126d4:	01887833          	and	a6,a6,s8
   126d8:	fffc4993          	not	s3,s8
   126dc:	ffff4513          	not	a0,t5
   126e0:	fffec593          	not	a1,t4
   126e4:	fff4ce13          	not	t3,s1
   126e8:	fff7c893          	not	a7,a5
   126ec:	01f67633          	and	a2,a2,t6
   126f0:	8e39                	xor	a2,a2,a4
   126f2:	00f846b3          	xor	a3,a6,a5
   126f6:	0099f9b3          	and	s3,s3,s1
   126fa:	fff74313          	not	t1,a4
   126fe:	8d79                	and	a0,a0,a4
   12700:	8dfd                	and	a1,a1,a5
   12702:	01f44733          	xor	a4,s0,t6
   12706:	007a47b3          	xor	a5,s4,t2
   1270a:	01de7e33          	and	t3,t3,t4
   1270e:	0058f8b3          	and	a7,a7,t0
   12712:	8f3d                	xor	a4,a4,a5
   12714:	0059cbb3          	xor	s7,s3,t0
   12718:	01254533          	xor	a0,a0,s2
   1271c:	8da5                	xor	a1,a1,s1
   1271e:	843e                	mv	s0,a5
   12720:	0076d293          	srli	t0,a3,0x7
   12724:	01769813          	slli	a6,a3,0x17
   12728:	01761793          	slli	a5,a2,0x17
   1272c:	00737333          	and	t1,t1,t2
   12730:	018e4e33          	xor	t3,t3,s8
   12734:	00765393          	srli	t2,a2,0x7
   12738:	01d8c8b3          	xor	a7,a7,t4
   1273c:	01969913          	slli	s2,a3,0x19
   12740:	01961493          	slli	s1,a2,0x19
   12744:	00965e93          	srli	t4,a2,0x9
   12748:	0096db13          	srli	s6,a3,0x9
   1274c:	017e4e33          	xor	t3,t3,s7
   12750:	010eeeb3          	or	t4,t4,a6
   12754:	00fb6b33          	or	s6,s6,a5
   12758:	00796933          	or	s2,s2,t2
   1275c:	0054e4b3          	or	s1,s1,t0
   12760:	01694933          	xor	s2,s2,s6
   12764:	01d4c4b3          	xor	s1,s1,t4
   12768:	003e1b13          	slli	s6,t3,0x3
   1276c:	01d75e93          	srli	t4,a4,0x1d
   12770:	016eeb33          	or	s6,t4,s6
   12774:	01de5c93          	srli	s9,t3,0x1d
   12778:	00371e93          	slli	t4,a4,0x3
   1277c:	01dcecb3          	or	s9,s9,t4
   12780:	01e34333          	xor	t1,t1,t5
   12784:	019e1e93          	slli	t4,t3,0x19
   12788:	00775c13          	srli	s8,a4,0x7
   1278c:	00a34333          	xor	t1,t1,a0
   12790:	00b8c8b3          	xor	a7,a7,a1
   12794:	01971f93          	slli	t6,a4,0x19
   12798:	01dc6c33          	or	s8,s8,t4
   1279c:	007e5e93          	srli	t4,t3,0x7
   127a0:	c022                	sw	s0,0(sp)
   127a2:	00a35f13          	srli	t5,t1,0xa
   127a6:	01feefb3          	or	t6,t4,t6
   127aa:	01689e93          	slli	t4,a7,0x16
   127ae:	c25a                	sw	s6,4(sp)
   127b0:	fff5c593          	not	a1,a1
   127b4:	fff54513          	not	a0,a0
   127b8:	01eeef33          	or	t5,t4,t5
   127bc:	00a8db13          	srli	s6,a7,0xa
   127c0:	01631e93          	slli	t4,t1,0x16
   127c4:	01135d93          	srli	s11,t1,0x11
   127c8:	0015dd13          	srli	s10,a1,0x1
   127cc:	0065d293          	srli	t0,a1,0x6
   127d0:	016eeb33          	or	s6,t4,s6
   127d4:	01f51a13          	slli	s4,a0,0x1f
   127d8:	01a51813          	slli	a6,a0,0x1a
   127dc:	00f89e93          	slli	t4,a7,0xf
   127e0:	01fccfb3          	xor	t6,s9,t6
   127e4:	4c92                	lw	s9,4(sp)
   127e6:	01beeeb3          	or	t4,t4,s11
   127ea:	01aa6a33          	or	s4,s4,s10
   127ee:	00586833          	or	a6,a6,t0
   127f2:	c476                	sw	t4,8(sp)
   127f4:	00155393          	srli	t2,a0,0x1
   127f8:	01f59a93          	slli	s5,a1,0x1f
   127fc:	010a4833          	xor	a6,s4,a6
   12800:	4a02                	lw	s4,0(sp)
   12802:	00dbc9b3          	xor	s3,s7,a3
   12806:	8c31                	xor	s0,s0,a2
   12808:	0118dd93          	srli	s11,a7,0x11
   1280c:	007aeab3          	or	s5,s5,t2
   12810:	00655793          	srli	a5,a0,0x6
   12814:	01a59393          	slli	t2,a1,0x1a
   12818:	00f31e93          	slli	t4,t1,0xf
   1281c:	018ccc33          	xor	s8,s9,s8
   12820:	4ca2                	lw	s9,8(sp)
   12822:	00d41d13          	slli	s10,s0,0xd
   12826:	01beeeb3          	or	t4,t4,s11
   1282a:	00f3e7b3          	or	a5,t2,a5
   1282e:	00d99d93          	slli	s11,s3,0xd
   12832:	01345393          	srli	t2,s0,0x13
   12836:	0139d293          	srli	t0,s3,0x13
   1283a:	00fac7b3          	xor	a5,s5,a5
   1283e:	009bcbb3          	xor	s7,s7,s1
   12842:	01c45a93          	srli	s5,s0,0x1c
   12846:	01db4eb3          	xor	t4,s6,t4
   1284a:	007de3b3          	or	t2,s11,t2
   1284e:	012a4b33          	xor	s6,s4,s2
   12852:	005d62b3          	or	t0,s10,t0
   12856:	00499a13          	slli	s4,s3,0x4
   1285a:	0412                	slli	s0,s0,0x4
   1285c:	01c9d993          	srli	s3,s3,0x1c
   12860:	00efcfb3          	xor	t6,t6,a4
   12864:	011eceb3          	xor	t4,t4,a7
   12868:	8d3d                	xor	a0,a0,a5
   1286a:	0163c3b3          	xor	t2,t2,s6
   1286e:	0172c2b3          	xor	t0,t0,s7
   12872:	015a6a33          	or	s4,s4,s5
   12876:	01346433          	or	s0,s0,s3
   1287a:	8ea5                	xor	a3,a3,s1
   1287c:	019f4f33          	xor	t5,t5,s9
   12880:	01d6c7b3          	xor	a5,a3,t4
   12884:	01cc4c33          	xor	s8,s8,t3
   12888:	006f4f33          	xor	t5,t5,t1
   1288c:	01f546b3          	xor	a3,a0,t6
   12890:	01264733          	xor	a4,a2,s2
   12894:	00b84833          	xor	a6,a6,a1
   12898:	0082c633          	xor	a2,t0,s0
   1289c:	0143c5b3          	xor	a1,t2,s4
   128a0:	01884833          	xor	a6,a6,s8
   128a4:	01e74733          	xor	a4,a4,t5
   128a8:	04b6c913          	xori	s2,a3,75
   128ac:	ffffc993          	not	s3,t6
   128b0:	fff5c493          	not	s1,a1
   128b4:	fff64393          	not	t2,a2
   128b8:	0129f9b3          	and	s3,s3,s2
   128bc:	fffc4e13          	not	t3,s8
   128c0:	fffec893          	not	a7,t4
   128c4:	fff84293          	not	t0,a6
   128c8:	fff74413          	not	s0,a4
   128cc:	fff7c513          	not	a0,a5
   128d0:	01f4f4b3          	and	s1,s1,t6
   128d4:	0183f3b3          	and	t2,t2,s8
   128d8:	fb46c693          	xori	a3,a3,-76
   128dc:	8cb9                	xor	s1,s1,a4
   128de:	00f3c3b3          	xor	t2,t2,a5
   128e2:	01e6f6b3          	and	a3,a3,t5
   128e6:	8c6d                	and	s0,s0,a1
   128e8:	8d71                	and	a0,a0,a2
   128ea:	010e7e33          	and	t3,t3,a6
   128ee:	00f8f8b3          	and	a7,a7,a5
   128f2:	01d2f2b3          	and	t0,t0,t4
   128f6:	00b9c7b3          	xor	a5,s3,a1
   128fa:	00ce4e33          	xor	t3,t3,a2
   128fe:	0108c8b3          	xor	a7,a7,a6
   12902:	ffff4313          	not	t1,t5
   12906:	01f6c833          	xor	a6,a3,t6
   1290a:	0182c2b3          	xor	t0,t0,s8
   1290e:	01e44fb3          	xor	t6,s0,t5
   12912:	01d54f33          	xor	t5,a0,t4
   12916:	0097ceb3          	xor	t4,a5,s1
   1291a:	01c2c2b3          	xor	t0,t0,t3
   1291e:	00f84833          	xor	a6,a6,a5
   12922:	007e4e33          	xor	t3,t3,t2
   12926:	00e37333          	and	t1,t1,a4
   1292a:	013ed793          	srli	a5,t4,0x13
   1292e:	01234333          	xor	t1,t1,s2
   12932:	873e                	mv	a4,a5
   12934:	00de1913          	slli	s2,t3,0xd
   12938:	00e96933          	or	s2,s2,a4
   1293c:	00de9413          	slli	s0,t4,0xd
   12940:	013e5713          	srli	a4,t3,0x13
   12944:	8c59                	or	s0,s0,a4
   12946:	004e1993          	slli	s3,t3,0x4
   1294a:	01ced713          	srli	a4,t4,0x1c
   1294e:	00e9e9b3          	or	s3,s3,a4
   12952:	01ce5b13          	srli	s6,t3,0x1c
   12956:	004e9713          	slli	a4,t4,0x4
   1295a:	01676b33          	or	s6,a4,s6
   1295e:	01d85a93          	srli	s5,a6,0x1d
   12962:	00329713          	slli	a4,t0,0x3
   12966:	00eaeab3          	or	s5,s5,a4
   1296a:	00381b93          	slli	s7,a6,0x3
   1296e:	01d2d713          	srli	a4,t0,0x1d
   12972:	01776bb3          	or	s7,a4,s7
   12976:	01929d13          	slli	s10,t0,0x19
   1297a:	00785713          	srli	a4,a6,0x7
   1297e:	006fcfb3          	xor	t6,t6,t1
   12982:	011f4f33          	xor	t5,t5,a7
   12986:	fff34313          	not	t1,t1
   1298a:	fff8c893          	not	a7,a7
   1298e:	c05e                	sw	s7,0(sp)
   12990:	01a76d33          	or	s10,a4,s10
   12994:	01981b93          	slli	s7,a6,0x19
   12998:	0072d713          	srli	a4,t0,0x7
   1299c:	01776bb3          	or	s7,a4,s7
   129a0:	00135c93          	srli	s9,t1,0x1
   129a4:	01f89713          	slli	a4,a7,0x1f
   129a8:	01976cb3          	or	s9,a4,s9
   129ac:	0018d593          	srli	a1,a7,0x1
   129b0:	01f31713          	slli	a4,t1,0x1f
   129b4:	8dd9                	or	a1,a1,a4
   129b6:	00635793          	srli	a5,t1,0x6
   129ba:	01a89713          	slli	a4,a7,0x1a
   129be:	8fd9                	or	a5,a5,a4
   129c0:	0068dc13          	srli	s8,a7,0x6
   129c4:	01a31713          	slli	a4,t1,0x1a
   129c8:	c25e                	sw	s7,4(sp)
   129ca:	01876c33          	or	s8,a4,s8
   129ce:	00afdb93          	srli	s7,t6,0xa
   129d2:	016f1713          	slli	a4,t5,0x16
   129d6:	01776bb3          	or	s7,a4,s7
   129da:	00af5613          	srli	a2,t5,0xa
   129de:	016f9713          	slli	a4,t6,0x16
   129e2:	8e59                	or	a2,a2,a4
   129e4:	c432                	sw	a2,8(sp)
   129e6:	00ff1713          	slli	a4,t5,0xf
   129ea:	011fd613          	srli	a2,t6,0x11
   129ee:	0074d693          	srli	a3,s1,0x7
   129f2:	8e59                	or	a2,a2,a4
   129f4:	011f5513          	srli	a0,t5,0x11
   129f8:	00ff9713          	slli	a4,t6,0xf
   129fc:	8a36                	mv	s4,a3
   129fe:	8d59                	or	a0,a0,a4
   12a00:	01939713          	slli	a4,t2,0x19
   12a04:	01476a33          	or	s4,a4,s4
   12a08:	c652                	sw	s4,12(sp)
   12a0a:	01949713          	slli	a4,s1,0x19
   12a0e:	0073da13          	srli	s4,t2,0x7
   12a12:	01476a33          	or	s4,a4,s4
   12a16:	01aacd33          	xor	s10,s5,s10
   12a1a:	0094d713          	srli	a4,s1,0x9
   12a1e:	4aa2                	lw	s5,8(sp)
   12a20:	01739693          	slli	a3,t2,0x17
   12a24:	8ed9                	or	a3,a3,a4
   12a26:	01394933          	xor	s2,s2,s3
   12a2a:	01644433          	xor	s0,s0,s6
   12a2e:	00da4a33          	xor	s4,s4,a3
   12a32:	01d946b3          	xor	a3,s2,t4
   12a36:	4982                	lw	s3,0(sp)
   12a38:	00fcc7b3          	xor	a5,s9,a5
   12a3c:	00aac533          	xor	a0,s5,a0
   12a40:	c036                	sw	a3,0(sp)
   12a42:	4ab2                	lw	s5,12(sp)
   12a44:	01c446b3          	xor	a3,s0,t3
   12a48:	4b12                	lw	s6,4(sp)
   12a4a:	01749d93          	slli	s11,s1,0x17
   12a4e:	0093d713          	srli	a4,t2,0x9
   12a52:	c236                	sw	a3,4(sp)
   12a54:	0067c6b3          	xor	a3,a5,t1
   12a58:	57f2                	lw	a5,60(sp)
   12a5a:	01b76733          	or	a4,a4,s11
   12a5e:	00eac733          	xor	a4,s5,a4
   12a62:	0169c9b3          	xor	s3,s3,s6
   12a66:	00cbc633          	xor	a2,s7,a2
   12a6a:	0185c5b3          	xor	a1,a1,s8
   12a6e:	00974db3          	xor	s11,a4,s1
   12a72:	01878713          	addi	a4,a5,24
   12a76:	0109c433          	xor	s0,s3,a6
   12a7a:	005d4933          	xor	s2,s10,t0
   12a7e:	01f649b3          	xor	s3,a2,t6
   12a82:	dc3a                	sw	a4,56(sp)
   12a84:	0115c5b3          	xor	a1,a1,a7
   12a88:	01e54633          	xor	a2,a0,t5
   12a8c:	007a42b3          	xor	t0,s4,t2
   12a90:	c43e                	sw	a5,8(sp)
   12a92:	8736                	mv	a4,a3
   12a94:	4782                	lw	a5,0(sp)
   12a96:	4512                	lw	a0,4(sp)
   12a98:	005646b3          	xor	a3,a2,t0
   12a9c:	00b945b3          	xor	a1,s2,a1
   12aa0:	8f21                	xor	a4,a4,s0
   12aa2:	fff64813          	not	a6,a2
   12aa6:	00fdce33          	xor	t3,s11,a5
   12aaa:	00a2c333          	xor	t1,t0,a0
   12aae:	0b474e93          	xori	t4,a4,180
   12ab2:	fff94793          	not	a5,s2
   12ab6:	fff44513          	not	a0,s0
   12aba:	00d87833          	and	a6,a6,a3
   12abe:	fff5c293          	not	t0,a1
   12ac2:	f4b74713          	xori	a4,a4,-181
   12ac6:	00b84833          	xor	a6,a6,a1
   12aca:	fff6cf13          	not	t5,a3
   12ace:	01377733          	and	a4,a4,s3
   12ad2:	00c2f2b3          	and	t0,t0,a2
   12ad6:	01d57533          	and	a0,a0,t4
   12ada:	8dfd                	and	a1,a1,a5
   12adc:	01b9cdb3          	xor	s11,s3,s11
   12ae0:	01c54533          	xor	a0,a0,t3
   12ae4:	0065c5b3          	xor	a1,a1,t1
   12ae8:	006f7f33          	and	t5,t5,t1
   12aec:	8f21                	xor	a4,a4,s0
   12aee:	0122c2b3          	xor	t0,t0,s2
   12af2:	8f29                	xor	a4,a4,a0
   12af4:	00b2c2b3          	xor	t0,t0,a1
   12af8:	fffdcf93          	not	t6,s11
   12afc:	010f4f33          	xor	t5,t5,a6
   12b00:	00cf4f33          	xor	t5,t5,a2
   12b04:	fff9c893          	not	a7,s3
   12b08:	fffe4a13          	not	s4,t3
   12b0c:	01cfffb3          	and	t6,t6,t3
   12b10:	00329613          	slli	a2,t0,0x3
   12b14:	01d75e13          	srli	t3,a4,0x1d
   12b18:	00ce6633          	or	a2,t3,a2
   12b1c:	01b8f8b3          	and	a7,a7,s11
   12b20:	008a7a33          	and	s4,s4,s0
   12b24:	c632                	sw	a2,12(sp)
   12b26:	01ba4a33          	xor	s4,s4,s11
   12b2a:	01d8c8b3          	xor	a7,a7,t4
   12b2e:	00371613          	slli	a2,a4,0x3
   12b32:	01d2dd93          	srli	s11,t0,0x1d
   12b36:	00cdedb3          	or	s11,s11,a2
   12b3a:	011fcfb3          	xor	t6,t6,a7
   12b3e:	01929613          	slli	a2,t0,0x19
   12b42:	00775d13          	srli	s10,a4,0x7
   12b46:	013fcfb3          	xor	t6,t6,s3
   12b4a:	01971393          	slli	t2,a4,0x19
   12b4e:	00cd6d33          	or	s10,s10,a2
   12b52:	0072d613          	srli	a2,t0,0x7
   12b56:	016f1c93          	slli	s9,t5,0x16
   12b5a:	007663b3          	or	t2,a2,t2
   12b5e:	00afd613          	srli	a2,t6,0xa
   12b62:	00af5e13          	srli	t3,t5,0xa
   12b66:	00ccecb3          	or	s9,s9,a2
   12b6a:	016f9613          	slli	a2,t6,0x16
   12b6e:	01c66633          	or	a2,a2,t3
   12b72:	c832                	sw	a2,16(sp)
   12b74:	011fde13          	srli	t3,t6,0x11
   12b78:	fff34493          	not	s1,t1
   12b7c:	00ff1613          	slli	a2,t5,0xf
   12b80:	01c66633          	or	a2,a2,t3
   12b84:	0124f4b3          	and	s1,s1,s2
   12b88:	ca32                	sw	a2,20(sp)
   12b8a:	8cb5                	xor	s1,s1,a3
   12b8c:	00ff9613          	slli	a2,t6,0xf
   12b90:	011f5c13          	srli	s8,t5,0x11
   12b94:	007a5e13          	srli	t3,s4,0x7
   12b98:	01866c33          	or	s8,a2,s8
   12b9c:	01949613          	slli	a2,s1,0x19
   12ba0:	0074d693          	srli	a3,s1,0x7
   12ba4:	01c66633          	or	a2,a2,t3
   12ba8:	019a1e13          	slli	t3,s4,0x19
   12bac:	01749b13          	slli	s6,s1,0x17
   12bb0:	00de66b3          	or	a3,t3,a3
   12bb4:	009a5e13          	srli	t3,s4,0x9
   12bb8:	fff8c893          	not	a7,a7
   12bbc:	fff84813          	not	a6,a6
   12bc0:	016e6b33          	or	s6,t3,s6
   12bc4:	017a1b93          	slli	s7,s4,0x17
   12bc8:	0094de13          	srli	t3,s1,0x9
   12bcc:	017e6bb3          	or	s7,t3,s7
   12bd0:	01f81a93          	slli	s5,a6,0x1f
   12bd4:	0018de13          	srli	t3,a7,0x1
   12bd8:	01caeab3          	or	s5,s5,t3
   12bdc:	00185993          	srli	s3,a6,0x1
   12be0:	01f89e13          	slli	t3,a7,0x1f
   12be4:	013e69b3          	or	s3,t3,s3
   12be8:	0068d793          	srli	a5,a7,0x6
   12bec:	01a81e13          	slli	t3,a6,0x1a
   12bf0:	007dc3b3          	xor	t2,s11,t2
   12bf4:	4db2                	lw	s11,12(sp)
   12bf6:	01454533          	xor	a0,a0,s4
   12bfa:	8da5                	xor	a1,a1,s1
   12bfc:	00fe67b3          	or	a5,t3,a5
   12c00:	00685313          	srli	t1,a6,0x6
   12c04:	01a89e13          	slli	t3,a7,0x1a
   12c08:	00d59913          	slli	s2,a1,0xd
   12c0c:	006e6333          	or	t1,t3,t1
   12c10:	01355e13          	srli	t3,a0,0x13
   12c14:	01c96933          	or	s2,s2,t3
   12c18:	00d51413          	slli	s0,a0,0xd
   12c1c:	0135de13          	srli	t3,a1,0x13
   12c20:	01adcd33          	xor	s10,s11,s10
   12c24:	4dd2                	lw	s11,20(sp)
   12c26:	01c46433          	or	s0,s0,t3
   12c2a:	01c55e93          	srli	t4,a0,0x1c
   12c2e:	00459e13          	slli	t3,a1,0x4
   12c32:	cc3e                	sw	a5,24(sp)
   12c34:	01de6eb3          	or	t4,t3,t4
   12c38:	01c5d793          	srli	a5,a1,0x1c
   12c3c:	00451e13          	slli	t3,a0,0x4
   12c40:	00fe6e33          	or	t3,t3,a5
   12c44:	01bcccb3          	xor	s9,s9,s11
   12c48:	47e2                	lw	a5,24(sp)
   12c4a:	4dc2                	lw	s11,16(sp)
   12c4c:	01764633          	xor	a2,a2,s7
   12c50:	0166c6b3          	xor	a3,a3,s6
   12c54:	0069c333          	xor	t1,s3,t1
   12c58:	01d94eb3          	xor	t4,s2,t4
   12c5c:	01c44e33          	xor	t3,s0,t3
   12c60:	005d4d33          	xor	s10,s10,t0
   12c64:	01464633          	xor	a2,a2,s4
   12c68:	8ea5                	xor	a3,a3,s1
   12c6a:	01034333          	xor	t1,t1,a6
   12c6e:	00be4e33          	xor	t3,t3,a1
   12c72:	018dcc33          	xor	s8,s11,s8
   12c76:	00fac7b3          	xor	a5,s5,a5
   12c7a:	00aeceb3          	xor	t4,t4,a0
   12c7e:	00e3c3b3          	xor	t2,t2,a4
   12c82:	01fcccb3          	xor	s9,s9,t6
   12c86:	01ec4c33          	xor	s8,s8,t5
   12c8a:	01a34733          	xor	a4,t1,s10
   12c8e:	00de4fb3          	xor	t6,t3,a3
   12c92:	00ceceb3          	xor	t4,t4,a2
   12c96:	0117c7b3          	xor	a5,a5,a7
   12c9a:	00cccf33          	xor	t5,s9,a2
   12c9e:	00dc4833          	xor	a6,s8,a3
   12ca2:	0077c7b3          	xor	a5,a5,t2
   12ca6:	fffd4293          	not	t0,s10
   12caa:	fffec613          	not	a2,t4
   12cae:	ffffc693          	not	a3,t6
   12cb2:	fff74e13          	not	t3,a4
   12cb6:	0a57c413          	xori	s0,a5,165
   12cba:	00e2f2b3          	and	t0,t0,a4
   12cbe:	fff3c493          	not	s1,t2
   12cc2:	fffcc513          	not	a0,s9
   12cc6:	fffc4593          	not	a1,s8
   12cca:	00767633          	and	a2,a2,t2
   12cce:	01a6f6b3          	and	a3,a3,s10
   12cd2:	018e7e33          	and	t3,t3,s8
   12cd6:	f5a7c793          	xori	a5,a5,-166
   12cda:	0106c6b3          	xor	a3,a3,a6
   12cde:	01e64633          	xor	a2,a2,t5
   12ce2:	0197f7b3          	and	a5,a5,s9
   12ce6:	ffff4313          	not	t1,t5
   12cea:	fff84893          	not	a7,a6
   12cee:	8ce1                	and	s1,s1,s0
   12cf0:	01e57533          	and	a0,a0,t5
   12cf4:	0105f5b3          	and	a1,a1,a6
   12cf8:	01ae4e33          	xor	t3,t3,s10
   12cfc:	01f2c833          	xor	a6,t0,t6
   12d00:	010e4e33          	xor	t3,t3,a6
   12d04:	01d4c4b3          	xor	s1,s1,t4
   12d08:	8d21                	xor	a0,a0,s0
   12d0a:	8db9                	xor	a1,a1,a4
   12d0c:	00765f13          	srli	t5,a2,0x7
   12d10:	0077c733          	xor	a4,a5,t2
   12d14:	01d37333          	and	t1,t1,t4
   12d18:	01761793          	slli	a5,a2,0x17
   12d1c:	0076de93          	srli	t4,a3,0x7
   12d20:	01f8f8b3          	and	a7,a7,t6
   12d24:	01969413          	slli	s0,a3,0x19
   12d28:	8fc2                	mv	t6,a6
   12d2a:	01961913          	slli	s2,a2,0x19
   12d2e:	01769813          	slli	a6,a3,0x17
   12d32:	00965293          	srli	t0,a2,0x9
   12d36:	0096d393          	srli	t2,a3,0x9
   12d3a:	8f25                	xor	a4,a4,s1
   12d3c:	0102e2b3          	or	t0,t0,a6
   12d40:	00f3e3b3          	or	t2,t2,a5
   12d44:	01e46433          	or	s0,s0,t5
   12d48:	01d96933          	or	s2,s2,t4
   12d4c:	00594933          	xor	s2,s2,t0
   12d50:	00744433          	xor	s0,s0,t2
   12d54:	01d75293          	srli	t0,a4,0x1d
   12d58:	003e1393          	slli	t2,t3,0x3
   12d5c:	ca22                	sw	s0,20(sp)
   12d5e:	01934333          	xor	t1,t1,s9
   12d62:	0072e3b3          	or	t2,t0,t2
   12d66:	00371413          	slli	s0,a4,0x3
   12d6a:	01de5293          	srli	t0,t3,0x1d
   12d6e:	00a34333          	xor	t1,t1,a0
   12d72:	0188c8b3          	xor	a7,a7,s8
   12d76:	019e1c93          	slli	s9,t3,0x19
   12d7a:	0082e433          	or	s0,t0,s0
   12d7e:	00775293          	srli	t0,a4,0x7
   12d82:	00b8c8b3          	xor	a7,a7,a1
   12d86:	fff54513          	not	a0,a0
   12d8a:	fff5c593          	not	a1,a1
   12d8e:	00a35a93          	srli	s5,t1,0xa
   12d92:	0192ecb3          	or	s9,t0,s9
   12d96:	01971d13          	slli	s10,a4,0x19
   12d9a:	007e5293          	srli	t0,t3,0x7
   12d9e:	c626                	sw	s1,12(sp)
   12da0:	00dfc9b3          	xor	s3,t6,a3
   12da4:	8cb1                	xor	s1,s1,a2
   12da6:	8dd6                	mv	s11,s5
   12da8:	0015dc13          	srli	s8,a1,0x1
   12dac:	0065de93          	srli	t4,a1,0x6
   12db0:	01a2ed33          	or	s10,t0,s10
   12db4:	01f51a13          	slli	s4,a0,0x1f
   12db8:	01a51813          	slli	a6,a0,0x1a
   12dbc:	01689293          	slli	t0,a7,0x16
   12dc0:	018a6a33          	or	s4,s4,s8
   12dc4:	00a8db13          	srli	s6,a7,0xa
   12dc8:	00d49c13          	slli	s8,s1,0xd
   12dcc:	01b2e2b3          	or	t0,t0,s11
   12dd0:	01d86833          	or	a6,a6,t4
   12dd4:	01631d93          	slli	s11,t1,0x16
   12dd8:	0139de93          	srli	t4,s3,0x13
   12ddc:	016deb33          	or	s6,s11,s6
   12de0:	00f89b93          	slli	s7,a7,0xf
   12de4:	01135d93          	srli	s11,t1,0x11
   12de8:	010a4833          	xor	a6,s4,a6
   12dec:	01dc6eb3          	or	t4,s8,t4
   12df0:	4a32                	lw	s4,12(sp)
   12df2:	4c52                	lw	s8,20(sp)
   12df4:	c87e                	sw	t6,16(sp)
   12df6:	01bbebb3          	or	s7,s7,s11
   12dfa:	0118df93          	srli	t6,a7,0x11
   12dfe:	00f31d93          	slli	s11,t1,0xf
   12e02:	01fdefb3          	or	t6,s11,t6
   12e06:	01fb4fb3          	xor	t6,s6,t6
   12e0a:	018a4b33          	xor	s6,s4,s8
   12e0e:	4a42                	lw	s4,16(sp)
   12e10:	00655f13          	srli	t5,a0,0x6
   12e14:	00155d93          	srli	s11,a0,0x1
   12e18:	01f59a93          	slli	s5,a1,0x1f
   12e1c:	01a59793          	slli	a5,a1,0x1a
   12e20:	01baeab3          	or	s5,s5,s11
   12e24:	01e7e7b3          	or	a5,a5,t5
   12e28:	00d99d93          	slli	s11,s3,0xd
   12e2c:	0134df13          	srli	t5,s1,0x13
   12e30:	0193c3b3          	xor	t2,t2,s9
   12e34:	0172c2b3          	xor	t0,t0,s7
   12e38:	00fac7b3          	xor	a5,s5,a5
   12e3c:	012a4bb3          	xor	s7,s4,s2
   12e40:	01c4da93          	srli	s5,s1,0x1c
   12e44:	01edef33          	or	t5,s11,t5
   12e48:	00499a13          	slli	s4,s3,0x4
   12e4c:	0492                	slli	s1,s1,0x4
   12e4e:	01c9d993          	srli	s3,s3,0x1c
   12e52:	01c3c3b3          	xor	t2,t2,t3
   12e56:	015a6a33          	or	s4,s4,s5
   12e5a:	0134e4b3          	or	s1,s1,s3
   12e5e:	01a44433          	xor	s0,s0,s10
   12e62:	00b84833          	xor	a6,a6,a1
   12e66:	016f4f33          	xor	t5,t5,s6
   12e6a:	017eceb3          	xor	t4,t4,s7
   12e6e:	8c39                	xor	s0,s0,a4
   12e70:	0062c2b3          	xor	t0,t0,t1
   12e74:	011fcfb3          	xor	t6,t6,a7
   12e78:	00784833          	xor	a6,a6,t2
   12e7c:	014f4f33          	xor	t5,t5,s4
   12e80:	009eceb3          	xor	t4,t4,s1
   12e84:	01864633          	xor	a2,a2,s8
   12e88:	0126c6b3          	xor	a3,a3,s2
   12e8c:	8fa9                	xor	a5,a5,a0
   12e8e:	00564933          	xor	s2,a2,t0
   12e92:	01f6c4b3          	xor	s1,a3,t6
   12e96:	8fa1                	xor	a5,a5,s0
   12e98:	fff3c713          	not	a4,t2
   12e9c:	ffff4613          	not	a2,t5
   12ea0:	fffec693          	not	a3,t4
   12ea4:	fff84e13          	not	t3,a6
   12ea8:	0967c993          	xori	s3,a5,150
   12eac:	01077733          	and	a4,a4,a6
   12eb0:	fff44a13          	not	s4,s0
   12eb4:	ffffc593          	not	a1,t6
   12eb8:	fff94313          	not	t1,s2
   12ebc:	fff4c893          	not	a7,s1
   12ec0:	8e61                	and	a2,a2,s0
   12ec2:	0076f6b3          	and	a3,a3,t2
   12ec6:	01fe7e33          	and	t3,t3,t6
   12eca:	f697c793          	xori	a5,a5,-151
   12ece:	8ea5                	xor	a3,a3,s1
   12ed0:	01264633          	xor	a2,a2,s2
   12ed4:	013a7a33          	and	s4,s4,s3
   12ed8:	0057f7b3          	and	a5,a5,t0
   12edc:	fff2c513          	not	a0,t0
   12ee0:	8de5                	and	a1,a1,s1
   12ee2:	01e37333          	and	t1,t1,t5
   12ee6:	01d8f8b3          	and	a7,a7,t4
   12eea:	007e4e33          	xor	t3,t3,t2
   12eee:	01d74eb3          	xor	t4,a4,t4
   12ef2:	01de4e33          	xor	t3,t3,t4
   12ef6:	01ea44b3          	xor	s1,s4,t5
   12efa:	0105c5b3          	xor	a1,a1,a6
   12efe:	0087c733          	xor	a4,a5,s0
   12f02:	00765f13          	srli	t5,a2,0x7
   12f06:	01769813          	slli	a6,a3,0x17
   12f0a:	01761793          	slli	a5,a2,0x17
   12f0e:	01257533          	and	a0,a0,s2
   12f12:	00534333          	xor	t1,t1,t0
   12f16:	01f8c8b3          	xor	a7,a7,t6
   12f1a:	01969413          	slli	s0,a3,0x19
   12f1e:	8ff6                	mv	t6,t4
   12f20:	01961913          	slli	s2,a2,0x19
   12f24:	0076de93          	srli	t4,a3,0x7
   12f28:	00965293          	srli	t0,a2,0x9
   12f2c:	0096d393          	srli	t2,a3,0x9
   12f30:	8f25                	xor	a4,a4,s1
   12f32:	0102e2b3          	or	t0,t0,a6
   12f36:	00f3e3b3          	or	t2,t2,a5
   12f3a:	01e46433          	or	s0,s0,t5
   12f3e:	01d96933          	or	s2,s2,t4
   12f42:	00594933          	xor	s2,s2,t0
   12f46:	00744433          	xor	s0,s0,t2
   12f4a:	01d75293          	srli	t0,a4,0x1d
   12f4e:	003e1393          	slli	t2,t3,0x3
   12f52:	ca22                	sw	s0,20(sp)
   12f54:	01354533          	xor	a0,a0,s3
   12f58:	0072e3b3          	or	t2,t0,t2
   12f5c:	00371413          	slli	s0,a4,0x3
   12f60:	01de5293          	srli	t0,t3,0x1d
   12f64:	00a34333          	xor	t1,t1,a0
   12f68:	019e1c93          	slli	s9,t3,0x19
   12f6c:	0082e433          	or	s0,t0,s0
   12f70:	00775293          	srli	t0,a4,0x7
   12f74:	00b8c8b3          	xor	a7,a7,a1
   12f78:	fff54513          	not	a0,a0
   12f7c:	fff5c593          	not	a1,a1
   12f80:	00a35a93          	srli	s5,t1,0xa
   12f84:	0192ecb3          	or	s9,t0,s9
   12f88:	01971d13          	slli	s10,a4,0x19
   12f8c:	007e5293          	srli	t0,t3,0x7
   12f90:	c626                	sw	s1,12(sp)
   12f92:	00dfc9b3          	xor	s3,t6,a3
   12f96:	8cb1                	xor	s1,s1,a2
   12f98:	8dd6                	mv	s11,s5
   12f9a:	0015dc13          	srli	s8,a1,0x1
   12f9e:	0065de93          	srli	t4,a1,0x6
   12fa2:	01a2ed33          	or	s10,t0,s10
   12fa6:	01f51a13          	slli	s4,a0,0x1f
   12faa:	01a51813          	slli	a6,a0,0x1a
   12fae:	01689293          	slli	t0,a7,0x16
   12fb2:	018a6a33          	or	s4,s4,s8
   12fb6:	00a8db13          	srli	s6,a7,0xa
   12fba:	00d49c13          	slli	s8,s1,0xd
   12fbe:	01b2e2b3          	or	t0,t0,s11
   12fc2:	01d86833          	or	a6,a6,t4
   12fc6:	01631d93          	slli	s11,t1,0x16
   12fca:	0139de93          	srli	t4,s3,0x13
   12fce:	016deb33          	or	s6,s11,s6
   12fd2:	00f89b93          	slli	s7,a7,0xf
   12fd6:	01135d93          	srli	s11,t1,0x11
   12fda:	010a4833          	xor	a6,s4,a6
   12fde:	01dc6eb3          	or	t4,s8,t4
   12fe2:	4a32                	lw	s4,12(sp)
   12fe4:	4c52                	lw	s8,20(sp)
   12fe6:	c87e                	sw	t6,16(sp)
   12fe8:	01bbebb3          	or	s7,s7,s11
   12fec:	0118df93          	srli	t6,a7,0x11
   12ff0:	00f31d93          	slli	s11,t1,0xf
   12ff4:	01fdefb3          	or	t6,s11,t6
   12ff8:	01fb4fb3          	xor	t6,s6,t6
   12ffc:	018a4b33          	xor	s6,s4,s8
   13000:	4a42                	lw	s4,16(sp)
   13002:	00655f13          	srli	t5,a0,0x6
   13006:	00155d93          	srli	s11,a0,0x1
   1300a:	01f59a93          	slli	s5,a1,0x1f
   1300e:	01a59793          	slli	a5,a1,0x1a
   13012:	01baeab3          	or	s5,s5,s11
   13016:	01e7e7b3          	or	a5,a5,t5
   1301a:	00d99d93          	slli	s11,s3,0xd
   1301e:	0134df13          	srli	t5,s1,0x13
   13022:	0193c3b3          	xor	t2,t2,s9
   13026:	0172c2b3          	xor	t0,t0,s7
   1302a:	00fac7b3          	xor	a5,s5,a5
   1302e:	012a4bb3          	xor	s7,s4,s2
   13032:	01c4da93          	srli	s5,s1,0x1c
   13036:	01edef33          	or	t5,s11,t5
   1303a:	00499a13          	slli	s4,s3,0x4
   1303e:	0492                	slli	s1,s1,0x4
   13040:	01c9d993          	srli	s3,s3,0x1c
   13044:	01c3c3b3          	xor	t2,t2,t3
   13048:	015a6a33          	or	s4,s4,s5
   1304c:	0134e4b3          	or	s1,s1,s3
   13050:	01a44433          	xor	s0,s0,s10
   13054:	00b84833          	xor	a6,a6,a1
   13058:	016f4f33          	xor	t5,t5,s6
   1305c:	017eceb3          	xor	t4,t4,s7
   13060:	8c39                	xor	s0,s0,a4
   13062:	0062c2b3          	xor	t0,t0,t1
   13066:	011fcfb3          	xor	t6,t6,a7
   1306a:	00784833          	xor	a6,a6,t2
   1306e:	014f4f33          	xor	t5,t5,s4
   13072:	009eceb3          	xor	t4,t4,s1
   13076:	01864633          	xor	a2,a2,s8
   1307a:	0126c6b3          	xor	a3,a3,s2
   1307e:	8fa9                	xor	a5,a5,a0
   13080:	00564933          	xor	s2,a2,t0
   13084:	01f6c4b3          	xor	s1,a3,t6
   13088:	8fa1                	xor	a5,a5,s0
   1308a:	fff3c713          	not	a4,t2
   1308e:	ffff4613          	not	a2,t5
   13092:	fffec693          	not	a3,t4
   13096:	fff84e13          	not	t3,a6
   1309a:	0877c993          	xori	s3,a5,135
   1309e:	01077733          	and	a4,a4,a6
   130a2:	fff44a13          	not	s4,s0
   130a6:	ffffc593          	not	a1,t6
   130aa:	fff94313          	not	t1,s2
   130ae:	fff4c893          	not	a7,s1
   130b2:	8e61                	and	a2,a2,s0
   130b4:	0076f6b3          	and	a3,a3,t2
   130b8:	01fe7e33          	and	t3,t3,t6
   130bc:	f787c793          	xori	a5,a5,-136
   130c0:	8ea5                	xor	a3,a3,s1
   130c2:	01264633          	xor	a2,a2,s2
   130c6:	013a7a33          	and	s4,s4,s3
   130ca:	0057f7b3          	and	a5,a5,t0
   130ce:	fff2c513          	not	a0,t0
   130d2:	8de5                	and	a1,a1,s1
   130d4:	01e37333          	and	t1,t1,t5
   130d8:	01d8f8b3          	and	a7,a7,t4
   130dc:	007e4e33          	xor	t3,t3,t2
   130e0:	01d74eb3          	xor	t4,a4,t4
   130e4:	01de4e33          	xor	t3,t3,t4
   130e8:	01ea44b3          	xor	s1,s4,t5
   130ec:	0105c5b3          	xor	a1,a1,a6
   130f0:	0087c733          	xor	a4,a5,s0
   130f4:	00765f13          	srli	t5,a2,0x7
   130f8:	01769813          	slli	a6,a3,0x17
   130fc:	01761793          	slli	a5,a2,0x17
   13100:	01257533          	and	a0,a0,s2
   13104:	00534333          	xor	t1,t1,t0
   13108:	01f8c8b3          	xor	a7,a7,t6
   1310c:	01969413          	slli	s0,a3,0x19
   13110:	8ff6                	mv	t6,t4
   13112:	01961913          	slli	s2,a2,0x19
   13116:	0076de93          	srli	t4,a3,0x7
   1311a:	00965293          	srli	t0,a2,0x9
   1311e:	0096d393          	srli	t2,a3,0x9
   13122:	8f25                	xor	a4,a4,s1
   13124:	0102e2b3          	or	t0,t0,a6
   13128:	00f3e3b3          	or	t2,t2,a5
   1312c:	01e46433          	or	s0,s0,t5
   13130:	01d96933          	or	s2,s2,t4
   13134:	00594933          	xor	s2,s2,t0
   13138:	00744433          	xor	s0,s0,t2
   1313c:	01d75293          	srli	t0,a4,0x1d
   13140:	003e1393          	slli	t2,t3,0x3
   13144:	ca22                	sw	s0,20(sp)
   13146:	01354533          	xor	a0,a0,s3
   1314a:	0072e3b3          	or	t2,t0,t2
   1314e:	00371413          	slli	s0,a4,0x3
   13152:	01de5293          	srli	t0,t3,0x1d
   13156:	00a34333          	xor	t1,t1,a0
   1315a:	019e1c93          	slli	s9,t3,0x19
   1315e:	0082e433          	or	s0,t0,s0
   13162:	00775293          	srli	t0,a4,0x7
   13166:	00b8c8b3          	xor	a7,a7,a1
   1316a:	fff54513          	not	a0,a0
   1316e:	fff5c593          	not	a1,a1
   13172:	00a35a93          	srli	s5,t1,0xa
   13176:	0192ecb3          	or	s9,t0,s9
   1317a:	01971d13          	slli	s10,a4,0x19
   1317e:	007e5293          	srli	t0,t3,0x7
   13182:	00dfc9b3          	xor	s3,t6,a3
   13186:	c626                	sw	s1,12(sp)
   13188:	8dd6                	mv	s11,s5
   1318a:	8cb1                	xor	s1,s1,a2
   1318c:	0015dc13          	srli	s8,a1,0x1
   13190:	0065de93          	srli	t4,a1,0x6
   13194:	01a2ed33          	or	s10,t0,s10
   13198:	01f51a13          	slli	s4,a0,0x1f
   1319c:	01a51813          	slli	a6,a0,0x1a
   131a0:	01689293          	slli	t0,a7,0x16
   131a4:	018a6a33          	or	s4,s4,s8
   131a8:	00a8db13          	srli	s6,a7,0xa
   131ac:	00d49c13          	slli	s8,s1,0xd
   131b0:	01b2e2b3          	or	t0,t0,s11
   131b4:	01d86833          	or	a6,a6,t4
   131b8:	01631d93          	slli	s11,t1,0x16
   131bc:	0139de93          	srli	t4,s3,0x13
   131c0:	016deb33          	or	s6,s11,s6
   131c4:	00f89b93          	slli	s7,a7,0xf
   131c8:	01135d93          	srli	s11,t1,0x11
   131cc:	010a4833          	xor	a6,s4,a6
   131d0:	01dc6eb3          	or	t4,s8,t4
   131d4:	4a32                	lw	s4,12(sp)
   131d6:	4c52                	lw	s8,20(sp)
   131d8:	c87e                	sw	t6,16(sp)
   131da:	01bbebb3          	or	s7,s7,s11
   131de:	0118df93          	srli	t6,a7,0x11
   131e2:	00f31d93          	slli	s11,t1,0xf
   131e6:	01fdefb3          	or	t6,s11,t6
   131ea:	01fb4fb3          	xor	t6,s6,t6
   131ee:	018a4b33          	xor	s6,s4,s8
   131f2:	4a42                	lw	s4,16(sp)
   131f4:	00655f13          	srli	t5,a0,0x6
   131f8:	00155d93          	srli	s11,a0,0x1
   131fc:	01f59a93          	slli	s5,a1,0x1f
   13200:	01a59793          	slli	a5,a1,0x1a
   13204:	01baeab3          	or	s5,s5,s11
   13208:	01e7e7b3          	or	a5,a5,t5
   1320c:	00d99d93          	slli	s11,s3,0xd
   13210:	0134df13          	srli	t5,s1,0x13
   13214:	0193c3b3          	xor	t2,t2,s9
   13218:	0172c2b3          	xor	t0,t0,s7
   1321c:	00fac7b3          	xor	a5,s5,a5
   13220:	012a4bb3          	xor	s7,s4,s2
   13224:	01c4da93          	srli	s5,s1,0x1c
   13228:	01edef33          	or	t5,s11,t5
   1322c:	00499a13          	slli	s4,s3,0x4
   13230:	0492                	slli	s1,s1,0x4
   13232:	01c9d993          	srli	s3,s3,0x1c
   13236:	01c3c3b3          	xor	t2,t2,t3
   1323a:	015a6a33          	or	s4,s4,s5
   1323e:	0134e4b3          	or	s1,s1,s3
   13242:	01a44433          	xor	s0,s0,s10
   13246:	00b84833          	xor	a6,a6,a1
   1324a:	016f4f33          	xor	t5,t5,s6
   1324e:	017eceb3          	xor	t4,t4,s7
   13252:	8c39                	xor	s0,s0,a4
   13254:	0062c2b3          	xor	t0,t0,t1
   13258:	011fcfb3          	xor	t6,t6,a7
   1325c:	00784833          	xor	a6,a6,t2
   13260:	014f4f33          	xor	t5,t5,s4
   13264:	009eceb3          	xor	t4,t4,s1
   13268:	01864633          	xor	a2,a2,s8
   1326c:	0126c6b3          	xor	a3,a3,s2
   13270:	8fa9                	xor	a5,a5,a0
   13272:	00564933          	xor	s2,a2,t0
   13276:	01f6c4b3          	xor	s1,a3,t6
   1327a:	8fa1                	xor	a5,a5,s0
   1327c:	fff3c713          	not	a4,t2
   13280:	ffff4613          	not	a2,t5
   13284:	fffec693          	not	a3,t4
   13288:	fff84e13          	not	t3,a6
   1328c:	0787c993          	xori	s3,a5,120
   13290:	01077733          	and	a4,a4,a6
   13294:	fff44a13          	not	s4,s0
   13298:	ffffc593          	not	a1,t6
   1329c:	fff94313          	not	t1,s2
   132a0:	fff4c893          	not	a7,s1
   132a4:	8e61                	and	a2,a2,s0
   132a6:	0076f6b3          	and	a3,a3,t2
   132aa:	01fe7e33          	and	t3,t3,t6
   132ae:	f877c793          	xori	a5,a5,-121
   132b2:	8ea5                	xor	a3,a3,s1
   132b4:	01264633          	xor	a2,a2,s2
   132b8:	013a7a33          	and	s4,s4,s3
   132bc:	0057f7b3          	and	a5,a5,t0
   132c0:	fff2c513          	not	a0,t0
   132c4:	8de5                	and	a1,a1,s1
   132c6:	01e37333          	and	t1,t1,t5
   132ca:	01d8f8b3          	and	a7,a7,t4
   132ce:	007e4e33          	xor	t3,t3,t2
   132d2:	01d74eb3          	xor	t4,a4,t4
   132d6:	01de4e33          	xor	t3,t3,t4
   132da:	01ea44b3          	xor	s1,s4,t5
   132de:	0105c5b3          	xor	a1,a1,a6
   132e2:	0087c733          	xor	a4,a5,s0
   132e6:	00765f13          	srli	t5,a2,0x7
   132ea:	01769813          	slli	a6,a3,0x17
   132ee:	01761793          	slli	a5,a2,0x17
   132f2:	01257533          	and	a0,a0,s2
   132f6:	00534333          	xor	t1,t1,t0
   132fa:	01f8c8b3          	xor	a7,a7,t6
   132fe:	01969413          	slli	s0,a3,0x19
   13302:	8ff6                	mv	t6,t4
   13304:	01961913          	slli	s2,a2,0x19
   13308:	0076de93          	srli	t4,a3,0x7
   1330c:	00965293          	srli	t0,a2,0x9
   13310:	0096d393          	srli	t2,a3,0x9
   13314:	8f25                	xor	a4,a4,s1
   13316:	0102e2b3          	or	t0,t0,a6
   1331a:	00f3e3b3          	or	t2,t2,a5
   1331e:	01e46433          	or	s0,s0,t5
   13322:	01d96933          	or	s2,s2,t4
   13326:	00594933          	xor	s2,s2,t0
   1332a:	00744433          	xor	s0,s0,t2
   1332e:	01d75293          	srli	t0,a4,0x1d
   13332:	003e1393          	slli	t2,t3,0x3
   13336:	01354533          	xor	a0,a0,s3
   1333a:	ca22                	sw	s0,20(sp)
   1333c:	0072e3b3          	or	t2,t0,t2
   13340:	00371413          	slli	s0,a4,0x3
   13344:	01de5293          	srli	t0,t3,0x1d
   13348:	00a34333          	xor	t1,t1,a0
   1334c:	019e1c93          	slli	s9,t3,0x19
   13350:	0082e433          	or	s0,t0,s0
   13354:	00775293          	srli	t0,a4,0x7
   13358:	00b8c8b3          	xor	a7,a7,a1
   1335c:	fff54513          	not	a0,a0
   13360:	fff5c593          	not	a1,a1
   13364:	00a35a93          	srli	s5,t1,0xa
   13368:	0192ecb3          	or	s9,t0,s9
   1336c:	01971d13          	slli	s10,a4,0x19
   13370:	007e5293          	srli	t0,t3,0x7
   13374:	00dfc9b3          	xor	s3,t6,a3
   13378:	c626                	sw	s1,12(sp)
   1337a:	8dd6                	mv	s11,s5
   1337c:	8cb1                	xor	s1,s1,a2
   1337e:	0015dc13          	srli	s8,a1,0x1
   13382:	0065de93          	srli	t4,a1,0x6
   13386:	01a2ed33          	or	s10,t0,s10
   1338a:	01f51a13          	slli	s4,a0,0x1f
   1338e:	01a51813          	slli	a6,a0,0x1a
   13392:	01689293          	slli	t0,a7,0x16
   13396:	018a6a33          	or	s4,s4,s8
   1339a:	00a8db13          	srli	s6,a7,0xa
   1339e:	00d49c13          	slli	s8,s1,0xd
   133a2:	01b2e2b3          	or	t0,t0,s11
   133a6:	01d86833          	or	a6,a6,t4
   133aa:	01631d93          	slli	s11,t1,0x16
   133ae:	0139de93          	srli	t4,s3,0x13
   133b2:	016deb33          	or	s6,s11,s6
   133b6:	c87e                	sw	t6,16(sp)
   133b8:	01135d93          	srli	s11,t1,0x11
   133bc:	00f89b93          	slli	s7,a7,0xf
   133c0:	010a4833          	xor	a6,s4,a6
   133c4:	01dc6eb3          	or	t4,s8,t4
   133c8:	4a32                	lw	s4,12(sp)
   133ca:	4c52                	lw	s8,20(sp)
   133cc:	01bbebb3          	or	s7,s7,s11
   133d0:	0118df93          	srli	t6,a7,0x11
   133d4:	00f31d93          	slli	s11,t1,0xf
   133d8:	01fdefb3          	or	t6,s11,t6
   133dc:	01fb4fb3          	xor	t6,s6,t6
   133e0:	018a4b33          	xor	s6,s4,s8
   133e4:	4a42                	lw	s4,16(sp)
   133e6:	00655f13          	srli	t5,a0,0x6
   133ea:	00155d93          	srli	s11,a0,0x1
   133ee:	01f59a93          	slli	s5,a1,0x1f
   133f2:	01a59793          	slli	a5,a1,0x1a
   133f6:	01baeab3          	or	s5,s5,s11
   133fa:	01e7e7b3          	or	a5,a5,t5
   133fe:	00d99d93          	slli	s11,s3,0xd
   13402:	0134df13          	srli	t5,s1,0x13
   13406:	0193c3b3          	xor	t2,t2,s9
   1340a:	0172c2b3          	xor	t0,t0,s7
   1340e:	00fac7b3          	xor	a5,s5,a5
   13412:	012a4bb3          	xor	s7,s4,s2
   13416:	01c4da93          	srli	s5,s1,0x1c
   1341a:	01edef33          	or	t5,s11,t5
   1341e:	00499a13          	slli	s4,s3,0x4
   13422:	0492                	slli	s1,s1,0x4
   13424:	01c9d993          	srli	s3,s3,0x1c
   13428:	01c3c3b3          	xor	t2,t2,t3
   1342c:	015a6a33          	or	s4,s4,s5
   13430:	0134e4b3          	or	s1,s1,s3
   13434:	01a44433          	xor	s0,s0,s10
   13438:	00b84833          	xor	a6,a6,a1
   1343c:	016f4f33          	xor	t5,t5,s6
   13440:	017eceb3          	xor	t4,t4,s7
   13444:	8c39                	xor	s0,s0,a4
   13446:	0062c2b3          	xor	t0,t0,t1
   1344a:	011fcfb3          	xor	t6,t6,a7
   1344e:	00784833          	xor	a6,a6,t2
   13452:	014f4f33          	xor	t5,t5,s4
   13456:	009eceb3          	xor	t4,t4,s1
   1345a:	01864633          	xor	a2,a2,s8
   1345e:	0126c6b3          	xor	a3,a3,s2
   13462:	8fa9                	xor	a5,a5,a0
   13464:	00564933          	xor	s2,a2,t0
   13468:	01f6c4b3          	xor	s1,a3,t6
   1346c:	8fa1                	xor	a5,a5,s0
   1346e:	fff3c713          	not	a4,t2
   13472:	ffff4613          	not	a2,t5
   13476:	fffec693          	not	a3,t4
   1347a:	fff84e13          	not	t3,a6
   1347e:	0697c993          	xori	s3,a5,105
   13482:	01077733          	and	a4,a4,a6
   13486:	fff44a13          	not	s4,s0
   1348a:	ffffc593          	not	a1,t6
   1348e:	fff94313          	not	t1,s2
   13492:	fff4c893          	not	a7,s1
   13496:	8e61                	and	a2,a2,s0
   13498:	0076f6b3          	and	a3,a3,t2
   1349c:	01fe7e33          	and	t3,t3,t6
   134a0:	f967c793          	xori	a5,a5,-106
   134a4:	8ea5                	xor	a3,a3,s1
   134a6:	01264633          	xor	a2,a2,s2
   134aa:	013a7a33          	and	s4,s4,s3
   134ae:	0057f7b3          	and	a5,a5,t0
   134b2:	fff2c513          	not	a0,t0
   134b6:	8de5                	and	a1,a1,s1
   134b8:	01e37333          	and	t1,t1,t5
   134bc:	01d8f8b3          	and	a7,a7,t4
   134c0:	007e4e33          	xor	t3,t3,t2
   134c4:	01d74eb3          	xor	t4,a4,t4
   134c8:	01de4e33          	xor	t3,t3,t4
   134cc:	01ea44b3          	xor	s1,s4,t5
   134d0:	0105c5b3          	xor	a1,a1,a6
   134d4:	0087c733          	xor	a4,a5,s0
   134d8:	00765f13          	srli	t5,a2,0x7
   134dc:	01769813          	slli	a6,a3,0x17
   134e0:	01761793          	slli	a5,a2,0x17
   134e4:	01257533          	and	a0,a0,s2
   134e8:	00534333          	xor	t1,t1,t0
   134ec:	01f8c8b3          	xor	a7,a7,t6
   134f0:	01969413          	slli	s0,a3,0x19
   134f4:	8ff6                	mv	t6,t4
   134f6:	01961913          	slli	s2,a2,0x19
   134fa:	0076de93          	srli	t4,a3,0x7
   134fe:	00965293          	srli	t0,a2,0x9
   13502:	0096d393          	srli	t2,a3,0x9
   13506:	8f25                	xor	a4,a4,s1
   13508:	0102e2b3          	or	t0,t0,a6
   1350c:	00f3e3b3          	or	t2,t2,a5
   13510:	01e46433          	or	s0,s0,t5
   13514:	01d96933          	or	s2,s2,t4
   13518:	00594933          	xor	s2,s2,t0
   1351c:	00744433          	xor	s0,s0,t2
   13520:	01d75293          	srli	t0,a4,0x1d
   13524:	003e1393          	slli	t2,t3,0x3
   13528:	ca22                	sw	s0,20(sp)
   1352a:	01354533          	xor	a0,a0,s3
   1352e:	0072e3b3          	or	t2,t0,t2
   13532:	00371413          	slli	s0,a4,0x3
   13536:	01de5293          	srli	t0,t3,0x1d
   1353a:	00a34333          	xor	t1,t1,a0
   1353e:	019e1c93          	slli	s9,t3,0x19
   13542:	0082e433          	or	s0,t0,s0
   13546:	00775293          	srli	t0,a4,0x7
   1354a:	00b8c8b3          	xor	a7,a7,a1
   1354e:	fff54513          	not	a0,a0
   13552:	fff5c593          	not	a1,a1
   13556:	00a35a93          	srli	s5,t1,0xa
   1355a:	0192ecb3          	or	s9,t0,s9
   1355e:	01971d13          	slli	s10,a4,0x19
   13562:	007e5293          	srli	t0,t3,0x7
   13566:	c626                	sw	s1,12(sp)
   13568:	00dfc9b3          	xor	s3,t6,a3
   1356c:	8cb1                	xor	s1,s1,a2
   1356e:	8dd6                	mv	s11,s5
   13570:	0015dc13          	srli	s8,a1,0x1
   13574:	0065de93          	srli	t4,a1,0x6
   13578:	01a2ed33          	or	s10,t0,s10
   1357c:	01f51a13          	slli	s4,a0,0x1f
   13580:	01a51813          	slli	a6,a0,0x1a
   13584:	01689293          	slli	t0,a7,0x16
   13588:	018a6a33          	or	s4,s4,s8
   1358c:	00a8db13          	srli	s6,a7,0xa
   13590:	00d49c13          	slli	s8,s1,0xd
   13594:	01b2e2b3          	or	t0,t0,s11
   13598:	01d86833          	or	a6,a6,t4
   1359c:	01631d93          	slli	s11,t1,0x16
   135a0:	0139de93          	srli	t4,s3,0x13
   135a4:	016deb33          	or	s6,s11,s6
   135a8:	00f89b93          	slli	s7,a7,0xf
   135ac:	01135d93          	srli	s11,t1,0x11
   135b0:	010a4833          	xor	a6,s4,a6
   135b4:	01dc6eb3          	or	t4,s8,t4
   135b8:	4a32                	lw	s4,12(sp)
   135ba:	4c52                	lw	s8,20(sp)
   135bc:	c87e                	sw	t6,16(sp)
   135be:	01bbebb3          	or	s7,s7,s11
   135c2:	0118df93          	srli	t6,a7,0x11
   135c6:	00f31d93          	slli	s11,t1,0xf
   135ca:	01fdefb3          	or	t6,s11,t6
   135ce:	01fb4fb3          	xor	t6,s6,t6
   135d2:	018a4b33          	xor	s6,s4,s8
   135d6:	4a42                	lw	s4,16(sp)
   135d8:	00655f13          	srli	t5,a0,0x6
   135dc:	00155d93          	srli	s11,a0,0x1
   135e0:	01f59a93          	slli	s5,a1,0x1f
   135e4:	01a59793          	slli	a5,a1,0x1a
   135e8:	01baeab3          	or	s5,s5,s11
   135ec:	01e7e7b3          	or	a5,a5,t5
   135f0:	00d99d93          	slli	s11,s3,0xd
   135f4:	0134df13          	srli	t5,s1,0x13
   135f8:	0172c2b3          	xor	t0,t0,s7
   135fc:	00fac7b3          	xor	a5,s5,a5
   13600:	012a4bb3          	xor	s7,s4,s2
   13604:	01c4da93          	srli	s5,s1,0x1c
   13608:	01edef33          	or	t5,s11,t5
   1360c:	00499a13          	slli	s4,s3,0x4
   13610:	0492                	slli	s1,s1,0x4
   13612:	01c9d993          	srli	s3,s3,0x1c
   13616:	015a6a33          	or	s4,s4,s5
   1361a:	0134e4b3          	or	s1,s1,s3
   1361e:	01a44433          	xor	s0,s0,s10
   13622:	0193c3b3          	xor	t2,t2,s9
   13626:	016f4f33          	xor	t5,t5,s6
   1362a:	017eceb3          	xor	t4,t4,s7
   1362e:	8c39                	xor	s0,s0,a4
   13630:	01c3c3b3          	xor	t2,t2,t3
   13634:	0062c2b3          	xor	t0,t0,t1
   13638:	011fcfb3          	xor	t6,t6,a7
   1363c:	014f4f33          	xor	t5,t5,s4
   13640:	009eceb3          	xor	t4,t4,s1
   13644:	01864633          	xor	a2,a2,s8
   13648:	0126c6b3          	xor	a3,a3,s2
   1364c:	8fa9                	xor	a5,a5,a0
   1364e:	00b84833          	xor	a6,a6,a1
   13652:	00564933          	xor	s2,a2,t0
   13656:	01f6c4b3          	xor	s1,a3,t6
   1365a:	00784833          	xor	a6,a6,t2
   1365e:	8fa1                	xor	a5,a5,s0
   13660:	ffff4613          	not	a2,t5
   13664:	fffec693          	not	a3,t4
   13668:	05a7c993          	xori	s3,a5,90
   1366c:	fff44a13          	not	s4,s0
   13670:	fff3c713          	not	a4,t2
   13674:	ffffc593          	not	a1,t6
   13678:	fff84e13          	not	t3,a6
   1367c:	fff94313          	not	t1,s2
   13680:	fff4c893          	not	a7,s1
   13684:	8e61                	and	a2,a2,s0
   13686:	0076f6b3          	and	a3,a3,t2
   1368a:	fa57c793          	xori	a5,a5,-91
   1368e:	8ea5                	xor	a3,a3,s1
   13690:	01264633          	xor	a2,a2,s2
   13694:	013a7a33          	and	s4,s4,s3
   13698:	01077733          	and	a4,a4,a6
   1369c:	0057f7b3          	and	a5,a5,t0
   136a0:	fff2c513          	not	a0,t0
   136a4:	8de5                	and	a1,a1,s1
   136a6:	01fe7e33          	and	t3,t3,t6
   136aa:	01e37333          	and	t1,t1,t5
   136ae:	01d8f8b3          	and	a7,a7,t4
   136b2:	01ea44b3          	xor	s1,s4,t5
   136b6:	01d74bb3          	xor	s7,a4,t4
   136ba:	0105c5b3          	xor	a1,a1,a6
   136be:	0087c733          	xor	a4,a5,s0
   136c2:	0076df13          	srli	t5,a3,0x7
   136c6:	01769813          	slli	a6,a3,0x17
   136ca:	01761793          	slli	a5,a2,0x17
   136ce:	01257533          	and	a0,a0,s2
   136d2:	007e4e33          	xor	t3,t3,t2
   136d6:	00534333          	xor	t1,t1,t0
   136da:	01f8c8b3          	xor	a7,a7,t6
   136de:	01969413          	slli	s0,a3,0x19
   136e2:	00765f93          	srli	t6,a2,0x7
   136e6:	01961913          	slli	s2,a2,0x19
   136ea:	00965293          	srli	t0,a2,0x9
   136ee:	0096d393          	srli	t2,a3,0x9
   136f2:	8f25                	xor	a4,a4,s1
   136f4:	017e4e33          	xor	t3,t3,s7
   136f8:	0102e2b3          	or	t0,t0,a6
   136fc:	00f3e3b3          	or	t2,t2,a5
   13700:	01f46433          	or	s0,s0,t6
   13704:	01e96933          	or	s2,s2,t5
   13708:	00594933          	xor	s2,s2,t0
   1370c:	00744433          	xor	s0,s0,t2
   13710:	01d75293          	srli	t0,a4,0x1d
   13714:	003e1393          	slli	t2,t3,0x3
   13718:	c822                	sw	s0,16(sp)
   1371a:	01354533          	xor	a0,a0,s3
   1371e:	0072e3b3          	or	t2,t0,t2
   13722:	00371413          	slli	s0,a4,0x3
   13726:	01de5293          	srli	t0,t3,0x1d
   1372a:	00a34333          	xor	t1,t1,a0
   1372e:	019e1c93          	slli	s9,t3,0x19
   13732:	0082e433          	or	s0,t0,s0
   13736:	00775293          	srli	t0,a4,0x7
   1373a:	00b8c8b3          	xor	a7,a7,a1
   1373e:	00a35e93          	srli	t4,t1,0xa
   13742:	0192ecb3          	or	s9,t0,s9
   13746:	01971d13          	slli	s10,a4,0x19
   1374a:	007e5293          	srli	t0,t3,0x7
   1374e:	8af6                	mv	s5,t4
   13750:	01a2ed33          	or	s10,t0,s10
   13754:	01689293          	slli	t0,a7,0x16
   13758:	00a8de93          	srli	t4,a7,0xa
   1375c:	0152e2b3          	or	t0,t0,s5
   13760:	01631a93          	slli	s5,t1,0x16
   13764:	00f89b13          	slli	s6,a7,0xf
   13768:	01daeeb3          	or	t4,s5,t4
   1376c:	01135a93          	srli	s5,t1,0x11
   13770:	fff54513          	not	a0,a0
   13774:	fff5c593          	not	a1,a1
   13778:	015b6b33          	or	s6,s6,s5
   1377c:	0118dc13          	srli	s8,a7,0x11
   13780:	00f31a93          	slli	s5,t1,0xf
   13784:	00155d93          	srli	s11,a0,0x1
   13788:	018aec33          	or	s8,s5,s8
   1378c:	01f59a93          	slli	s5,a1,0x1f
   13790:	0065df13          	srli	t5,a1,0x6
   13794:	01baeab3          	or	s5,s5,s11
   13798:	01f51a13          	slli	s4,a0,0x1f
   1379c:	0015dd93          	srli	s11,a1,0x1
   137a0:	01a51813          	slli	a6,a0,0x1a
   137a4:	c626                	sw	s1,12(sp)
   137a6:	01ba6a33          	or	s4,s4,s11
   137aa:	01e86833          	or	a6,a6,t5
   137ae:	00655f93          	srli	t6,a0,0x6
   137b2:	01a59793          	slli	a5,a1,0x1a
   137b6:	018eceb3          	xor	t4,t4,s8
   137ba:	010a4833          	xor	a6,s4,a6
   137be:	4c42                	lw	s8,16(sp)
   137c0:	4a32                	lw	s4,12(sp)
   137c2:	00dbc9b3          	xor	s3,s7,a3
   137c6:	8cb1                	xor	s1,s1,a2
   137c8:	01f7e7b3          	or	a5,a5,t6
   137cc:	0139df13          	srli	t5,s3,0x13
   137d0:	00fac7b3          	xor	a5,s5,a5
   137d4:	00d49a93          	slli	s5,s1,0xd
   137d8:	00d99d93          	slli	s11,s3,0xd
   137dc:	012bcbb3          	xor	s7,s7,s2
   137e0:	0134df93          	srli	t6,s1,0x13
   137e4:	0162c2b3          	xor	t0,t0,s6
   137e8:	01eaef33          	or	t5,s5,t5
   137ec:	018a4b33          	xor	s6,s4,s8
   137f0:	01c4da93          	srli	s5,s1,0x1c
   137f4:	00499a13          	slli	s4,s3,0x4
   137f8:	0492                	slli	s1,s1,0x4
   137fa:	01c9d993          	srli	s3,s3,0x1c
   137fe:	017f4f33          	xor	t5,t5,s7
   13802:	0134e4b3          	or	s1,s1,s3
   13806:	009f44b3          	xor	s1,t5,s1
   1380a:	0193c3b3          	xor	t2,t2,s9
   1380e:	01c3c3b3          	xor	t2,t2,t3
   13812:	011eceb3          	xor	t4,t4,a7
   13816:	0126c6b3          	xor	a3,a3,s2
   1381a:	fff4cf13          	not	t5,s1
   1381e:	01d6c6b3          	xor	a3,a3,t4
   13822:	00b84833          	xor	a6,a6,a1
   13826:	007f7f33          	and	t5,t5,t2
   1382a:	fffec593          	not	a1,t4
   1382e:	00df4f33          	xor	t5,t5,a3
   13832:	0062c2b3          	xor	t0,t0,t1
   13836:	007849b3          	xor	s3,a6,t2
   1383a:	01a44433          	xor	s0,s0,s10
   1383e:	fff6c313          	not	t1,a3
   13842:	8df5                	and	a1,a1,a3
   13844:	4692                	lw	a3,4(sp)
   13846:	8c39                	xor	s0,s0,a4
   13848:	fff9c713          	not	a4,s3
   1384c:	01d77733          	and	a4,a4,t4
   13850:	00774733          	xor	a4,a4,t2
   13854:	01fdefb3          	or	t6,s11,t6
   13858:	fff3c813          	not	a6,t2
   1385c:	0186d393          	srli	t2,a3,0x18
   13860:	016fcfb3          	xor	t6,t6,s6
   13864:	015a6a33          	or	s4,s4,s5
   13868:	c61e                	sw	t2,12(sp)
   1386a:	8fa9                	xor	a5,a5,a0
   1386c:	0106d393          	srli	t2,a3,0x10
   13870:	014fc933          	xor	s2,t6,s4
   13874:	8fa1                	xor	a5,a5,s0
   13876:	c81e                	sw	t2,16(sp)
   13878:	0086d393          	srli	t2,a3,0x8
   1387c:	4682                	lw	a3,0(sp)
   1387e:	04b7ca13          	xori	s4,a5,75
   13882:	01864633          	xor	a2,a2,s8
   13886:	fff44893          	not	a7,s0
   1388a:	fff94f93          	not	t6,s2
   1388e:	fb47c793          	xori	a5,a5,-76
   13892:	00564633          	xor	a2,a2,t0
   13896:	0148f8b3          	and	a7,a7,s4
   1389a:	01387833          	and	a6,a6,s3
   1389e:	008fffb3          	and	t6,t6,s0
   138a2:	0057f7b3          	and	a5,a5,t0
   138a6:	00cfcfb3          	xor	t6,t6,a2
   138aa:	0128c8b3          	xor	a7,a7,s2
   138ae:	00984833          	xor	a6,a6,s1
   138b2:	00937333          	and	t1,t1,s1
   138b6:	8fa1                	xor	a5,a5,s0
   138b8:	ca1e                	sw	t2,20(sp)
   138ba:	0186d393          	srli	t2,a3,0x18
   138be:	0117c7b3          	xor	a5,a5,a7
   138c2:	01d34333          	xor	t1,t1,t4
   138c6:	01f8c8b3          	xor	a7,a7,t6
   138ca:	01074eb3          	xor	t4,a4,a6
   138ce:	cc1e                	sw	t2,24(sp)
   138d0:	01e84833          	xor	a6,a6,t5
   138d4:	0106d393          	srli	t2,a3,0x10
   138d8:	ce1e                	sw	t2,28(sp)
   138da:	0138dc13          	srli	s8,a7,0x13
   138de:	0086d393          	srli	t2,a3,0x8
   138e2:	00d81693          	slli	a3,a6,0xd
   138e6:	0135c5b3          	xor	a1,a1,s3
   138ea:	0186ec33          	or	s8,a3,s8
   138ee:	00d89993          	slli	s3,a7,0xd
   138f2:	01385693          	srli	a3,a6,0x13
   138f6:	00d9e9b3          	or	s3,s3,a3
   138fa:	00481a93          	slli	s5,a6,0x4
   138fe:	01c8d693          	srli	a3,a7,0x1c
   13902:	00daeab3          	or	s5,s5,a3
   13906:	01c85c93          	srli	s9,a6,0x1c
   1390a:	00489693          	slli	a3,a7,0x4
   1390e:	d01e                	sw	t2,32(sp)
   13910:	0196ecb3          	or	s9,a3,s9
   13914:	003e9393          	slli	t2,t4,0x3
   13918:	01d7d693          	srli	a3,a5,0x1d
   1391c:	0076e3b3          	or	t2,a3,t2
   13920:	fff2c513          	not	a0,t0
   13924:	00379693          	slli	a3,a5,0x3
   13928:	fff64e13          	not	t3,a2
   1392c:	d41e                	sw	t2,40(sp)
   1392e:	01ded393          	srli	t2,t4,0x1d
   13932:	00d3e3b3          	or	t2,t2,a3
   13936:	8d71                	and	a0,a0,a2
   13938:	012e7e33          	and	t3,t3,s2
   1393c:	01454533          	xor	a0,a0,s4
   13940:	005e4e33          	xor	t3,t3,t0
   13944:	d21e                	sw	t2,36(sp)
   13946:	019e9d13          	slli	s10,t4,0x19
   1394a:	0077d393          	srli	t2,a5,0x7
   1394e:	00ae4e33          	xor	t3,t3,a0
   13952:	00b34333          	xor	t1,t1,a1
   13956:	fff54513          	not	a0,a0
   1395a:	fff5c593          	not	a1,a1
   1395e:	01979b93          	slli	s7,a5,0x19
   13962:	01a3ed33          	or	s10,t2,s10
   13966:	007ed393          	srli	t2,t4,0x7
   1396a:	0173ebb3          	or	s7,t2,s7
   1396e:	00155713          	srli	a4,a0,0x1
   13972:	01f59393          	slli	t2,a1,0x1f
   13976:	0015d293          	srli	t0,a1,0x1
   1397a:	00e3e733          	or	a4,t2,a4
   1397e:	01f51393          	slli	t2,a0,0x1f
   13982:	0053e2b3          	or	t0,t2,t0
   13986:	00655b13          	srli	s6,a0,0x6
   1398a:	01a59393          	slli	t2,a1,0x1a
   1398e:	0065d693          	srli	a3,a1,0x6
   13992:	0163eb33          	or	s6,t2,s6
   13996:	01a51393          	slli	t2,a0,0x1a
   1399a:	00d3e3b3          	or	t2,t2,a3
   1399e:	d61e                	sw	t2,44(sp)
   139a0:	00ae5a13          	srli	s4,t3,0xa
   139a4:	01631393          	slli	t2,t1,0x16
   139a8:	0143ea33          	or	s4,t2,s4
   139ac:	00a35693          	srli	a3,t1,0xa
   139b0:	016e1393          	slli	t2,t3,0x16
   139b4:	00d3e3b3          	or	t2,t2,a3
   139b8:	d81e                	sw	t2,48(sp)
   139ba:	011e5693          	srli	a3,t3,0x11
   139be:	00f31393          	slli	t2,t1,0xf
   139c2:	00d3e3b3          	or	t2,t2,a3
   139c6:	01135413          	srli	s0,t1,0x11
   139ca:	00fe1693          	slli	a3,t3,0xf
   139ce:	8c55                	or	s0,s0,a3
   139d0:	007fd913          	srli	s2,t6,0x7
   139d4:	019f1693          	slli	a3,t5,0x19
   139d8:	0126e933          	or	s2,a3,s2
   139dc:	017f1d93          	slli	s11,t5,0x17
   139e0:	019f9693          	slli	a3,t6,0x19
   139e4:	007f5493          	srli	s1,t5,0x7
   139e8:	009fd613          	srli	a2,t6,0x9
   139ec:	01b66633          	or	a2,a2,s11
   139f0:	8cd5                	or	s1,s1,a3
   139f2:	017f9d93          	slli	s11,t6,0x17
   139f6:	009f5693          	srli	a3,t5,0x9
   139fa:	01b6e6b3          	or	a3,a3,s11
   139fe:	da36                	sw	a3,52(sp)
   13a00:	4da2                	lw	s11,8(sp)
   13a02:	4692                	lw	a3,4(sp)
   13a04:	0199ccb3          	xor	s9,s3,s9
   13a08:	015c4c33          	xor	s8,s8,s5
   13a0c:	00dd81a3          	sb	a3,3(s11)
   13a10:	4682                	lw	a3,0(sp)
   13a12:	007a43b3          	xor	t2,s4,t2
   13a16:	8cb1                	xor	s1,s1,a2
   13a18:	00dd83a3          	sb	a3,7(s11)
   13a1c:	46b2                	lw	a3,12(sp)
   13a1e:	011c4633          	xor	a2,s8,a7
   13a22:	008d8a93          	addi	s5,s11,8
   13a26:	00dd8023          	sb	a3,0(s11)
   13a2a:	46c2                	lw	a3,16(sp)
   13a2c:	5992                	lw	s3,36(sp)
   13a2e:	c032                	sw	a2,0(sp)
   13a30:	00dd80a3          	sb	a3,1(s11)
   13a34:	46d2                	lw	a3,20(sp)
   13a36:	0179cbb3          	xor	s7,s3,s7
   13a3a:	010cc633          	xor	a2,s9,a6
   13a3e:	00dd8123          	sb	a3,2(s11)
   13a42:	46e2                	lw	a3,24(sp)
   13a44:	01674733          	xor	a4,a4,s6
   13a48:	c232                	sw	a2,4(sp)
   13a4a:	00dd8223          	sb	a3,4(s11)
   13a4e:	46f2                	lw	a3,28(sp)
   13a50:	c456                	sw	s5,8(sp)
   13a52:	8f29                	xor	a4,a4,a0
   13a54:	00dd82a3          	sb	a3,5(s11)
   13a58:	5682                	lw	a3,32(sp)
   13a5a:	01c3c9b3          	xor	s3,t2,t3
   13a5e:	00dd8323          	sb	a3,6(s11)
   13a62:	56a2                	lw	a3,40(sp)
   13a64:	01a6cd33          	xor	s10,a3,s10
   13a68:	56b2                	lw	a3,44(sp)
   13a6a:	00d2c2b3          	xor	t0,t0,a3
   13a6e:	56c2                	lw	a3,48(sp)
   13a70:	00b2c5b3          	xor	a1,t0,a1
   13a74:	01e4c2b3          	xor	t0,s1,t5
   13a78:	0086ca33          	xor	s4,a3,s0
   13a7c:	56d2                	lw	a3,52(sp)
   13a7e:	00fbc433          	xor	s0,s7,a5
   13a82:	57e2                	lw	a5,56(sp)
   13a84:	00d946b3          	xor	a3,s2,a3
   13a88:	006a4633          	xor	a2,s4,t1
   13a8c:	01dd4933          	xor	s2,s10,t4
   13a90:	01f6cdb3          	xor	s11,a3,t6
   13a94:	80fa9063          	bne	s5,a5,12a94 <crypto_hash+0x28b4>
   13a98:	4492                	lw	s1,4(sp)
   13a9a:	4802                	lw	a6,0(sp)
   13a9c:	5472                	lw	s0,60(sp)
   13a9e:	0184d513          	srli	a0,s1,0x18
   13aa2:	0104d593          	srli	a1,s1,0x10
   13aa6:	0084d613          	srli	a2,s1,0x8
   13aaa:	01885693          	srli	a3,a6,0x18
   13aae:	01085713          	srli	a4,a6,0x10
   13ab2:	00885793          	srli	a5,a6,0x8
   13ab6:	00a40c23          	sb	a0,24(s0)
   13aba:	00b40ca3          	sb	a1,25(s0)
   13abe:	00c40d23          	sb	a2,26(s0)
   13ac2:	00940da3          	sb	s1,27(s0)
   13ac6:	00d40e23          	sb	a3,28(s0)
   13aca:	00e40ea3          	sb	a4,29(s0)
   13ace:	00f40f23          	sb	a5,30(s0)
   13ad2:	01040fa3          	sb	a6,31(s0)
   13ad6:	5436                	lw	s0,108(sp)
   13ad8:	54a6                	lw	s1,104(sp)
   13ada:	5916                	lw	s2,100(sp)
   13adc:	5986                	lw	s3,96(sp)
   13ade:	4a76                	lw	s4,92(sp)
   13ae0:	4ae6                	lw	s5,88(sp)
   13ae2:	4b56                	lw	s6,84(sp)
   13ae4:	4bc6                	lw	s7,80(sp)
   13ae6:	4c36                	lw	s8,76(sp)
   13ae8:	4ca6                	lw	s9,72(sp)
   13aea:	4d16                	lw	s10,68(sp)
   13aec:	4d86                	lw	s11,64(sp)
   13aee:	4501                	li	a0,0
   13af0:	6165                	addi	sp,sp,112
   13af2:	8082                	ret
   13af4:	44fd                	li	s1,31
   13af6:	8c91                	sub	s1,s1,a2
   13af8:	04000f93          	li	t6,64
   13afc:	009fdfb3          	srl	t6,t6,s1
   13b00:	08000493          	li	s1,128
   13b04:	00c49633          	sll	a2,s1,a2
   13b08:	8abfd06f          	j	113b2 <crypto_hash+0x11d2>
   13b0c:	4381                	li	t2,0
   13b0e:	4281                	li	t0,0
   13b10:	885fd06f          	j	11394 <crypto_hash+0x11b4>
   13b14:	479d                	li	a5,7
   13b16:	00c7f463          	bgeu	a5,a2,13b1e <crypto_hash+0x393e>
   13b1a:	eeefc06f          	j	10208 <crypto_hash+0x28>
   13b1e:	f94e27b7          	lui	a5,0xf94e2
   13b22:	863e                	mv	a2,a5
   13b24:	5388b4b7          	lui	s1,0x5388b
   13b28:	2c160613          	addi	a2,a2,705
   13b2c:	83b1a5b7          	lui	a1,0x83b1a
   13b30:	c432                	sw	a2,8(sp)
   13b32:	06648613          	addi	a2,s1,102 # 5388b066 <__BSS_END__+0x5386b47a>
   13b36:	d3258e37          	lui	t3,0xd3258
   13b3a:	aab8c437          	lui	s0,0xaab8c
   13b3e:	9a0ecc37          	lui	s8,0x9a0ec
   13b42:	29c46d37          	lui	s10,0x29c46
   13b46:	41d8ddb7          	lui	s11,0x41d8d
   13b4a:	a3134337          	lui	t1,0xa3134
   13b4e:	883528b7          	lui	a7,0x88352
   13b52:	93add537          	lui	a0,0x93add
   13b56:	f13e4eb7          	lui	t4,0xf13e4
   13b5a:	2c5206b7          	lui	a3,0x2c520
   13b5e:	0c402737          	lui	a4,0xc402
   13b62:	5ceccab7          	lui	s5,0x5cecc
   13b66:	77caea37          	lui	s4,0x77cae
   13b6a:	dfdba937          	lui	s2,0xdfdba
   13b6e:	a07b49b7          	lui	s3,0xa07b4
   13b72:	c0ae0f37          	lui	t5,0xc0ae0
   13b76:	738ec7b7          	lui	a5,0x738ec
   13b7a:	c032                	sw	a2,0(sp)
   13b7c:	dfe58613          	addi	a2,a1,-514 # 83b19dfe <__BSS_END__+0x83afa212>
   13b80:	54a2                	lw	s1,40(sp)
   13b82:	8e4e0e13          	addi	t3,t3,-1820 # d32578e4 <__BSS_END__+0xd3237cf8>
   13b86:	74c40413          	addi	s0,s0,1868 # aab8c74c <__BSS_END__+0xaab6cb60>
   13b8a:	677c0c13          	addi	s8,s8,1655 # 9a0ec677 <__BSS_END__+0x9a0cca8b>
   13b8e:	833d0d13          	addi	s10,s10,-1997 # 29c45833 <__BSS_END__+0x29c25c47>
   13b92:	effd8d93          	addi	s11,s11,-257 # 41d8ceff <__BSS_END__+0x41d6d313>
   13b96:	c232                	sw	a2,4(sp)
   13b98:	50530313          	addi	t1,t1,1285 # a3134505 <__BSS_END__+0xa3114919>
   13b9c:	81088893          	addi	a7,a7,-2032 # 88351810 <__BSS_END__+0x88331c24>
   13ba0:	fc350513          	addi	a0,a0,-61 # 93adcfc3 <__BSS_END__+0x93abd3d7>
   13ba4:	6c6e8e93          	addi	t4,t4,1734 # f13e46c6 <__BSS_END__+0xf13c4ada>
   13ba8:	06e1                	addi	a3,a3,24 # 2c520018 <__BSS_END__+0x2c50042c>
   13baa:	02170713          	addi	a4,a4,33 # c402021 <__BSS_END__+0xc3e2435>
   13bae:	afaa8a93          	addi	s5,s5,-1286 # 5cecbafa <__BSS_END__+0x5ceabf0e>
   13bb2:	7efa0a13          	addi	s4,s4,2031 # 77cae7ef <__BSS_END__+0x77c8ec03>
   13bb6:	52190913          	addi	s2,s2,1313 # dfdba521 <__BSS_END__+0xdfd9a935>
   13bba:	33698993          	addi	s3,s3,822 # a07b4336 <__BSS_END__+0xa079474a>
   13bbe:	fa7f0f13          	addi	t5,t5,-89 # c0adffa7 <__BSS_END__+0xc0ac03bb>
   13bc2:	38a78793          	addi	a5,a5,906 # 738ec38a <__BSS_END__+0x738cc79e>
   13bc6:	f64fd06f          	j	1132a <crypto_hash+0x114a>

00013bca <__fp_lock>:
   13bca:	4501                	li	a0,0
   13bcc:	8082                	ret

00013bce <stdio_exit_handler>:
   13bce:	0001f637          	lui	a2,0x1f
   13bd2:	65dd                	lui	a1,0x17
   13bd4:	0001f537          	lui	a0,0x1f
   13bd8:	1a060613          	addi	a2,a2,416 # 1f1a0 <__sglue>
   13bdc:	98c58593          	addi	a1,a1,-1652 # 1698c <_fclose_r>
   13be0:	1b050513          	addi	a0,a0,432 # 1f1b0 <_impure_data>
   13be4:	a485                	j	13e44 <_fwalk_sglue>

00013be6 <cleanup_stdio>:
   13be6:	414c                	lw	a1,4(a0)
   13be8:	1141                	addi	sp,sp,-16
   13bea:	c422                	sw	s0,8(sp)
   13bec:	c606                	sw	ra,12(sp)
   13bee:	f5c18793          	addi	a5,gp,-164 # 1f8fc <__sf>
   13bf2:	842a                	mv	s0,a0
   13bf4:	00f58463          	beq	a1,a5,13bfc <cleanup_stdio+0x16>
   13bf8:	595020ef          	jal	1698c <_fclose_r>
   13bfc:	440c                	lw	a1,8(s0)
   13bfe:	fc418793          	addi	a5,gp,-60 # 1f964 <__sf+0x68>
   13c02:	00f58563          	beq	a1,a5,13c0c <cleanup_stdio+0x26>
   13c06:	8522                	mv	a0,s0
   13c08:	585020ef          	jal	1698c <_fclose_r>
   13c0c:	444c                	lw	a1,12(s0)
   13c0e:	02c18793          	addi	a5,gp,44 # 1f9cc <__global_pointer$+0x2c>
   13c12:	00f58863          	beq	a1,a5,13c22 <cleanup_stdio+0x3c>
   13c16:	8522                	mv	a0,s0
   13c18:	4422                	lw	s0,8(sp)
   13c1a:	40b2                	lw	ra,12(sp)
   13c1c:	0141                	addi	sp,sp,16
   13c1e:	56f0206f          	j	1698c <_fclose_r>
   13c22:	40b2                	lw	ra,12(sp)
   13c24:	4422                	lw	s0,8(sp)
   13c26:	0141                	addi	sp,sp,16
   13c28:	8082                	ret

00013c2a <__fp_unlock>:
   13c2a:	4501                	li	a0,0
   13c2c:	8082                	ret

00013c2e <global_stdio_init.part.0>:
   13c2e:	1101                	addi	sp,sp,-32
   13c30:	67d1                	lui	a5,0x14
   13c32:	cc22                	sw	s0,24(sp)
   13c34:	bce78793          	addi	a5,a5,-1074 # 13bce <stdio_exit_handler>
   13c38:	f5c18413          	addi	s0,gp,-164 # 1f8fc <__sf>
   13c3c:	ce06                	sw	ra,28(sp)
   13c3e:	ca26                	sw	s1,20(sp)
   13c40:	c84a                	sw	s2,16(sp)
   13c42:	c64e                	sw	s3,12(sp)
   13c44:	c452                	sw	s4,8(sp)
   13c46:	f2f1a023          	sw	a5,-224(gp) # 1f8c0 <__stdio_exit_handler>
   13c4a:	4621                	li	a2,8
   13c4c:	4791                	li	a5,4
   13c4e:	4581                	li	a1,0
   13c50:	fb818513          	addi	a0,gp,-72 # 1f958 <__sf+0x5c>
   13c54:	c45c                	sw	a5,12(s0)
   13c56:	00042023          	sw	zero,0(s0)
   13c5a:	00042223          	sw	zero,4(s0)
   13c5e:	00042423          	sw	zero,8(s0)
   13c62:	06042223          	sw	zero,100(s0)
   13c66:	00042823          	sw	zero,16(s0)
   13c6a:	00042a23          	sw	zero,20(s0)
   13c6e:	00042c23          	sw	zero,24(s0)
   13c72:	2dbd                	jal	142f0 <memset>
   13c74:	67c1                	lui	a5,0x10
   13c76:	6a51                	lui	s4,0x14
   13c78:	69d1                	lui	s3,0x14
   13c7a:	6951                	lui	s2,0x14
   13c7c:	64d1                	lui	s1,0x14
   13c7e:	040a0a13          	addi	s4,s4,64 # 14040 <__sread>
   13c82:	07a98993          	addi	s3,s3,122 # 1407a <__swrite>
   13c86:	0ca90913          	addi	s2,s2,202 # 140ca <__sseek>
   13c8a:	11248493          	addi	s1,s1,274 # 14112 <__sclose>
   13c8e:	07a5                	addi	a5,a5,9 # 10009 <exit-0x8b>
   13c90:	4621                	li	a2,8
   13c92:	4581                	li	a1,0
   13c94:	02018513          	addi	a0,gp,32 # 1f9c0 <__global_pointer$+0x20>
   13c98:	03442023          	sw	s4,32(s0)
   13c9c:	03342223          	sw	s3,36(s0)
   13ca0:	03242423          	sw	s2,40(s0)
   13ca4:	d444                	sw	s1,44(s0)
   13ca6:	d87c                	sw	a5,116(s0)
   13ca8:	cc40                	sw	s0,28(s0)
   13caa:	06042423          	sw	zero,104(s0)
   13cae:	06042623          	sw	zero,108(s0)
   13cb2:	06042823          	sw	zero,112(s0)
   13cb6:	0c042623          	sw	zero,204(s0)
   13cba:	06042c23          	sw	zero,120(s0)
   13cbe:	06042e23          	sw	zero,124(s0)
   13cc2:	08042023          	sw	zero,128(s0)
   13cc6:	252d                	jal	142f0 <memset>
   13cc8:	000207b7          	lui	a5,0x20
   13ccc:	07c9                	addi	a5,a5,18 # 20012 <__BSS_END__+0x426>
   13cce:	fc418713          	addi	a4,gp,-60 # 1f964 <__sf+0x68>
   13cd2:	4621                	li	a2,8
   13cd4:	4581                	li	a1,0
   13cd6:	08818513          	addi	a0,gp,136 # 1fa28 <__global_pointer$+0x88>
   13cda:	09442423          	sw	s4,136(s0)
   13cde:	09342623          	sw	s3,140(s0)
   13ce2:	09242823          	sw	s2,144(s0)
   13ce6:	08942a23          	sw	s1,148(s0)
   13cea:	0cf42e23          	sw	a5,220(s0)
   13cee:	08e42223          	sw	a4,132(s0)
   13cf2:	0c042823          	sw	zero,208(s0)
   13cf6:	0c042a23          	sw	zero,212(s0)
   13cfa:	0c042c23          	sw	zero,216(s0)
   13cfe:	12042a23          	sw	zero,308(s0)
   13d02:	0e042023          	sw	zero,224(s0)
   13d06:	0e042223          	sw	zero,228(s0)
   13d0a:	0e042423          	sw	zero,232(s0)
   13d0e:	23cd                	jal	142f0 <memset>
   13d10:	02c18793          	addi	a5,gp,44 # 1f9cc <__global_pointer$+0x2c>
   13d14:	0f442823          	sw	s4,240(s0)
   13d18:	0f342a23          	sw	s3,244(s0)
   13d1c:	0f242c23          	sw	s2,248(s0)
   13d20:	0e942e23          	sw	s1,252(s0)
   13d24:	40f2                	lw	ra,28(sp)
   13d26:	0ef42623          	sw	a5,236(s0)
   13d2a:	4462                	lw	s0,24(sp)
   13d2c:	44d2                	lw	s1,20(sp)
   13d2e:	4942                	lw	s2,16(sp)
   13d30:	49b2                	lw	s3,12(sp)
   13d32:	4a22                	lw	s4,8(sp)
   13d34:	6105                	addi	sp,sp,32
   13d36:	8082                	ret

00013d38 <__sfp>:
   13d38:	f201a783          	lw	a5,-224(gp) # 1f8c0 <__stdio_exit_handler>
   13d3c:	1101                	addi	sp,sp,-32
   13d3e:	c64e                	sw	s3,12(sp)
   13d40:	ce06                	sw	ra,28(sp)
   13d42:	cc22                	sw	s0,24(sp)
   13d44:	ca26                	sw	s1,20(sp)
   13d46:	c84a                	sw	s2,16(sp)
   13d48:	89aa                	mv	s3,a0
   13d4a:	c7d5                	beqz	a5,13df6 <__sfp+0xbe>
   13d4c:	0001f937          	lui	s2,0x1f
   13d50:	1a090913          	addi	s2,s2,416 # 1f1a0 <__sglue>
   13d54:	54fd                	li	s1,-1
   13d56:	00492783          	lw	a5,4(s2)
   13d5a:	00892403          	lw	s0,8(s2)
   13d5e:	17fd                	addi	a5,a5,-1
   13d60:	0007d763          	bgez	a5,13d6e <__sfp+0x36>
   13d64:	a8b9                	j	13dc2 <__sfp+0x8a>
   13d66:	06840413          	addi	s0,s0,104
   13d6a:	04978c63          	beq	a5,s1,13dc2 <__sfp+0x8a>
   13d6e:	00c41703          	lh	a4,12(s0)
   13d72:	17fd                	addi	a5,a5,-1
   13d74:	fb6d                	bnez	a4,13d66 <__sfp+0x2e>
   13d76:	77c1                	lui	a5,0xffff0
   13d78:	0785                	addi	a5,a5,1 # ffff0001 <__BSS_END__+0xfffd0415>
   13d7a:	c45c                	sw	a5,12(s0)
   13d7c:	06042223          	sw	zero,100(s0)
   13d80:	00042023          	sw	zero,0(s0)
   13d84:	00042423          	sw	zero,8(s0)
   13d88:	00042223          	sw	zero,4(s0)
   13d8c:	00042823          	sw	zero,16(s0)
   13d90:	00042a23          	sw	zero,20(s0)
   13d94:	00042c23          	sw	zero,24(s0)
   13d98:	4621                	li	a2,8
   13d9a:	4581                	li	a1,0
   13d9c:	05c40513          	addi	a0,s0,92
   13da0:	2b81                	jal	142f0 <memset>
   13da2:	02042823          	sw	zero,48(s0)
   13da6:	02042a23          	sw	zero,52(s0)
   13daa:	04042223          	sw	zero,68(s0)
   13dae:	04042423          	sw	zero,72(s0)
   13db2:	40f2                	lw	ra,28(sp)
   13db4:	8522                	mv	a0,s0
   13db6:	4462                	lw	s0,24(sp)
   13db8:	44d2                	lw	s1,20(sp)
   13dba:	4942                	lw	s2,16(sp)
   13dbc:	49b2                	lw	s3,12(sp)
   13dbe:	6105                	addi	sp,sp,32
   13dc0:	8082                	ret
   13dc2:	00092403          	lw	s0,0(s2)
   13dc6:	c019                	beqz	s0,13dcc <__sfp+0x94>
   13dc8:	8922                	mv	s2,s0
   13dca:	b771                	j	13d56 <__sfp+0x1e>
   13dcc:	1ac00593          	li	a1,428
   13dd0:	854e                	mv	a0,s3
   13dd2:	197000ef          	jal	14768 <_malloc_r>
   13dd6:	842a                	mv	s0,a0
   13dd8:	c10d                	beqz	a0,13dfa <__sfp+0xc2>
   13dda:	0531                	addi	a0,a0,12
   13ddc:	4791                	li	a5,4
   13dde:	00042023          	sw	zero,0(s0)
   13de2:	c05c                	sw	a5,4(s0)
   13de4:	c408                	sw	a0,8(s0)
   13de6:	1a000613          	li	a2,416
   13dea:	4581                	li	a1,0
   13dec:	2311                	jal	142f0 <memset>
   13dee:	00892023          	sw	s0,0(s2)
   13df2:	8922                	mv	s2,s0
   13df4:	b78d                	j	13d56 <__sfp+0x1e>
   13df6:	3d25                	jal	13c2e <global_stdio_init.part.0>
   13df8:	bf91                	j	13d4c <__sfp+0x14>
   13dfa:	00092023          	sw	zero,0(s2)
   13dfe:	47b1                	li	a5,12
   13e00:	00f9a023          	sw	a5,0(s3)
   13e04:	b77d                	j	13db2 <__sfp+0x7a>

00013e06 <__sinit>:
   13e06:	595c                	lw	a5,52(a0)
   13e08:	c391                	beqz	a5,13e0c <__sinit+0x6>
   13e0a:	8082                	ret
   13e0c:	f201a703          	lw	a4,-224(gp) # 1f8c0 <__stdio_exit_handler>
   13e10:	67d1                	lui	a5,0x14
   13e12:	be678793          	addi	a5,a5,-1050 # 13be6 <cleanup_stdio>
   13e16:	d95c                	sw	a5,52(a0)
   13e18:	fb6d                	bnez	a4,13e0a <__sinit+0x4>
   13e1a:	bd11                	j	13c2e <global_stdio_init.part.0>

00013e1c <__sfp_lock_acquire>:
   13e1c:	8082                	ret

00013e1e <__sfp_lock_release>:
   13e1e:	8082                	ret

00013e20 <__fp_lock_all>:
   13e20:	0001f637          	lui	a2,0x1f
   13e24:	65d1                	lui	a1,0x14
   13e26:	1a060613          	addi	a2,a2,416 # 1f1a0 <__sglue>
   13e2a:	bca58593          	addi	a1,a1,-1078 # 13bca <__fp_lock>
   13e2e:	4501                	li	a0,0
   13e30:	a811                	j	13e44 <_fwalk_sglue>

00013e32 <__fp_unlock_all>:
   13e32:	0001f637          	lui	a2,0x1f
   13e36:	65d1                	lui	a1,0x14
   13e38:	1a060613          	addi	a2,a2,416 # 1f1a0 <__sglue>
   13e3c:	c2a58593          	addi	a1,a1,-982 # 13c2a <__fp_unlock>
   13e40:	4501                	li	a0,0
   13e42:	a009                	j	13e44 <_fwalk_sglue>

00013e44 <_fwalk_sglue>:
   13e44:	7179                	addi	sp,sp,-48
   13e46:	d04a                	sw	s2,32(sp)
   13e48:	ce4e                	sw	s3,28(sp)
   13e4a:	cc52                	sw	s4,24(sp)
   13e4c:	ca56                	sw	s5,20(sp)
   13e4e:	c85a                	sw	s6,16(sp)
   13e50:	c65e                	sw	s7,12(sp)
   13e52:	d606                	sw	ra,44(sp)
   13e54:	d422                	sw	s0,40(sp)
   13e56:	d226                	sw	s1,36(sp)
   13e58:	8b2a                	mv	s6,a0
   13e5a:	8bae                	mv	s7,a1
   13e5c:	8ab2                	mv	s5,a2
   13e5e:	4a01                	li	s4,0
   13e60:	4985                	li	s3,1
   13e62:	597d                	li	s2,-1
   13e64:	004aa483          	lw	s1,4(s5)
   13e68:	008aa403          	lw	s0,8(s5)
   13e6c:	14fd                	addi	s1,s1,-1
   13e6e:	0204c463          	bltz	s1,13e96 <_fwalk_sglue+0x52>
   13e72:	00c45783          	lhu	a5,12(s0)
   13e76:	00f9fb63          	bgeu	s3,a5,13e8c <_fwalk_sglue+0x48>
   13e7a:	00e41783          	lh	a5,14(s0)
   13e7e:	85a2                	mv	a1,s0
   13e80:	855a                	mv	a0,s6
   13e82:	01278563          	beq	a5,s2,13e8c <_fwalk_sglue+0x48>
   13e86:	9b82                	jalr	s7
   13e88:	00aa6a33          	or	s4,s4,a0
   13e8c:	14fd                	addi	s1,s1,-1
   13e8e:	06840413          	addi	s0,s0,104
   13e92:	ff2490e3          	bne	s1,s2,13e72 <_fwalk_sglue+0x2e>
   13e96:	000aaa83          	lw	s5,0(s5)
   13e9a:	fc0a95e3          	bnez	s5,13e64 <_fwalk_sglue+0x20>
   13e9e:	50b2                	lw	ra,44(sp)
   13ea0:	5422                	lw	s0,40(sp)
   13ea2:	5492                	lw	s1,36(sp)
   13ea4:	5902                	lw	s2,32(sp)
   13ea6:	49f2                	lw	s3,28(sp)
   13ea8:	4ad2                	lw	s5,20(sp)
   13eaa:	4b42                	lw	s6,16(sp)
   13eac:	4bb2                	lw	s7,12(sp)
   13eae:	8552                	mv	a0,s4
   13eb0:	4a62                	lw	s4,24(sp)
   13eb2:	6145                	addi	sp,sp,48
   13eb4:	8082                	ret

00013eb6 <_fwrite_r>:
   13eb6:	715d                	addi	sp,sp,-80
   13eb8:	de4e                	sw	s3,60(sp)
   13eba:	02c689b3          	mul	s3,a3,a2
   13ebe:	087c                	addi	a5,sp,28
   13ec0:	d23e                	sw	a5,36(sp)
   13ec2:	4785                	li	a5,1
   13ec4:	c4a2                	sw	s0,72(sp)
   13ec6:	c2a6                	sw	s1,68(sp)
   13ec8:	c0ca                	sw	s2,64(sp)
   13eca:	ce2e                	sw	a1,28(sp)
   13ecc:	c686                	sw	ra,76(sp)
   13ece:	d43e                	sw	a5,40(sp)
   13ed0:	d04e                	sw	s3,32(sp)
   13ed2:	d64e                	sw	s3,44(sp)
   13ed4:	8932                	mv	s2,a2
   13ed6:	84b6                	mv	s1,a3
   13ed8:	842a                	mv	s0,a0
   13eda:	85ba                	mv	a1,a4
   13edc:	c119                	beqz	a0,13ee2 <_fwrite_r+0x2c>
   13ede:	595c                	lw	a5,52(a0)
   13ee0:	cfb9                	beqz	a5,13f3e <_fwrite_r+0x88>
   13ee2:	00c59703          	lh	a4,12(a1)
   13ee6:	51fc                	lw	a5,100(a1)
   13ee8:	01271693          	slli	a3,a4,0x12
   13eec:	0006ca63          	bltz	a3,13f00 <_fwrite_r+0x4a>
   13ef0:	76f9                	lui	a3,0xffffe
   13ef2:	16fd                	addi	a3,a3,-1 # ffffdfff <__BSS_END__+0xfffde413>
   13ef4:	6609                	lui	a2,0x2
   13ef6:	8f51                	or	a4,a4,a2
   13ef8:	8ff5                	and	a5,a5,a3
   13efa:	00e59623          	sh	a4,12(a1)
   13efe:	d1fc                	sw	a5,100(a1)
   13f00:	01279713          	slli	a4,a5,0x12
   13f04:	4501                	li	a0,0
   13f06:	00075963          	bgez	a4,13f18 <_fwrite_r+0x62>
   13f0a:	40b6                	lw	ra,76(sp)
   13f0c:	4426                	lw	s0,72(sp)
   13f0e:	4496                	lw	s1,68(sp)
   13f10:	4906                	lw	s2,64(sp)
   13f12:	59f2                	lw	s3,60(sp)
   13f14:	6161                	addi	sp,sp,80
   13f16:	8082                	ret
   13f18:	1050                	addi	a2,sp,36
   13f1a:	8522                	mv	a0,s0
   13f1c:	53d020ef          	jal	16c58 <__sfvwrite_r>
   13f20:	87aa                	mv	a5,a0
   13f22:	8526                	mv	a0,s1
   13f24:	d3fd                	beqz	a5,13f0a <_fwrite_r+0x54>
   13f26:	57b2                	lw	a5,44(sp)
   13f28:	40b6                	lw	ra,76(sp)
   13f2a:	4426                	lw	s0,72(sp)
   13f2c:	40f989b3          	sub	s3,s3,a5
   13f30:	0329d533          	divu	a0,s3,s2
   13f34:	4496                	lw	s1,68(sp)
   13f36:	4906                	lw	s2,64(sp)
   13f38:	59f2                	lw	s3,60(sp)
   13f3a:	6161                	addi	sp,sp,80
   13f3c:	8082                	ret
   13f3e:	c63a                	sw	a4,12(sp)
   13f40:	35d9                	jal	13e06 <__sinit>
   13f42:	45b2                	lw	a1,12(sp)
   13f44:	bf79                	j	13ee2 <_fwrite_r+0x2c>

00013f46 <fwrite>:
   13f46:	715d                	addi	sp,sp,-80
   13f48:	c0ca                	sw	s2,64(sp)
   13f4a:	02c58933          	mul	s2,a1,a2
   13f4e:	de4e                	sw	s3,60(sp)
   13f50:	f141a983          	lw	s3,-236(gp) # 1f8b4 <_impure_ptr>
   13f54:	087c                	addi	a5,sp,28
   13f56:	d23e                	sw	a5,36(sp)
   13f58:	4785                	li	a5,1
   13f5a:	c4a2                	sw	s0,72(sp)
   13f5c:	c2a6                	sw	s1,68(sp)
   13f5e:	c686                	sw	ra,76(sp)
   13f60:	ce2a                	sw	a0,28(sp)
   13f62:	d43e                	sw	a5,40(sp)
   13f64:	d04a                	sw	s2,32(sp)
   13f66:	d64a                	sw	s2,44(sp)
   13f68:	84ae                	mv	s1,a1
   13f6a:	8432                	mv	s0,a2
   13f6c:	85b6                	mv	a1,a3
   13f6e:	00098563          	beqz	s3,13f78 <fwrite+0x32>
   13f72:	0349a783          	lw	a5,52(s3)
   13f76:	cfb9                	beqz	a5,13fd4 <fwrite+0x8e>
   13f78:	00c59703          	lh	a4,12(a1)
   13f7c:	51fc                	lw	a5,100(a1)
   13f7e:	01271693          	slli	a3,a4,0x12
   13f82:	0006ca63          	bltz	a3,13f96 <fwrite+0x50>
   13f86:	76f9                	lui	a3,0xffffe
   13f88:	16fd                	addi	a3,a3,-1 # ffffdfff <__BSS_END__+0xfffde413>
   13f8a:	6609                	lui	a2,0x2
   13f8c:	8f51                	or	a4,a4,a2
   13f8e:	8ff5                	and	a5,a5,a3
   13f90:	00e59623          	sh	a4,12(a1)
   13f94:	d1fc                	sw	a5,100(a1)
   13f96:	01279713          	slli	a4,a5,0x12
   13f9a:	4501                	li	a0,0
   13f9c:	00075963          	bgez	a4,13fae <fwrite+0x68>
   13fa0:	40b6                	lw	ra,76(sp)
   13fa2:	4426                	lw	s0,72(sp)
   13fa4:	4496                	lw	s1,68(sp)
   13fa6:	4906                	lw	s2,64(sp)
   13fa8:	59f2                	lw	s3,60(sp)
   13faa:	6161                	addi	sp,sp,80
   13fac:	8082                	ret
   13fae:	1050                	addi	a2,sp,36
   13fb0:	854e                	mv	a0,s3
   13fb2:	4a7020ef          	jal	16c58 <__sfvwrite_r>
   13fb6:	87aa                	mv	a5,a0
   13fb8:	8522                	mv	a0,s0
   13fba:	d3fd                	beqz	a5,13fa0 <fwrite+0x5a>
   13fbc:	57b2                	lw	a5,44(sp)
   13fbe:	40b6                	lw	ra,76(sp)
   13fc0:	4426                	lw	s0,72(sp)
   13fc2:	40f90933          	sub	s2,s2,a5
   13fc6:	02995533          	divu	a0,s2,s1
   13fca:	59f2                	lw	s3,60(sp)
   13fcc:	4496                	lw	s1,68(sp)
   13fce:	4906                	lw	s2,64(sp)
   13fd0:	6161                	addi	sp,sp,80
   13fd2:	8082                	ret
   13fd4:	854e                	mv	a0,s3
   13fd6:	c636                	sw	a3,12(sp)
   13fd8:	353d                	jal	13e06 <__sinit>
   13fda:	45b2                	lw	a1,12(sp)
   13fdc:	bf71                	j	13f78 <fwrite+0x32>

00013fde <_printf_r>:
   13fde:	7139                	addi	sp,sp,-64
   13fe0:	d432                	sw	a2,40(sp)
   13fe2:	d636                	sw	a3,44(sp)
   13fe4:	d83a                	sw	a4,48(sp)
   13fe6:	da3e                	sw	a5,52(sp)
   13fe8:	dc42                	sw	a6,56(sp)
   13fea:	de46                	sw	a7,60(sp)
   13fec:	862e                	mv	a2,a1
   13fee:	450c                	lw	a1,8(a0)
   13ff0:	1034                	addi	a3,sp,40
   13ff2:	ce06                	sw	ra,28(sp)
   13ff4:	c636                	sw	a3,12(sp)
   13ff6:	521000ef          	jal	14d16 <_vfprintf_r>
   13ffa:	40f2                	lw	ra,28(sp)
   13ffc:	6121                	addi	sp,sp,64
   13ffe:	8082                	ret

00014000 <printf>:
   14000:	f141a303          	lw	t1,-236(gp) # 1f8b4 <_impure_ptr>
   14004:	7139                	addi	sp,sp,-64
   14006:	d432                	sw	a2,40(sp)
   14008:	d636                	sw	a3,44(sp)
   1400a:	d22e                	sw	a1,36(sp)
   1400c:	d83a                	sw	a4,48(sp)
   1400e:	da3e                	sw	a5,52(sp)
   14010:	dc42                	sw	a6,56(sp)
   14012:	de46                	sw	a7,60(sp)
   14014:	00832583          	lw	a1,8(t1)
   14018:	1054                	addi	a3,sp,36
   1401a:	862a                	mv	a2,a0
   1401c:	851a                	mv	a0,t1
   1401e:	ce06                	sw	ra,28(sp)
   14020:	c636                	sw	a3,12(sp)
   14022:	4f5000ef          	jal	14d16 <_vfprintf_r>
   14026:	40f2                	lw	ra,28(sp)
   14028:	6121                	addi	sp,sp,64
   1402a:	8082                	ret

0001402c <_putchar_r>:
   1402c:	4510                	lw	a2,8(a0)
   1402e:	7730206f          	j	16fa0 <_putc_r>

00014032 <putchar>:
   14032:	f141a783          	lw	a5,-236(gp) # 1f8b4 <_impure_ptr>
   14036:	85aa                	mv	a1,a0
   14038:	4790                	lw	a2,8(a5)
   1403a:	853e                	mv	a0,a5
   1403c:	7650206f          	j	16fa0 <_putc_r>

00014040 <__sread>:
   14040:	1141                	addi	sp,sp,-16
   14042:	c422                	sw	s0,8(sp)
   14044:	842e                	mv	s0,a1
   14046:	00e59583          	lh	a1,14(a1)
   1404a:	c606                	sw	ra,12(sp)
   1404c:	2a6d                	jal	14206 <_read_r>
   1404e:	00054963          	bltz	a0,14060 <__sread+0x20>
   14052:	483c                	lw	a5,80(s0)
   14054:	40b2                	lw	ra,12(sp)
   14056:	97aa                	add	a5,a5,a0
   14058:	c83c                	sw	a5,80(s0)
   1405a:	4422                	lw	s0,8(sp)
   1405c:	0141                	addi	sp,sp,16
   1405e:	8082                	ret
   14060:	00c45783          	lhu	a5,12(s0)
   14064:	777d                	lui	a4,0xfffff
   14066:	177d                	addi	a4,a4,-1 # ffffefff <__BSS_END__+0xfffdf413>
   14068:	8ff9                	and	a5,a5,a4
   1406a:	40b2                	lw	ra,12(sp)
   1406c:	00f41623          	sh	a5,12(s0)
   14070:	4422                	lw	s0,8(sp)
   14072:	0141                	addi	sp,sp,16
   14074:	8082                	ret

00014076 <__seofread>:
   14076:	4501                	li	a0,0
   14078:	8082                	ret

0001407a <__swrite>:
   1407a:	00c59783          	lh	a5,12(a1)
   1407e:	1101                	addi	sp,sp,-32
   14080:	cc22                	sw	s0,24(sp)
   14082:	ca26                	sw	s1,20(sp)
   14084:	c84a                	sw	s2,16(sp)
   14086:	c64e                	sw	s3,12(sp)
   14088:	ce06                	sw	ra,28(sp)
   1408a:	1007f713          	andi	a4,a5,256
   1408e:	842e                	mv	s0,a1
   14090:	84aa                	mv	s1,a0
   14092:	8932                	mv	s2,a2
   14094:	89b6                	mv	s3,a3
   14096:	e315                	bnez	a4,140ba <__swrite+0x40>
   14098:	777d                	lui	a4,0xfffff
   1409a:	177d                	addi	a4,a4,-1 # ffffefff <__BSS_END__+0xfffdf413>
   1409c:	8ff9                	and	a5,a5,a4
   1409e:	00e41583          	lh	a1,14(s0)
   140a2:	00f41623          	sh	a5,12(s0)
   140a6:	4462                	lw	s0,24(sp)
   140a8:	40f2                	lw	ra,28(sp)
   140aa:	86ce                	mv	a3,s3
   140ac:	864a                	mv	a2,s2
   140ae:	49b2                	lw	s3,12(sp)
   140b0:	4942                	lw	s2,16(sp)
   140b2:	8526                	mv	a0,s1
   140b4:	44d2                	lw	s1,20(sp)
   140b6:	6105                	addi	sp,sp,32
   140b8:	a269                	j	14242 <_write_r>
   140ba:	00e59583          	lh	a1,14(a1)
   140be:	4689                	li	a3,2
   140c0:	4601                	li	a2,0
   140c2:	2221                	jal	141ca <_lseek_r>
   140c4:	00c41783          	lh	a5,12(s0)
   140c8:	bfc1                	j	14098 <__swrite+0x1e>

000140ca <__sseek>:
   140ca:	1141                	addi	sp,sp,-16
   140cc:	c422                	sw	s0,8(sp)
   140ce:	842e                	mv	s0,a1
   140d0:	00e59583          	lh	a1,14(a1)
   140d4:	c606                	sw	ra,12(sp)
   140d6:	28d5                	jal	141ca <_lseek_r>
   140d8:	57fd                	li	a5,-1
   140da:	00f50f63          	beq	a0,a5,140f8 <__sseek+0x2e>
   140de:	00c45783          	lhu	a5,12(s0)
   140e2:	6705                	lui	a4,0x1
   140e4:	40b2                	lw	ra,12(sp)
   140e6:	8fd9                	or	a5,a5,a4
   140e8:	07c2                	slli	a5,a5,0x10
   140ea:	87c1                	srai	a5,a5,0x10
   140ec:	c828                	sw	a0,80(s0)
   140ee:	00f41623          	sh	a5,12(s0)
   140f2:	4422                	lw	s0,8(sp)
   140f4:	0141                	addi	sp,sp,16
   140f6:	8082                	ret
   140f8:	00c45783          	lhu	a5,12(s0)
   140fc:	777d                	lui	a4,0xfffff
   140fe:	177d                	addi	a4,a4,-1 # ffffefff <__BSS_END__+0xfffdf413>
   14100:	8ff9                	and	a5,a5,a4
   14102:	07c2                	slli	a5,a5,0x10
   14104:	87c1                	srai	a5,a5,0x10
   14106:	40b2                	lw	ra,12(sp)
   14108:	00f41623          	sh	a5,12(s0)
   1410c:	4422                	lw	s0,8(sp)
   1410e:	0141                	addi	sp,sp,16
   14110:	8082                	ret

00014112 <__sclose>:
   14112:	00e59583          	lh	a1,14(a1)
   14116:	a009                	j	14118 <_close_r>

00014118 <_close_r>:
   14118:	1141                	addi	sp,sp,-16
   1411a:	c422                	sw	s0,8(sp)
   1411c:	c226                	sw	s1,4(sp)
   1411e:	842a                	mv	s0,a0
   14120:	852e                	mv	a0,a1
   14122:	c606                	sw	ra,12(sp)
   14124:	f201a223          	sw	zero,-220(gp) # 1f8c4 <errno>
   14128:	102070ef          	jal	1b22a <_close>
   1412c:	57fd                	li	a5,-1
   1412e:	00f50763          	beq	a0,a5,1413c <_close_r+0x24>
   14132:	40b2                	lw	ra,12(sp)
   14134:	4422                	lw	s0,8(sp)
   14136:	4492                	lw	s1,4(sp)
   14138:	0141                	addi	sp,sp,16
   1413a:	8082                	ret
   1413c:	f241a783          	lw	a5,-220(gp) # 1f8c4 <errno>
   14140:	dbed                	beqz	a5,14132 <_close_r+0x1a>
   14142:	40b2                	lw	ra,12(sp)
   14144:	c01c                	sw	a5,0(s0)
   14146:	4422                	lw	s0,8(sp)
   14148:	4492                	lw	s1,4(sp)
   1414a:	0141                	addi	sp,sp,16
   1414c:	8082                	ret

0001414e <_reclaim_reent>:
   1414e:	f141a783          	lw	a5,-236(gp) # 1f8b4 <_impure_ptr>
   14152:	06a78b63          	beq	a5,a0,141c8 <_reclaim_reent+0x7a>
   14156:	416c                	lw	a1,68(a0)
   14158:	1101                	addi	sp,sp,-32
   1415a:	ca26                	sw	s1,20(sp)
   1415c:	ce06                	sw	ra,28(sp)
   1415e:	cc22                	sw	s0,24(sp)
   14160:	84aa                	mv	s1,a0
   14162:	c59d                	beqz	a1,14190 <_reclaim_reent+0x42>
   14164:	c84a                	sw	s2,16(sp)
   14166:	c64e                	sw	s3,12(sp)
   14168:	4901                	li	s2,0
   1416a:	08000993          	li	s3,128
   1416e:	012587b3          	add	a5,a1,s2
   14172:	4380                	lw	s0,0(a5)
   14174:	c419                	beqz	s0,14182 <_reclaim_reent+0x34>
   14176:	85a2                	mv	a1,s0
   14178:	4000                	lw	s0,0(s0)
   1417a:	8526                	mv	a0,s1
   1417c:	26d1                	jal	14540 <_free_r>
   1417e:	fc65                	bnez	s0,14176 <_reclaim_reent+0x28>
   14180:	40ec                	lw	a1,68(s1)
   14182:	0911                	addi	s2,s2,4
   14184:	ff3915e3          	bne	s2,s3,1416e <_reclaim_reent+0x20>
   14188:	8526                	mv	a0,s1
   1418a:	2e5d                	jal	14540 <_free_r>
   1418c:	4942                	lw	s2,16(sp)
   1418e:	49b2                	lw	s3,12(sp)
   14190:	5c8c                	lw	a1,56(s1)
   14192:	c199                	beqz	a1,14198 <_reclaim_reent+0x4a>
   14194:	8526                	mv	a0,s1
   14196:	266d                	jal	14540 <_free_r>
   14198:	40a0                	lw	s0,64(s1)
   1419a:	c411                	beqz	s0,141a6 <_reclaim_reent+0x58>
   1419c:	85a2                	mv	a1,s0
   1419e:	4000                	lw	s0,0(s0)
   141a0:	8526                	mv	a0,s1
   141a2:	2e79                	jal	14540 <_free_r>
   141a4:	fc65                	bnez	s0,1419c <_reclaim_reent+0x4e>
   141a6:	44ec                	lw	a1,76(s1)
   141a8:	c199                	beqz	a1,141ae <_reclaim_reent+0x60>
   141aa:	8526                	mv	a0,s1
   141ac:	2e51                	jal	14540 <_free_r>
   141ae:	58dc                	lw	a5,52(s1)
   141b0:	c799                	beqz	a5,141be <_reclaim_reent+0x70>
   141b2:	4462                	lw	s0,24(sp)
   141b4:	40f2                	lw	ra,28(sp)
   141b6:	8526                	mv	a0,s1
   141b8:	44d2                	lw	s1,20(sp)
   141ba:	6105                	addi	sp,sp,32
   141bc:	8782                	jr	a5
   141be:	40f2                	lw	ra,28(sp)
   141c0:	4462                	lw	s0,24(sp)
   141c2:	44d2                	lw	s1,20(sp)
   141c4:	6105                	addi	sp,sp,32
   141c6:	8082                	ret
   141c8:	8082                	ret

000141ca <_lseek_r>:
   141ca:	1141                	addi	sp,sp,-16
   141cc:	872e                	mv	a4,a1
   141ce:	c422                	sw	s0,8(sp)
   141d0:	c226                	sw	s1,4(sp)
   141d2:	85b2                	mv	a1,a2
   141d4:	842a                	mv	s0,a0
   141d6:	8636                	mv	a2,a3
   141d8:	853a                	mv	a0,a4
   141da:	c606                	sw	ra,12(sp)
   141dc:	f201a223          	sw	zero,-220(gp) # 1f8c4 <errno>
   141e0:	10e070ef          	jal	1b2ee <_lseek>
   141e4:	57fd                	li	a5,-1
   141e6:	00f50763          	beq	a0,a5,141f4 <_lseek_r+0x2a>
   141ea:	40b2                	lw	ra,12(sp)
   141ec:	4422                	lw	s0,8(sp)
   141ee:	4492                	lw	s1,4(sp)
   141f0:	0141                	addi	sp,sp,16
   141f2:	8082                	ret
   141f4:	f241a783          	lw	a5,-220(gp) # 1f8c4 <errno>
   141f8:	dbed                	beqz	a5,141ea <_lseek_r+0x20>
   141fa:	40b2                	lw	ra,12(sp)
   141fc:	c01c                	sw	a5,0(s0)
   141fe:	4422                	lw	s0,8(sp)
   14200:	4492                	lw	s1,4(sp)
   14202:	0141                	addi	sp,sp,16
   14204:	8082                	ret

00014206 <_read_r>:
   14206:	1141                	addi	sp,sp,-16
   14208:	872e                	mv	a4,a1
   1420a:	c422                	sw	s0,8(sp)
   1420c:	c226                	sw	s1,4(sp)
   1420e:	85b2                	mv	a1,a2
   14210:	842a                	mv	s0,a0
   14212:	8636                	mv	a2,a3
   14214:	853a                	mv	a0,a4
   14216:	c606                	sw	ra,12(sp)
   14218:	f201a223          	sw	zero,-220(gp) # 1f8c4 <errno>
   1421c:	0fe070ef          	jal	1b31a <_read>
   14220:	57fd                	li	a5,-1
   14222:	00f50763          	beq	a0,a5,14230 <_read_r+0x2a>
   14226:	40b2                	lw	ra,12(sp)
   14228:	4422                	lw	s0,8(sp)
   1422a:	4492                	lw	s1,4(sp)
   1422c:	0141                	addi	sp,sp,16
   1422e:	8082                	ret
   14230:	f241a783          	lw	a5,-220(gp) # 1f8c4 <errno>
   14234:	dbed                	beqz	a5,14226 <_read_r+0x20>
   14236:	40b2                	lw	ra,12(sp)
   14238:	c01c                	sw	a5,0(s0)
   1423a:	4422                	lw	s0,8(sp)
   1423c:	4492                	lw	s1,4(sp)
   1423e:	0141                	addi	sp,sp,16
   14240:	8082                	ret

00014242 <_write_r>:
   14242:	1141                	addi	sp,sp,-16
   14244:	872e                	mv	a4,a1
   14246:	c422                	sw	s0,8(sp)
   14248:	c226                	sw	s1,4(sp)
   1424a:	85b2                	mv	a1,a2
   1424c:	842a                	mv	s0,a0
   1424e:	8636                	mv	a2,a3
   14250:	853a                	mv	a0,a4
   14252:	c606                	sw	ra,12(sp)
   14254:	f201a223          	sw	zero,-220(gp) # 1f8c4 <errno>
   14258:	142070ef          	jal	1b39a <_write>
   1425c:	57fd                	li	a5,-1
   1425e:	00f50763          	beq	a0,a5,1426c <_write_r+0x2a>
   14262:	40b2                	lw	ra,12(sp)
   14264:	4422                	lw	s0,8(sp)
   14266:	4492                	lw	s1,4(sp)
   14268:	0141                	addi	sp,sp,16
   1426a:	8082                	ret
   1426c:	f241a783          	lw	a5,-220(gp) # 1f8c4 <errno>
   14270:	dbed                	beqz	a5,14262 <_write_r+0x20>
   14272:	40b2                	lw	ra,12(sp)
   14274:	c01c                	sw	a5,0(s0)
   14276:	4422                	lw	s0,8(sp)
   14278:	4492                	lw	s1,4(sp)
   1427a:	0141                	addi	sp,sp,16
   1427c:	8082                	ret

0001427e <__libc_init_array>:
   1427e:	1141                	addi	sp,sp,-16
   14280:	c422                	sw	s0,8(sp)
   14282:	0001f7b7          	lui	a5,0x1f
   14286:	0001f437          	lui	s0,0x1f
   1428a:	c04a                	sw	s2,0(sp)
   1428c:	19478793          	addi	a5,a5,404 # 1f194 <__init_array_start>
   14290:	19440713          	addi	a4,s0,404 # 1f194 <__init_array_start>
   14294:	c606                	sw	ra,12(sp)
   14296:	c226                	sw	s1,4(sp)
   14298:	40e78933          	sub	s2,a5,a4
   1429c:	00e78d63          	beq	a5,a4,142b6 <__libc_init_array+0x38>
   142a0:	40295913          	srai	s2,s2,0x2
   142a4:	19440413          	addi	s0,s0,404
   142a8:	4481                	li	s1,0
   142aa:	401c                	lw	a5,0(s0)
   142ac:	0485                	addi	s1,s1,1
   142ae:	0411                	addi	s0,s0,4
   142b0:	9782                	jalr	a5
   142b2:	ff24ece3          	bltu	s1,s2,142aa <__libc_init_array+0x2c>
   142b6:	0001f437          	lui	s0,0x1f
   142ba:	0001f7b7          	lui	a5,0x1f
   142be:	19c78793          	addi	a5,a5,412 # 1f19c <__do_global_dtors_aux_fini_array_entry>
   142c2:	19440713          	addi	a4,s0,404 # 1f194 <__init_array_start>
   142c6:	40e78933          	sub	s2,a5,a4
   142ca:	40295913          	srai	s2,s2,0x2
   142ce:	00e78b63          	beq	a5,a4,142e4 <__libc_init_array+0x66>
   142d2:	19440413          	addi	s0,s0,404
   142d6:	4481                	li	s1,0
   142d8:	401c                	lw	a5,0(s0)
   142da:	0485                	addi	s1,s1,1
   142dc:	0411                	addi	s0,s0,4
   142de:	9782                	jalr	a5
   142e0:	ff24ece3          	bltu	s1,s2,142d8 <__libc_init_array+0x5a>
   142e4:	40b2                	lw	ra,12(sp)
   142e6:	4422                	lw	s0,8(sp)
   142e8:	4492                	lw	s1,4(sp)
   142ea:	4902                	lw	s2,0(sp)
   142ec:	0141                	addi	sp,sp,16
   142ee:	8082                	ret

000142f0 <memset>:
   142f0:	433d                	li	t1,15
   142f2:	872a                	mv	a4,a0
   142f4:	02c37363          	bgeu	t1,a2,1431a <memset+0x2a>
   142f8:	00f77793          	andi	a5,a4,15
   142fc:	efbd                	bnez	a5,1437a <memset+0x8a>
   142fe:	e5ad                	bnez	a1,14368 <memset+0x78>
   14300:	ff067693          	andi	a3,a2,-16
   14304:	8a3d                	andi	a2,a2,15
   14306:	96ba                	add	a3,a3,a4
   14308:	c30c                	sw	a1,0(a4)
   1430a:	c34c                	sw	a1,4(a4)
   1430c:	c70c                	sw	a1,8(a4)
   1430e:	c74c                	sw	a1,12(a4)
   14310:	0741                	addi	a4,a4,16
   14312:	fed76be3          	bltu	a4,a3,14308 <memset+0x18>
   14316:	e211                	bnez	a2,1431a <memset+0x2a>
   14318:	8082                	ret
   1431a:	40c306b3          	sub	a3,t1,a2
   1431e:	068a                	slli	a3,a3,0x2
   14320:	00000297          	auipc	t0,0x0
   14324:	9696                	add	a3,a3,t0
   14326:	00a68067          	jr	10(a3)
   1432a:	00b70723          	sb	a1,14(a4)
   1432e:	00b706a3          	sb	a1,13(a4)
   14332:	00b70623          	sb	a1,12(a4)
   14336:	00b705a3          	sb	a1,11(a4)
   1433a:	00b70523          	sb	a1,10(a4)
   1433e:	00b704a3          	sb	a1,9(a4)
   14342:	00b70423          	sb	a1,8(a4)
   14346:	00b703a3          	sb	a1,7(a4)
   1434a:	00b70323          	sb	a1,6(a4)
   1434e:	00b702a3          	sb	a1,5(a4)
   14352:	00b70223          	sb	a1,4(a4)
   14356:	00b701a3          	sb	a1,3(a4)
   1435a:	00b70123          	sb	a1,2(a4)
   1435e:	00b700a3          	sb	a1,1(a4)
   14362:	00b70023          	sb	a1,0(a4)
   14366:	8082                	ret
   14368:	0ff5f593          	zext.b	a1,a1
   1436c:	00859693          	slli	a3,a1,0x8
   14370:	8dd5                	or	a1,a1,a3
   14372:	01059693          	slli	a3,a1,0x10
   14376:	8dd5                	or	a1,a1,a3
   14378:	b761                	j	14300 <memset+0x10>
   1437a:	00279693          	slli	a3,a5,0x2
   1437e:	00000297          	auipc	t0,0x0
   14382:	9696                	add	a3,a3,t0
   14384:	8286                	mv	t0,ra
   14386:	fa8680e7          	jalr	-88(a3)
   1438a:	8096                	mv	ra,t0
   1438c:	17c1                	addi	a5,a5,-16
   1438e:	8f1d                	sub	a4,a4,a5
   14390:	963e                	add	a2,a2,a5
   14392:	f8c374e3          	bgeu	t1,a2,1431a <memset+0x2a>
   14396:	b7a5                	j	142fe <memset+0xe>

00014398 <__call_exitprocs>:
   14398:	7179                	addi	sp,sp,-48
   1439a:	cc52                	sw	s4,24(sp)
   1439c:	d04a                	sw	s2,32(sp)
   1439e:	f281a903          	lw	s2,-216(gp) # 1f8c8 <__atexit>
   143a2:	d606                	sw	ra,44(sp)
   143a4:	06090c63          	beqz	s2,1441c <__call_exitprocs+0x84>
   143a8:	ce4e                	sw	s3,28(sp)
   143aa:	ca56                	sw	s5,20(sp)
   143ac:	c85a                	sw	s6,16(sp)
   143ae:	c65e                	sw	s7,12(sp)
   143b0:	d422                	sw	s0,40(sp)
   143b2:	d226                	sw	s1,36(sp)
   143b4:	c462                	sw	s8,8(sp)
   143b6:	8b2a                	mv	s6,a0
   143b8:	8bae                	mv	s7,a1
   143ba:	59fd                	li	s3,-1
   143bc:	4a85                	li	s5,1
   143be:	00492483          	lw	s1,4(s2)
   143c2:	fff48413          	addi	s0,s1,-1
   143c6:	04044463          	bltz	s0,1440e <__call_exitprocs+0x76>
   143ca:	048a                	slli	s1,s1,0x2
   143cc:	94ca                	add	s1,s1,s2
   143ce:	040b9c63          	bnez	s7,14426 <__call_exitprocs+0x8e>
   143d2:	00492783          	lw	a5,4(s2)
   143d6:	40d4                	lw	a3,4(s1)
   143d8:	17fd                	addi	a5,a5,-1
   143da:	08878063          	beq	a5,s0,1445a <__call_exitprocs+0xc2>
   143de:	0004a223          	sw	zero,4(s1)
   143e2:	c295                	beqz	a3,14406 <__call_exitprocs+0x6e>
   143e4:	18892783          	lw	a5,392(s2)
   143e8:	008a9733          	sll	a4,s5,s0
   143ec:	00492c03          	lw	s8,4(s2)
   143f0:	8ff9                	and	a5,a5,a4
   143f2:	e3b9                	bnez	a5,14438 <__call_exitprocs+0xa0>
   143f4:	9682                	jalr	a3
   143f6:	00492703          	lw	a4,4(s2)
   143fa:	f281a783          	lw	a5,-216(gp) # 1f8c8 <__atexit>
   143fe:	05871b63          	bne	a4,s8,14454 <__call_exitprocs+0xbc>
   14402:	05279963          	bne	a5,s2,14454 <__call_exitprocs+0xbc>
   14406:	147d                	addi	s0,s0,-1
   14408:	14f1                	addi	s1,s1,-4
   1440a:	fd3412e3          	bne	s0,s3,143ce <__call_exitprocs+0x36>
   1440e:	5422                	lw	s0,40(sp)
   14410:	5492                	lw	s1,36(sp)
   14412:	49f2                	lw	s3,28(sp)
   14414:	4ad2                	lw	s5,20(sp)
   14416:	4b42                	lw	s6,16(sp)
   14418:	4bb2                	lw	s7,12(sp)
   1441a:	4c22                	lw	s8,8(sp)
   1441c:	50b2                	lw	ra,44(sp)
   1441e:	5902                	lw	s2,32(sp)
   14420:	4a62                	lw	s4,24(sp)
   14422:	6145                	addi	sp,sp,48
   14424:	8082                	ret
   14426:	1044a783          	lw	a5,260(s1)
   1442a:	fb7784e3          	beq	a5,s7,143d2 <__call_exitprocs+0x3a>
   1442e:	147d                	addi	s0,s0,-1
   14430:	14f1                	addi	s1,s1,-4
   14432:	ff341ae3          	bne	s0,s3,14426 <__call_exitprocs+0x8e>
   14436:	bfe1                	j	1440e <__call_exitprocs+0x76>
   14438:	18c92783          	lw	a5,396(s2)
   1443c:	0844a583          	lw	a1,132(s1)
   14440:	8f7d                	and	a4,a4,a5
   14442:	ef19                	bnez	a4,14460 <__call_exitprocs+0xc8>
   14444:	855a                	mv	a0,s6
   14446:	9682                	jalr	a3
   14448:	00492703          	lw	a4,4(s2)
   1444c:	f281a783          	lw	a5,-216(gp) # 1f8c8 <__atexit>
   14450:	fb8709e3          	beq	a4,s8,14402 <__call_exitprocs+0x6a>
   14454:	dfcd                	beqz	a5,1440e <__call_exitprocs+0x76>
   14456:	893e                	mv	s2,a5
   14458:	b79d                	j	143be <__call_exitprocs+0x26>
   1445a:	00892223          	sw	s0,4(s2)
   1445e:	b751                	j	143e2 <__call_exitprocs+0x4a>
   14460:	852e                	mv	a0,a1
   14462:	9682                	jalr	a3
   14464:	bf49                	j	143f6 <__call_exitprocs+0x5e>

00014466 <atexit>:
   14466:	85aa                	mv	a1,a0
   14468:	4681                	li	a3,0
   1446a:	4601                	li	a2,0
   1446c:	4501                	li	a0,0
   1446e:	2a60306f          	j	17714 <__register_exitproc>

00014472 <_malloc_trim_r>:
   14472:	1101                	addi	sp,sp,-32
   14474:	c64e                	sw	s3,12(sp)
   14476:	0001f9b7          	lui	s3,0x1f
   1447a:	cc22                	sw	s0,24(sp)
   1447c:	ca26                	sw	s1,20(sp)
   1447e:	c84a                	sw	s2,16(sp)
   14480:	c452                	sw	s4,8(sp)
   14482:	ce06                	sw	ra,28(sp)
   14484:	8a2e                	mv	s4,a1
   14486:	892a                	mv	s2,a0
   14488:	2d098993          	addi	s3,s3,720 # 1f2d0 <__malloc_av_>
   1448c:	087000ef          	jal	14d12 <__malloc_lock>
   14490:	0089a703          	lw	a4,8(s3)
   14494:	6785                	lui	a5,0x1
   14496:	17bd                	addi	a5,a5,-17 # fef <exit-0xf0a5>
   14498:	4344                	lw	s1,4(a4)
   1449a:	6705                	lui	a4,0x1
   1449c:	98f1                	andi	s1,s1,-4
   1449e:	00f48433          	add	s0,s1,a5
   144a2:	41440433          	sub	s0,s0,s4
   144a6:	8031                	srli	s0,s0,0xc
   144a8:	147d                	addi	s0,s0,-1
   144aa:	0432                	slli	s0,s0,0xc
   144ac:	00e44b63          	blt	s0,a4,144c2 <_malloc_trim_r+0x50>
   144b0:	4581                	li	a1,0
   144b2:	854a                	mv	a0,s2
   144b4:	68d020ef          	jal	17340 <_sbrk_r>
   144b8:	0089a783          	lw	a5,8(s3)
   144bc:	97a6                	add	a5,a5,s1
   144be:	00f50e63          	beq	a0,a5,144da <_malloc_trim_r+0x68>
   144c2:	854a                	mv	a0,s2
   144c4:	051000ef          	jal	14d14 <__malloc_unlock>
   144c8:	40f2                	lw	ra,28(sp)
   144ca:	4462                	lw	s0,24(sp)
   144cc:	44d2                	lw	s1,20(sp)
   144ce:	4942                	lw	s2,16(sp)
   144d0:	49b2                	lw	s3,12(sp)
   144d2:	4a22                	lw	s4,8(sp)
   144d4:	4501                	li	a0,0
   144d6:	6105                	addi	sp,sp,32
   144d8:	8082                	ret
   144da:	408005b3          	neg	a1,s0
   144de:	854a                	mv	a0,s2
   144e0:	661020ef          	jal	17340 <_sbrk_r>
   144e4:	57fd                	li	a5,-1
   144e6:	02f50963          	beq	a0,a5,14518 <_malloc_trim_r+0xa6>
   144ea:	09418793          	addi	a5,gp,148 # 1fa34 <__malloc_current_mallinfo>
   144ee:	4398                	lw	a4,0(a5)
   144f0:	0089a683          	lw	a3,8(s3)
   144f4:	8c81                	sub	s1,s1,s0
   144f6:	0014e493          	ori	s1,s1,1
   144fa:	8f01                	sub	a4,a4,s0
   144fc:	854a                	mv	a0,s2
   144fe:	c2c4                	sw	s1,4(a3)
   14500:	c398                	sw	a4,0(a5)
   14502:	013000ef          	jal	14d14 <__malloc_unlock>
   14506:	40f2                	lw	ra,28(sp)
   14508:	4462                	lw	s0,24(sp)
   1450a:	44d2                	lw	s1,20(sp)
   1450c:	4942                	lw	s2,16(sp)
   1450e:	49b2                	lw	s3,12(sp)
   14510:	4a22                	lw	s4,8(sp)
   14512:	4505                	li	a0,1
   14514:	6105                	addi	sp,sp,32
   14516:	8082                	ret
   14518:	4581                	li	a1,0
   1451a:	854a                	mv	a0,s2
   1451c:	625020ef          	jal	17340 <_sbrk_r>
   14520:	0089a703          	lw	a4,8(s3)
   14524:	46bd                	li	a3,15
   14526:	40e507b3          	sub	a5,a0,a4
   1452a:	f8f6dce3          	bge	a3,a5,144c2 <_malloc_trim_r+0x50>
   1452e:	f181a683          	lw	a3,-232(gp) # 1f8b8 <__malloc_sbrk_base>
   14532:	0017e793          	ori	a5,a5,1
   14536:	c35c                	sw	a5,4(a4)
   14538:	8d15                	sub	a0,a0,a3
   1453a:	08a1aa23          	sw	a0,148(gp) # 1fa34 <__malloc_current_mallinfo>
   1453e:	b751                	j	144c2 <_malloc_trim_r+0x50>

00014540 <_free_r>:
   14540:	10058c63          	beqz	a1,14658 <_free_r+0x118>
   14544:	1141                	addi	sp,sp,-16
   14546:	c422                	sw	s0,8(sp)
   14548:	c226                	sw	s1,4(sp)
   1454a:	842e                	mv	s0,a1
   1454c:	84aa                	mv	s1,a0
   1454e:	c606                	sw	ra,12(sp)
   14550:	7c2000ef          	jal	14d12 <__malloc_lock>
   14554:	ffc42503          	lw	a0,-4(s0)
   14558:	ff840713          	addi	a4,s0,-8
   1455c:	0001f5b7          	lui	a1,0x1f
   14560:	ffe57793          	andi	a5,a0,-2
   14564:	00f70633          	add	a2,a4,a5
   14568:	2d058593          	addi	a1,a1,720 # 1f2d0 <__malloc_av_>
   1456c:	4254                	lw	a3,4(a2)
   1456e:	0085a803          	lw	a6,8(a1)
   14572:	9af1                	andi	a3,a3,-4
   14574:	12c80563          	beq	a6,a2,1469e <_free_r+0x15e>
   14578:	c254                	sw	a3,4(a2)
   1457a:	8905                	andi	a0,a0,1
   1457c:	00d60833          	add	a6,a2,a3
   14580:	e93d                	bnez	a0,145f6 <_free_r+0xb6>
   14582:	ff842303          	lw	t1,-8(s0)
   14586:	00482803          	lw	a6,4(a6)
   1458a:	0001f537          	lui	a0,0x1f
   1458e:	40670733          	sub	a4,a4,t1
   14592:	00872883          	lw	a7,8(a4) # 1008 <exit-0xf08c>
   14596:	2d850513          	addi	a0,a0,728 # 1f2d8 <__malloc_av_+0x8>
   1459a:	979a                	add	a5,a5,t1
   1459c:	00187813          	andi	a6,a6,1
   145a0:	0ea88263          	beq	a7,a0,14684 <_free_r+0x144>
   145a4:	00c72303          	lw	t1,12(a4)
   145a8:	0068a623          	sw	t1,12(a7)
   145ac:	01132423          	sw	a7,8(t1)
   145b0:	10080f63          	beqz	a6,146ce <_free_r+0x18e>
   145b4:	0017e693          	ori	a3,a5,1
   145b8:	c354                	sw	a3,4(a4)
   145ba:	c21c                	sw	a5,0(a2)
   145bc:	1ff00693          	li	a3,511
   145c0:	04f6e863          	bltu	a3,a5,14610 <_free_r+0xd0>
   145c4:	ff87f693          	andi	a3,a5,-8
   145c8:	06a1                	addi	a3,a3,8
   145ca:	41c8                	lw	a0,4(a1)
   145cc:	96ae                	add	a3,a3,a1
   145ce:	4290                	lw	a2,0(a3)
   145d0:	0057d813          	srli	a6,a5,0x5
   145d4:	4785                	li	a5,1
   145d6:	010797b3          	sll	a5,a5,a6
   145da:	8fc9                	or	a5,a5,a0
   145dc:	ff868513          	addi	a0,a3,-8
   145e0:	c748                	sw	a0,12(a4)
   145e2:	c710                	sw	a2,8(a4)
   145e4:	c1dc                	sw	a5,4(a1)
   145e6:	c298                	sw	a4,0(a3)
   145e8:	c658                	sw	a4,12(a2)
   145ea:	4422                	lw	s0,8(sp)
   145ec:	40b2                	lw	ra,12(sp)
   145ee:	8526                	mv	a0,s1
   145f0:	4492                	lw	s1,4(sp)
   145f2:	0141                	addi	sp,sp,16
   145f4:	a705                	j	14d14 <__malloc_unlock>
   145f6:	00482503          	lw	a0,4(a6)
   145fa:	8905                	andi	a0,a0,1
   145fc:	cd39                	beqz	a0,1465a <_free_r+0x11a>
   145fe:	0017e693          	ori	a3,a5,1
   14602:	fed42e23          	sw	a3,-4(s0)
   14606:	c21c                	sw	a5,0(a2)
   14608:	1ff00693          	li	a3,511
   1460c:	faf6fce3          	bgeu	a3,a5,145c4 <_free_r+0x84>
   14610:	0097d693          	srli	a3,a5,0x9
   14614:	4611                	li	a2,4
   14616:	0ad66e63          	bltu	a2,a3,146d2 <_free_r+0x192>
   1461a:	0067d693          	srli	a3,a5,0x6
   1461e:	03968513          	addi	a0,a3,57
   14622:	03868613          	addi	a2,a3,56
   14626:	050e                	slli	a0,a0,0x3
   14628:	952e                	add	a0,a0,a1
   1462a:	4114                	lw	a3,0(a0)
   1462c:	1561                	addi	a0,a0,-8
   1462e:	00d51663          	bne	a0,a3,1463a <_free_r+0xfa>
   14632:	a8f9                	j	14710 <_free_r+0x1d0>
   14634:	4694                	lw	a3,8(a3)
   14636:	00d50663          	beq	a0,a3,14642 <_free_r+0x102>
   1463a:	42d0                	lw	a2,4(a3)
   1463c:	9a71                	andi	a2,a2,-4
   1463e:	fec7ebe3          	bltu	a5,a2,14634 <_free_r+0xf4>
   14642:	46c8                	lw	a0,12(a3)
   14644:	c748                	sw	a0,12(a4)
   14646:	c714                	sw	a3,8(a4)
   14648:	4422                	lw	s0,8(sp)
   1464a:	c518                	sw	a4,8(a0)
   1464c:	40b2                	lw	ra,12(sp)
   1464e:	8526                	mv	a0,s1
   14650:	4492                	lw	s1,4(sp)
   14652:	c6d8                	sw	a4,12(a3)
   14654:	0141                	addi	sp,sp,16
   14656:	ad7d                	j	14d14 <__malloc_unlock>
   14658:	8082                	ret
   1465a:	0001f537          	lui	a0,0x1f
   1465e:	97b6                	add	a5,a5,a3
   14660:	2d850513          	addi	a0,a0,728 # 1f2d8 <__malloc_av_+0x8>
   14664:	4614                	lw	a3,8(a2)
   14666:	08a68b63          	beq	a3,a0,146fc <_free_r+0x1bc>
   1466a:	00c62803          	lw	a6,12(a2) # 200c <exit-0xe088>
   1466e:	0017e513          	ori	a0,a5,1
   14672:	00f70633          	add	a2,a4,a5
   14676:	0106a623          	sw	a6,12(a3)
   1467a:	00d82423          	sw	a3,8(a6)
   1467e:	c348                	sw	a0,4(a4)
   14680:	c21c                	sw	a5,0(a2)
   14682:	bf2d                	j	145bc <_free_r+0x7c>
   14684:	0c081d63          	bnez	a6,1475e <_free_r+0x21e>
   14688:	460c                	lw	a1,8(a2)
   1468a:	4650                	lw	a2,12(a2)
   1468c:	96be                	add	a3,a3,a5
   1468e:	0016e793          	ori	a5,a3,1
   14692:	c5d0                	sw	a2,12(a1)
   14694:	c60c                	sw	a1,8(a2)
   14696:	c35c                	sw	a5,4(a4)
   14698:	9736                	add	a4,a4,a3
   1469a:	c314                	sw	a3,0(a4)
   1469c:	b7b9                	j	145ea <_free_r+0xaa>
   1469e:	8905                	andi	a0,a0,1
   146a0:	96be                	add	a3,a3,a5
   146a2:	e909                	bnez	a0,146b4 <_free_r+0x174>
   146a4:	ff842503          	lw	a0,-8(s0)
   146a8:	8f09                	sub	a4,a4,a0
   146aa:	475c                	lw	a5,12(a4)
   146ac:	4710                	lw	a2,8(a4)
   146ae:	96aa                	add	a3,a3,a0
   146b0:	c65c                	sw	a5,12(a2)
   146b2:	c790                	sw	a2,8(a5)
   146b4:	0016e613          	ori	a2,a3,1
   146b8:	f1c1a783          	lw	a5,-228(gp) # 1f8bc <__malloc_trim_threshold>
   146bc:	c350                	sw	a2,4(a4)
   146be:	c598                	sw	a4,8(a1)
   146c0:	f2f6e5e3          	bltu	a3,a5,145ea <_free_r+0xaa>
   146c4:	f341a583          	lw	a1,-204(gp) # 1f8d4 <__malloc_top_pad>
   146c8:	8526                	mv	a0,s1
   146ca:	3365                	jal	14472 <_malloc_trim_r>
   146cc:	bf39                	j	145ea <_free_r+0xaa>
   146ce:	97b6                	add	a5,a5,a3
   146d0:	bf51                	j	14664 <_free_r+0x124>
   146d2:	4651                	li	a2,20
   146d4:	00d67e63          	bgeu	a2,a3,146f0 <_free_r+0x1b0>
   146d8:	05400613          	li	a2,84
   146dc:	04d66463          	bltu	a2,a3,14724 <_free_r+0x1e4>
   146e0:	00c7d693          	srli	a3,a5,0xc
   146e4:	06f68513          	addi	a0,a3,111
   146e8:	06e68613          	addi	a2,a3,110
   146ec:	050e                	slli	a0,a0,0x3
   146ee:	bf2d                	j	14628 <_free_r+0xe8>
   146f0:	05c68513          	addi	a0,a3,92
   146f4:	05b68613          	addi	a2,a3,91
   146f8:	050e                	slli	a0,a0,0x3
   146fa:	b73d                	j	14628 <_free_r+0xe8>
   146fc:	c9d8                	sw	a4,20(a1)
   146fe:	c998                	sw	a4,16(a1)
   14700:	0017e693          	ori	a3,a5,1
   14704:	c748                	sw	a0,12(a4)
   14706:	c708                	sw	a0,8(a4)
   14708:	c354                	sw	a3,4(a4)
   1470a:	973e                	add	a4,a4,a5
   1470c:	c31c                	sw	a5,0(a4)
   1470e:	bdf1                	j	145ea <_free_r+0xaa>
   14710:	0045a803          	lw	a6,4(a1)
   14714:	8609                	srai	a2,a2,0x2
   14716:	4785                	li	a5,1
   14718:	00c797b3          	sll	a5,a5,a2
   1471c:	0107e7b3          	or	a5,a5,a6
   14720:	c1dc                	sw	a5,4(a1)
   14722:	b70d                	j	14644 <_free_r+0x104>
   14724:	15400613          	li	a2,340
   14728:	00d66a63          	bltu	a2,a3,1473c <_free_r+0x1fc>
   1472c:	00f7d693          	srli	a3,a5,0xf
   14730:	07868513          	addi	a0,a3,120
   14734:	07768613          	addi	a2,a3,119
   14738:	050e                	slli	a0,a0,0x3
   1473a:	b5fd                	j	14628 <_free_r+0xe8>
   1473c:	55400613          	li	a2,1364
   14740:	00d66a63          	bltu	a2,a3,14754 <_free_r+0x214>
   14744:	0127d693          	srli	a3,a5,0x12
   14748:	07d68513          	addi	a0,a3,125
   1474c:	07c68613          	addi	a2,a3,124
   14750:	050e                	slli	a0,a0,0x3
   14752:	bdd9                	j	14628 <_free_r+0xe8>
   14754:	3f800513          	li	a0,1016
   14758:	07e00613          	li	a2,126
   1475c:	b5f1                	j	14628 <_free_r+0xe8>
   1475e:	0017e693          	ori	a3,a5,1
   14762:	c354                	sw	a3,4(a4)
   14764:	c21c                	sw	a5,0(a2)
   14766:	b551                	j	145ea <_free_r+0xaa>

00014768 <_malloc_r>:
   14768:	7179                	addi	sp,sp,-48
   1476a:	ce4e                	sw	s3,28(sp)
   1476c:	d606                	sw	ra,44(sp)
   1476e:	d422                	sw	s0,40(sp)
   14770:	d226                	sw	s1,36(sp)
   14772:	d04a                	sw	s2,32(sp)
   14774:	00b58793          	addi	a5,a1,11
   14778:	4759                	li	a4,22
   1477a:	89aa                	mv	s3,a0
   1477c:	04f76963          	bltu	a4,a5,147ce <_malloc_r+0x66>
   14780:	47c1                	li	a5,16
   14782:	16b7eb63          	bltu	a5,a1,148f8 <_malloc_r+0x190>
   14786:	2371                	jal	14d12 <__malloc_lock>
   14788:	47e1                	li	a5,24
   1478a:	4589                	li	a1,2
   1478c:	44c1                	li	s1,16
   1478e:	0001f937          	lui	s2,0x1f
   14792:	2d090913          	addi	s2,s2,720 # 1f2d0 <__malloc_av_>
   14796:	97ca                	add	a5,a5,s2
   14798:	43c0                	lw	s0,4(a5)
   1479a:	ff878713          	addi	a4,a5,-8
   1479e:	24e40f63          	beq	s0,a4,149fc <_malloc_r+0x294>
   147a2:	405c                	lw	a5,4(s0)
   147a4:	4454                	lw	a3,12(s0)
   147a6:	4410                	lw	a2,8(s0)
   147a8:	9bf1                	andi	a5,a5,-4
   147aa:	97a2                	add	a5,a5,s0
   147ac:	43d8                	lw	a4,4(a5)
   147ae:	c654                	sw	a3,12(a2)
   147b0:	c690                	sw	a2,8(a3)
   147b2:	00176713          	ori	a4,a4,1
   147b6:	854e                	mv	a0,s3
   147b8:	c3d8                	sw	a4,4(a5)
   147ba:	2ba9                	jal	14d14 <__malloc_unlock>
   147bc:	00840513          	addi	a0,s0,8
   147c0:	50b2                	lw	ra,44(sp)
   147c2:	5422                	lw	s0,40(sp)
   147c4:	5492                	lw	s1,36(sp)
   147c6:	5902                	lw	s2,32(sp)
   147c8:	49f2                	lw	s3,28(sp)
   147ca:	6145                	addi	sp,sp,48
   147cc:	8082                	ret
   147ce:	ff87f493          	andi	s1,a5,-8
   147d2:	1207c363          	bltz	a5,148f8 <_malloc_r+0x190>
   147d6:	12b4e163          	bltu	s1,a1,148f8 <_malloc_r+0x190>
   147da:	2b25                	jal	14d12 <__malloc_lock>
   147dc:	1f700793          	li	a5,503
   147e0:	2c97fd63          	bgeu	a5,s1,14aba <_malloc_r+0x352>
   147e4:	0094d793          	srli	a5,s1,0x9
   147e8:	10078d63          	beqz	a5,14902 <_malloc_r+0x19a>
   147ec:	4711                	li	a4,4
   147ee:	24f76c63          	bltu	a4,a5,14a46 <_malloc_r+0x2de>
   147f2:	0064d793          	srli	a5,s1,0x6
   147f6:	03978593          	addi	a1,a5,57
   147fa:	03878813          	addi	a6,a5,56
   147fe:	00359613          	slli	a2,a1,0x3
   14802:	0001f937          	lui	s2,0x1f
   14806:	2d090913          	addi	s2,s2,720 # 1f2d0 <__malloc_av_>
   1480a:	964a                	add	a2,a2,s2
   1480c:	4240                	lw	s0,4(a2)
   1480e:	1661                	addi	a2,a2,-8
   14810:	02860163          	beq	a2,s0,14832 <_malloc_r+0xca>
   14814:	453d                	li	a0,15
   14816:	a039                	j	14824 <_malloc_r+0xbc>
   14818:	4454                	lw	a3,12(s0)
   1481a:	1c075f63          	bgez	a4,149f8 <_malloc_r+0x290>
   1481e:	00d60a63          	beq	a2,a3,14832 <_malloc_r+0xca>
   14822:	8436                	mv	s0,a3
   14824:	405c                	lw	a5,4(s0)
   14826:	9bf1                	andi	a5,a5,-4
   14828:	40978733          	sub	a4,a5,s1
   1482c:	fee556e3          	bge	a0,a4,14818 <_malloc_r+0xb0>
   14830:	85c2                	mv	a1,a6
   14832:	01092403          	lw	s0,16(s2)
   14836:	0001f837          	lui	a6,0x1f
   1483a:	2d880813          	addi	a6,a6,728 # 1f2d8 <__malloc_av_+0x8>
   1483e:	1b040a63          	beq	s0,a6,149f2 <_malloc_r+0x28a>
   14842:	405c                	lw	a5,4(s0)
   14844:	46bd                	li	a3,15
   14846:	9bf1                	andi	a5,a5,-4
   14848:	40978733          	sub	a4,a5,s1
   1484c:	26e6cc63          	blt	a3,a4,14ac4 <_malloc_r+0x35c>
   14850:	01092a23          	sw	a6,20(s2)
   14854:	01092823          	sw	a6,16(s2)
   14858:	24075763          	bgez	a4,14aa6 <_malloc_r+0x33e>
   1485c:	1ff00713          	li	a4,511
   14860:	00492503          	lw	a0,4(s2)
   14864:	1af76163          	bltu	a4,a5,14a06 <_malloc_r+0x29e>
   14868:	ff87f713          	andi	a4,a5,-8
   1486c:	0721                	addi	a4,a4,8
   1486e:	974a                	add	a4,a4,s2
   14870:	4314                	lw	a3,0(a4)
   14872:	0057d613          	srli	a2,a5,0x5
   14876:	4785                	li	a5,1
   14878:	00c797b3          	sll	a5,a5,a2
   1487c:	8d5d                	or	a0,a0,a5
   1487e:	ff870793          	addi	a5,a4,-8
   14882:	c45c                	sw	a5,12(s0)
   14884:	c414                	sw	a3,8(s0)
   14886:	00a92223          	sw	a0,4(s2)
   1488a:	c300                	sw	s0,0(a4)
   1488c:	c6c0                	sw	s0,12(a3)
   1488e:	4025d793          	srai	a5,a1,0x2
   14892:	4605                	li	a2,1
   14894:	00f61633          	sll	a2,a2,a5
   14898:	06c56c63          	bltu	a0,a2,14910 <_malloc_r+0x1a8>
   1489c:	00a677b3          	and	a5,a2,a0
   148a0:	ef81                	bnez	a5,148b8 <_malloc_r+0x150>
   148a2:	0606                	slli	a2,a2,0x1
   148a4:	99f1                	andi	a1,a1,-4
   148a6:	00a677b3          	and	a5,a2,a0
   148aa:	0591                	addi	a1,a1,4
   148ac:	e791                	bnez	a5,148b8 <_malloc_r+0x150>
   148ae:	0606                	slli	a2,a2,0x1
   148b0:	00a677b3          	and	a5,a2,a0
   148b4:	0591                	addi	a1,a1,4
   148b6:	dfe5                	beqz	a5,148ae <_malloc_r+0x146>
   148b8:	48bd                	li	a7,15
   148ba:	00359313          	slli	t1,a1,0x3
   148be:	934a                	add	t1,t1,s2
   148c0:	851a                	mv	a0,t1
   148c2:	455c                	lw	a5,12(a0)
   148c4:	8e2e                	mv	t3,a1
   148c6:	1af50063          	beq	a0,a5,14a66 <_malloc_r+0x2fe>
   148ca:	43d8                	lw	a4,4(a5)
   148cc:	843e                	mv	s0,a5
   148ce:	47dc                	lw	a5,12(a5)
   148d0:	9b71                	andi	a4,a4,-4
   148d2:	409706b3          	sub	a3,a4,s1
   148d6:	18d8cf63          	blt	a7,a3,14a74 <_malloc_r+0x30c>
   148da:	fe06c6e3          	bltz	a3,148c6 <_malloc_r+0x15e>
   148de:	9722                	add	a4,a4,s0
   148e0:	4354                	lw	a3,4(a4)
   148e2:	4410                	lw	a2,8(s0)
   148e4:	854e                	mv	a0,s3
   148e6:	0016e693          	ori	a3,a3,1
   148ea:	c354                	sw	a3,4(a4)
   148ec:	c65c                	sw	a5,12(a2)
   148ee:	c790                	sw	a2,8(a5)
   148f0:	2115                	jal	14d14 <__malloc_unlock>
   148f2:	00840513          	addi	a0,s0,8
   148f6:	b5e9                	j	147c0 <_malloc_r+0x58>
   148f8:	47b1                	li	a5,12
   148fa:	00f9a023          	sw	a5,0(s3)
   148fe:	4501                	li	a0,0
   14900:	b5c1                	j	147c0 <_malloc_r+0x58>
   14902:	20000613          	li	a2,512
   14906:	04000593          	li	a1,64
   1490a:	03f00813          	li	a6,63
   1490e:	bdd5                	j	14802 <_malloc_r+0x9a>
   14910:	00892403          	lw	s0,8(s2)
   14914:	c85a                	sw	s6,16(sp)
   14916:	405c                	lw	a5,4(s0)
   14918:	ffc7fb13          	andi	s6,a5,-4
   1491c:	009b6763          	bltu	s6,s1,1492a <_malloc_r+0x1c2>
   14920:	409b0733          	sub	a4,s6,s1
   14924:	47bd                	li	a5,15
   14926:	0ae7c163          	blt	a5,a4,149c8 <_malloc_r+0x260>
   1492a:	c266                	sw	s9,4(sp)
   1492c:	ca56                	sw	s5,20(sp)
   1492e:	f181a703          	lw	a4,-232(gp) # 1f8b8 <__malloc_sbrk_base>
   14932:	f341aa83          	lw	s5,-204(gp) # 1f8d4 <__malloc_top_pad>
   14936:	cc52                	sw	s4,24(sp)
   14938:	c65e                	sw	s7,12(sp)
   1493a:	57fd                	li	a5,-1
   1493c:	01640a33          	add	s4,s0,s6
   14940:	9aa6                	add	s5,s5,s1
   14942:	2cf70763          	beq	a4,a5,14c10 <_malloc_r+0x4a8>
   14946:	6785                	lui	a5,0x1
   14948:	07bd                	addi	a5,a5,15 # 100f <exit-0xf085>
   1494a:	9abe                	add	s5,s5,a5
   1494c:	77fd                	lui	a5,0xfffff
   1494e:	00fafab3          	and	s5,s5,a5
   14952:	85d6                	mv	a1,s5
   14954:	854e                	mv	a0,s3
   14956:	1eb020ef          	jal	17340 <_sbrk_r>
   1495a:	57fd                	li	a5,-1
   1495c:	8baa                	mv	s7,a0
   1495e:	32f50963          	beq	a0,a5,14c90 <_malloc_r+0x528>
   14962:	c462                	sw	s8,8(sp)
   14964:	19456e63          	bltu	a0,s4,14b00 <_malloc_r+0x398>
   14968:	09418c13          	addi	s8,gp,148 # 1fa34 <__malloc_current_mallinfo>
   1496c:	000c2583          	lw	a1,0(s8)
   14970:	95d6                	add	a1,a1,s5
   14972:	00bc2023          	sw	a1,0(s8)
   14976:	872e                	mv	a4,a1
   14978:	1eaa1863          	bne	s4,a0,14b68 <_malloc_r+0x400>
   1497c:	01451793          	slli	a5,a0,0x14
   14980:	1e079463          	bnez	a5,14b68 <_malloc_r+0x400>
   14984:	00892b83          	lw	s7,8(s2)
   14988:	015b07b3          	add	a5,s6,s5
   1498c:	0017e793          	ori	a5,a5,1
   14990:	00fba223          	sw	a5,4(s7)
   14994:	f301a683          	lw	a3,-208(gp) # 1f8d0 <__malloc_max_sbrked_mem>
   14998:	00b6f463          	bgeu	a3,a1,149a0 <_malloc_r+0x238>
   1499c:	f2b1a823          	sw	a1,-208(gp) # 1f8d0 <__malloc_max_sbrked_mem>
   149a0:	f2c1a683          	lw	a3,-212(gp) # 1f8cc <__malloc_max_total_mem>
   149a4:	00b6f463          	bgeu	a3,a1,149ac <_malloc_r+0x244>
   149a8:	f2b1a623          	sw	a1,-212(gp) # 1f8cc <__malloc_max_total_mem>
   149ac:	4c22                	lw	s8,8(sp)
   149ae:	845e                	mv	s0,s7
   149b0:	9bf1                	andi	a5,a5,-4
   149b2:	40978733          	sub	a4,a5,s1
   149b6:	2897eb63          	bltu	a5,s1,14c4c <_malloc_r+0x4e4>
   149ba:	47bd                	li	a5,15
   149bc:	28e7d863          	bge	a5,a4,14c4c <_malloc_r+0x4e4>
   149c0:	4a62                	lw	s4,24(sp)
   149c2:	4ad2                	lw	s5,20(sp)
   149c4:	4bb2                	lw	s7,12(sp)
   149c6:	4c92                	lw	s9,4(sp)
   149c8:	0014e793          	ori	a5,s1,1
   149cc:	c05c                	sw	a5,4(s0)
   149ce:	94a2                	add	s1,s1,s0
   149d0:	00992423          	sw	s1,8(s2)
   149d4:	00176713          	ori	a4,a4,1
   149d8:	854e                	mv	a0,s3
   149da:	c0d8                	sw	a4,4(s1)
   149dc:	2e25                	jal	14d14 <__malloc_unlock>
   149de:	50b2                	lw	ra,44(sp)
   149e0:	00840513          	addi	a0,s0,8
   149e4:	5422                	lw	s0,40(sp)
   149e6:	4b42                	lw	s6,16(sp)
   149e8:	5492                	lw	s1,36(sp)
   149ea:	5902                	lw	s2,32(sp)
   149ec:	49f2                	lw	s3,28(sp)
   149ee:	6145                	addi	sp,sp,48
   149f0:	8082                	ret
   149f2:	00492503          	lw	a0,4(s2)
   149f6:	bd61                	j	1488e <_malloc_r+0x126>
   149f8:	4410                	lw	a2,8(s0)
   149fa:	bb45                	j	147aa <_malloc_r+0x42>
   149fc:	47c0                	lw	s0,12(a5)
   149fe:	0589                	addi	a1,a1,2
   14a00:	e28789e3          	beq	a5,s0,14832 <_malloc_r+0xca>
   14a04:	bb79                	j	147a2 <_malloc_r+0x3a>
   14a06:	0097d713          	srli	a4,a5,0x9
   14a0a:	4691                	li	a3,4
   14a0c:	0ee6f263          	bgeu	a3,a4,14af0 <_malloc_r+0x388>
   14a10:	46d1                	li	a3,20
   14a12:	24e6e663          	bltu	a3,a4,14c5e <_malloc_r+0x4f6>
   14a16:	05c70613          	addi	a2,a4,92
   14a1a:	05b70693          	addi	a3,a4,91
   14a1e:	060e                	slli	a2,a2,0x3
   14a20:	964a                	add	a2,a2,s2
   14a22:	4218                	lw	a4,0(a2)
   14a24:	1661                	addi	a2,a2,-8
   14a26:	00e61663          	bne	a2,a4,14a32 <_malloc_r+0x2ca>
   14a2a:	a2ed                	j	14c14 <_malloc_r+0x4ac>
   14a2c:	4718                	lw	a4,8(a4)
   14a2e:	00e60663          	beq	a2,a4,14a3a <_malloc_r+0x2d2>
   14a32:	4354                	lw	a3,4(a4)
   14a34:	9af1                	andi	a3,a3,-4
   14a36:	fed7ebe3          	bltu	a5,a3,14a2c <_malloc_r+0x2c4>
   14a3a:	4750                	lw	a2,12(a4)
   14a3c:	c450                	sw	a2,12(s0)
   14a3e:	c418                	sw	a4,8(s0)
   14a40:	c600                	sw	s0,8(a2)
   14a42:	c740                	sw	s0,12(a4)
   14a44:	b5a9                	j	1488e <_malloc_r+0x126>
   14a46:	4751                	li	a4,20
   14a48:	0cf77363          	bgeu	a4,a5,14b0e <_malloc_r+0x3a6>
   14a4c:	05400713          	li	a4,84
   14a50:	22f76363          	bltu	a4,a5,14c76 <_malloc_r+0x50e>
   14a54:	00c4d793          	srli	a5,s1,0xc
   14a58:	06f78593          	addi	a1,a5,111 # fffff06f <__BSS_END__+0xfffdf483>
   14a5c:	06e78813          	addi	a6,a5,110
   14a60:	00359613          	slli	a2,a1,0x3
   14a64:	bb79                	j	14802 <_malloc_r+0x9a>
   14a66:	0e05                	addi	t3,t3,1
   14a68:	003e7793          	andi	a5,t3,3
   14a6c:	0521                	addi	a0,a0,8
   14a6e:	cfc5                	beqz	a5,14b26 <_malloc_r+0x3be>
   14a70:	455c                	lw	a5,12(a0)
   14a72:	bd91                	j	148c6 <_malloc_r+0x15e>
   14a74:	4410                	lw	a2,8(s0)
   14a76:	0014e593          	ori	a1,s1,1
   14a7a:	c04c                	sw	a1,4(s0)
   14a7c:	c65c                	sw	a5,12(a2)
   14a7e:	c790                	sw	a2,8(a5)
   14a80:	94a2                	add	s1,s1,s0
   14a82:	00992a23          	sw	s1,20(s2)
   14a86:	00992823          	sw	s1,16(s2)
   14a8a:	0016e793          	ori	a5,a3,1
   14a8e:	0104a623          	sw	a6,12(s1)
   14a92:	0104a423          	sw	a6,8(s1)
   14a96:	c0dc                	sw	a5,4(s1)
   14a98:	9722                	add	a4,a4,s0
   14a9a:	854e                	mv	a0,s3
   14a9c:	c314                	sw	a3,0(a4)
   14a9e:	2c9d                	jal	14d14 <__malloc_unlock>
   14aa0:	00840513          	addi	a0,s0,8
   14aa4:	bb31                	j	147c0 <_malloc_r+0x58>
   14aa6:	97a2                	add	a5,a5,s0
   14aa8:	43d8                	lw	a4,4(a5)
   14aaa:	854e                	mv	a0,s3
   14aac:	00176713          	ori	a4,a4,1
   14ab0:	c3d8                	sw	a4,4(a5)
   14ab2:	248d                	jal	14d14 <__malloc_unlock>
   14ab4:	00840513          	addi	a0,s0,8
   14ab8:	b321                	j	147c0 <_malloc_r+0x58>
   14aba:	0034d593          	srli	a1,s1,0x3
   14abe:	00848793          	addi	a5,s1,8
   14ac2:	b1f1                	j	1478e <_malloc_r+0x26>
   14ac4:	0014e693          	ori	a3,s1,1
   14ac8:	c054                	sw	a3,4(s0)
   14aca:	94a2                	add	s1,s1,s0
   14acc:	00992a23          	sw	s1,20(s2)
   14ad0:	00992823          	sw	s1,16(s2)
   14ad4:	00176693          	ori	a3,a4,1
   14ad8:	0104a623          	sw	a6,12(s1)
   14adc:	0104a423          	sw	a6,8(s1)
   14ae0:	c0d4                	sw	a3,4(s1)
   14ae2:	97a2                	add	a5,a5,s0
   14ae4:	854e                	mv	a0,s3
   14ae6:	c398                	sw	a4,0(a5)
   14ae8:	2435                	jal	14d14 <__malloc_unlock>
   14aea:	00840513          	addi	a0,s0,8
   14aee:	b9c9                	j	147c0 <_malloc_r+0x58>
   14af0:	0067d713          	srli	a4,a5,0x6
   14af4:	03970613          	addi	a2,a4,57
   14af8:	03870693          	addi	a3,a4,56
   14afc:	060e                	slli	a2,a2,0x3
   14afe:	b70d                	j	14a20 <_malloc_r+0x2b8>
   14b00:	05240d63          	beq	s0,s2,14b5a <_malloc_r+0x3f2>
   14b04:	00892403          	lw	s0,8(s2)
   14b08:	4c22                	lw	s8,8(sp)
   14b0a:	405c                	lw	a5,4(s0)
   14b0c:	b555                	j	149b0 <_malloc_r+0x248>
   14b0e:	05c78593          	addi	a1,a5,92
   14b12:	05b78813          	addi	a6,a5,91
   14b16:	00359613          	slli	a2,a1,0x3
   14b1a:	b1e5                	j	14802 <_malloc_r+0x9a>
   14b1c:	00832783          	lw	a5,8(t1)
   14b20:	15fd                	addi	a1,a1,-1
   14b22:	1e679563          	bne	a5,t1,14d0c <_malloc_r+0x5a4>
   14b26:	0035f793          	andi	a5,a1,3
   14b2a:	1361                	addi	t1,t1,-8
   14b2c:	fbe5                	bnez	a5,14b1c <_malloc_r+0x3b4>
   14b2e:	00492703          	lw	a4,4(s2)
   14b32:	fff64793          	not	a5,a2
   14b36:	8ff9                	and	a5,a5,a4
   14b38:	00f92223          	sw	a5,4(s2)
   14b3c:	0606                	slli	a2,a2,0x1
   14b3e:	dcc7e9e3          	bltu	a5,a2,14910 <_malloc_r+0x1a8>
   14b42:	dc0607e3          	beqz	a2,14910 <_malloc_r+0x1a8>
   14b46:	00f67733          	and	a4,a2,a5
   14b4a:	e711                	bnez	a4,14b56 <_malloc_r+0x3ee>
   14b4c:	0606                	slli	a2,a2,0x1
   14b4e:	00f67733          	and	a4,a2,a5
   14b52:	0e11                	addi	t3,t3,4
   14b54:	df65                	beqz	a4,14b4c <_malloc_r+0x3e4>
   14b56:	85f2                	mv	a1,t3
   14b58:	b38d                	j	148ba <_malloc_r+0x152>
   14b5a:	09418c13          	addi	s8,gp,148 # 1fa34 <__malloc_current_mallinfo>
   14b5e:	000c2703          	lw	a4,0(s8)
   14b62:	9756                	add	a4,a4,s5
   14b64:	00ec2023          	sw	a4,0(s8)
   14b68:	f181a683          	lw	a3,-232(gp) # 1f8b8 <__malloc_sbrk_base>
   14b6c:	57fd                	li	a5,-1
   14b6e:	12f68563          	beq	a3,a5,14c98 <_malloc_r+0x530>
   14b72:	414b87b3          	sub	a5,s7,s4
   14b76:	97ba                	add	a5,a5,a4
   14b78:	00fc2023          	sw	a5,0(s8)
   14b7c:	007bfc93          	andi	s9,s7,7
   14b80:	0a0c8263          	beqz	s9,14c24 <_malloc_r+0x4bc>
   14b84:	419b8bb3          	sub	s7,s7,s9
   14b88:	6785                	lui	a5,0x1
   14b8a:	07a1                	addi	a5,a5,8 # 1008 <exit-0xf08c>
   14b8c:	0ba1                	addi	s7,s7,8
   14b8e:	419785b3          	sub	a1,a5,s9
   14b92:	9ade                	add	s5,s5,s7
   14b94:	415585b3          	sub	a1,a1,s5
   14b98:	05d2                	slli	a1,a1,0x14
   14b9a:	0145da13          	srli	s4,a1,0x14
   14b9e:	85d2                	mv	a1,s4
   14ba0:	854e                	mv	a0,s3
   14ba2:	79e020ef          	jal	17340 <_sbrk_r>
   14ba6:	57fd                	li	a5,-1
   14ba8:	12f50463          	beq	a0,a5,14cd0 <_malloc_r+0x568>
   14bac:	41750533          	sub	a0,a0,s7
   14bb0:	01450ab3          	add	s5,a0,s4
   14bb4:	000c2703          	lw	a4,0(s8)
   14bb8:	01792423          	sw	s7,8(s2)
   14bbc:	001ae793          	ori	a5,s5,1
   14bc0:	00ea05b3          	add	a1,s4,a4
   14bc4:	00bc2023          	sw	a1,0(s8)
